
nios_application.elf:     file format elf32-littlenios2
nios_application.elf
architecture: nios2:r1, flags 0x00000112:
EXEC_P, HAS_SYMS, D_PAGED
start address 0x00020020

Program Header:
    LOAD off    0x00001000 vaddr 0x00020000 paddr 0x00020000 align 2**12
         filesz 0x00000020 memsz 0x00000020 flags r-x
    LOAD off    0x00001020 vaddr 0x00020020 paddr 0x00020020 align 2**12
         filesz 0x0000a2e8 memsz 0x0000a2e8 flags r-x
    LOAD off    0x0000c000 vaddr 0x08000000 paddr 0x0002a308 align 2**12
         filesz 0x00000f5c memsz 0x00002064 flags rw-

Sections:
Idx Name          Size      VMA       LMA       File off  Algn
  0 .entry        00000020  00020000  00020000  00001000  2**5
                  CONTENTS, ALLOC, LOAD, READONLY, CODE
  1 .exceptions   00000000  00020020  00020020  0000cf5c  2**0
                  CONTENTS
  2 .text         0000a2e8  00020020  00020020  00001020  2**2
                  CONTENTS, ALLOC, LOAD, READONLY, CODE
  3 .rodata       000005a8  08000000  0002a308  0000c000  2**2
                  CONTENTS, ALLOC, LOAD, READONLY, DATA
  4 .rwdata       000009b4  080005a8  0002a8b0  0000c5a8  2**2
                  CONTENTS, ALLOC, LOAD, DATA, SMALL_DATA
  5 .bss          00001108  08000f5c  0002b264  0000cf5c  2**2
                  ALLOC, SMALL_DATA
  6 .onchip_memory2_0 00000000  0002b264  0002b264  0000cf5c  2**0
                  CONTENTS
  7 .sdram_controller 00000000  08002064  08002064  0000cf5c  2**0
                  CONTENTS
  8 .comment      00000023  00000000  00000000  0000cf5c  2**0
                  CONTENTS, READONLY
  9 .debug_aranges 00000b58  00000000  00000000  0000cf80  2**3
                  CONTENTS, READONLY, DEBUGGING
 10 .debug_info   00017ece  00000000  00000000  0000dad8  2**0
                  CONTENTS, READONLY, DEBUGGING
 11 .debug_abbrev 00007222  00000000  00000000  000259a6  2**0
                  CONTENTS, READONLY, DEBUGGING
 12 .debug_line   00008706  00000000  00000000  0002cbc8  2**0
                  CONTENTS, READONLY, DEBUGGING
 13 .debug_frame  000022ac  00000000  00000000  000352d0  2**2
                  CONTENTS, READONLY, DEBUGGING
 14 .debug_str    000058c3  00000000  00000000  0003757c  2**0
                  CONTENTS, READONLY, DEBUGGING
 15 .debug_loc    000063c8  00000000  00000000  0003ce3f  2**0
                  CONTENTS, READONLY, DEBUGGING
 16 .debug_alt_sim_info 00000010  00000000  00000000  00043208  2**2
                  CONTENTS, READONLY, DEBUGGING
 17 .debug_ranges 00000950  00000000  00000000  00043218  2**3
                  CONTENTS, READONLY, DEBUGGING
 18 .thread_model 00000003  00000000  00000000  00048134  2**0
                  CONTENTS, READONLY
 19 .cpu          0000000c  00000000  00000000  00048137  2**0
                  CONTENTS, READONLY
 20 .qsys         00000001  00000000  00000000  00048143  2**0
                  CONTENTS, READONLY
 21 .simulation_enabled 00000001  00000000  00000000  00048144  2**0
                  CONTENTS, READONLY
 22 .stderr_dev   0000000b  00000000  00000000  00048145  2**0
                  CONTENTS, READONLY
 23 .stdin_dev    0000000b  00000000  00000000  00048150  2**0
                  CONTENTS, READONLY
 24 .stdout_dev   0000000b  00000000  00000000  0004815b  2**0
                  CONTENTS, READONLY
 25 .sopc_system_name 0000000f  00000000  00000000  00048166  2**0
                  CONTENTS, READONLY
 26 .quartus_project_dir 00000010  00000000  00000000  00048175  2**0
                  CONTENTS, READONLY
 27 .jdi          00004576  00000000  00000000  00048185  2**0
                  CONTENTS, READONLY
 28 .sopcinfo     00066b18  00000000  00000000  0004c6fb  2**0
                  CONTENTS, READONLY
SYMBOL TABLE:
00020000 l    d  .entry	00000000 .entry
00020020 l    d  .exceptions	00000000 .exceptions
00020020 l    d  .text	00000000 .text
08000000 l    d  .rodata	00000000 .rodata
080005a8 l    d  .rwdata	00000000 .rwdata
08000f5c l    d  .bss	00000000 .bss
0002b264 l    d  .onchip_memory2_0	00000000 .onchip_memory2_0
08002064 l    d  .sdram_controller	00000000 .sdram_controller
00000000 l    d  .comment	00000000 .comment
00000000 l    d  .debug_aranges	00000000 .debug_aranges
00000000 l    d  .debug_info	00000000 .debug_info
00000000 l    d  .debug_abbrev	00000000 .debug_abbrev
00000000 l    d  .debug_line	00000000 .debug_line
00000000 l    d  .debug_frame	00000000 .debug_frame
00000000 l    d  .debug_str	00000000 .debug_str
00000000 l    d  .debug_loc	00000000 .debug_loc
00000000 l    d  .debug_alt_sim_info	00000000 .debug_alt_sim_info
00000000 l    d  .debug_ranges	00000000 .debug_ranges
00000000 l    df *ABS*	00000000 ../nios_application_bsp//obj/HAL/src/crt0.o
00020058 l       .text	00000000 alt_after_alt_main
00000000 l    df *ABS*	00000000 BTUart.cpp
00000000 l    df *ABS*	00000000 SDCard.cpp
00000000 l    df *ABS*	00000000 WiFiUart.cpp
00000000 l    df *ABS*	00000000 bt_task.cpp
00000000 l    df *ABS*	00000000 main.cpp
00000000 l    df *ABS*	00000000 sd_task.cpp
00000000 l    df *ABS*	00000000 wifi_task.cpp
00000000 l    df *ABS*	00000000 eh_personality.cc
00020964 l     F .text	00000058 _ZL12read_sleb128PKhPl
000209bc l     F .text	00000088 _ZL16get_adjusted_ptrPKSt9type_infoS1_PPv
00020a44 l     F .text	000000a0 _ZL21size_of_encoded_valueh
00020ae4 l     F .text	00000210 _ZL28read_encoded_value_with_basehjPKhPj
00020cf4 l     F .text	00000054 _ZL15get_ttype_entryP16lsda_header_infom
00020d48 l     F .text	000000a8 _ZL20check_exception_specP16lsda_header_infoPKSt9type_infoPvl
00020df0 l     F .text	00000088 _ZL21base_of_encoded_valuehP15_Unwind_Context
00020e78 l     F .text	00000240 _ZL28check_compact_exception_specPKSt9type_infoPvPKhij
000210b8 l     F .text	00000134 _ZL17parse_lsda_headerP15_Unwind_ContextPKhP16lsda_header_info
00000000 l    df *ABS*	00000000 eh_globals.cc
08000f70 l     O .bss	00000008 _ZL10eh_globals
00000000 l    df *ABS*	00000000 class_type_info.cc
00000000 l    df *ABS*	00000000 del_op.cc
00000000 l    df *ABS*	00000000 eh_terminate.cc
00000000 l    df *ABS*	00000000 si_class_type_info.cc
00000000 l    df *ABS*	00000000 eh_catch.cc
00000000 l    df *ABS*	00000000 eh_call.cc
00000000 l    df *ABS*	00000000 eh_term_handler.cc
00000000 l    df *ABS*	00000000 eh_throw.cc
000221f4 l     F .text	00000044 _ZL23__gxx_exception_cleanup19_Unwind_Reason_CodeP17_Unwind_Exception
00000000 l    df *ABS*	00000000 tinfo.cc
00000000 l    df *ABS*	00000000 eh_alloc.cc
08000f7c l     O .bss	00000004 _ZL14emergency_used
080012d4 l     O .bss	00000800 _ZL16emergency_buffer
08000f78 l     O .bss	00000004 _ZL15dependents_used
080011d4 l     O .bss	00000100 _ZL17dependents_buffer
00000000 l    df *ABS*	00000000 eh_exception.cc
00000000 l    df *ABS*	00000000 eh_unex_handler.cc
00000000 l    df *ABS*	00000000 pure.cc
00000000 l    df *ABS*	00000000 lib2-mul.c
00000000 l    df *ABS*	00000000 unwind-sjlj.c
0002260c l     F .text	00000118 _Unwind_ForcedUnwind_Phase2
08000f80 l     O .bss	00000004 fc_static
00022724 l     F .text	000000c0 _Unwind_RaiseException_Phase2
000227e4 l     F .text	00000030 uw_install_context.isra.1
00000000 l    df *ABS*	00000000 abort.c
00000000 l    df *ABS*	00000000 malloc.c
00000000 l    df *ABS*	00000000 mallocr.c
00000000 l    df *ABS*	00000000 memset.c
00000000 l    df *ABS*	00000000 printf.c
00000000 l    df *ABS*	00000000 putchar.c
00000000 l    df *ABS*	00000000 puts.c
00000000 l    df *ABS*	00000000 sbrkr.c
00000000 l    df *ABS*	00000000 signal.c
00000000 l    df *ABS*	00000000 signalr.c
00000000 l    df *ABS*	00000000 strcmp.c
00000000 l    df *ABS*	00000000 strlen.c
00000000 l    df *ABS*	00000000 vfprintf.c
000236d8 l     F .text	0000006c print_repeat
00000000 l    df *ABS*	00000000 mallocr.c
00000000 l    df *ABS*	00000000 fvwrite_small_dev.c
00000000 l    df *ABS*	00000000 impure.c
08000bb0 l     O .rwdata	000000e0 impure_data
00000000 l    df *ABS*	00000000 int_errno.c
00000000 l    df *ABS*	00000000 putc.c
00000000 l    df *ABS*	00000000 writer.c
00000000 l    df *ABS*	00000000 lib2-divmod.c
00024230 l     F .text	0000006c udivmodsi4
00000000 l    df *ABS*	00000000 alt_exit.c
00000000 l    df *ABS*	00000000 alt_getpid.c
00000000 l    df *ABS*	00000000 alt_kill.c
000243b0 l     F .text	00000050 alt_get_errno
00000000 l    df *ABS*	00000000 alt_load.c
00024530 l     F .text	00000064 alt_load_section
00000000 l    df *ABS*	00000000 alt_main.c
00000000 l    df *ABS*	00000000 alt_malloc_lock.c
00000000 l    df *ABS*	00000000 alt_printf.c
00000000 l    df *ABS*	00000000 alt_putchar.c
00000000 l    df *ABS*	00000000 alt_sbrk.c
08000f40 l     O .rwdata	00000004 heap_end
00000000 l    df *ABS*	00000000 alt_write.c
000249e8 l     F .text	00000050 alt_get_errno
00000000 l    df *ABS*	00000000 alt_sys_init.c
00024b38 l     F .text	00000038 alt_dev_reg
08000c90 l     O .rwdata	0000002c jtag_uart_0
08000cbc l     O .rwdata	0000002c bt_rs232_uart
08000ce8 l     O .rwdata	0000002c wifi_rs232_uart
08000d14 l     O .rwdata	0000002c sd_card_ic
00000000 l    df *ABS*	00000000 Altera_UP_SD_Card_Avalon_Interface.c
00000000 l    df *ABS*	00000000 altera_avalon_jtag_uart_fd.c
00000000 l    df *ABS*	00000000 altera_avalon_jtag_uart_read.c
00000000 l    df *ABS*	00000000 altera_avalon_jtag_uart_write.c
00000000 l    df *ABS*	00000000 altera_up_avalon_rs232.c
00000000 l    df *ABS*	00000000 alt_close.c
00029538 l     F .text	00000050 alt_get_errno
00000000 l    df *ABS*	00000000 alt_dcache_flush_all.c
00000000 l    df *ABS*	00000000 alt_dev.c
0002967c l     F .text	0000002c alt_dev_null_write
00000000 l    df *ABS*	00000000 alt_dev_llist_insert.c
000296a8 l     F .text	00000050 alt_get_errno
00000000 l    df *ABS*	00000000 alt_do_ctors.c
00000000 l    df *ABS*	00000000 alt_do_dtors.c
00000000 l    df *ABS*	00000000 alt_errno.c
00000000 l    df *ABS*	00000000 alt_find_dev.c
00000000 l    df *ABS*	00000000 alt_icache_flush_all.c
00000000 l    df *ABS*	00000000 alt_io_redirect.c
00029900 l     F .text	000000e0 alt_open_fd
00000000 l    df *ABS*	00000000 alt_open.c
00029a58 l     F .text	00000050 alt_get_errno
00029aa8 l     F .text	000000f4 alt_file_locked
00000000 l    df *ABS*	00000000 alt_release_fd.c
00000000 l    df *ABS*	00000000 altera_nios2_gen2_irq.c
00000000 l    df *ABS*	00000000 alt_find_file.c
00000000 l    df *ABS*	00000000 alt_get_fd.c
00000000 l    df *ABS*	00000000 atexit.c
00000000 l    df *ABS*	00000000 exit.c
00000000 l    df *ABS*	00000000 memcmp.c
00000000 l    df *ABS*	00000000 __atexit.c
00000000 l    df *ABS*	00000000 __call_atexit.c
00022454 g     F .text	00000044 __cxa_free_exception
08000fa8 g     O .bss	00000004 aux_status_register
000232a0 g     F .text	00000018 putchar
00022358 g     F .text	00000008 _ZNKSt9type_info15__is_function_pEv
00021cec g     F .text	00000018 _ZSt10unexpectedv
00024614 g     F .text	00000078 alt_main
000232b8 g     F .text	00000080 _puts_r
00022594 g     F .text	00000004 _ZN10__cxxabiv115__forced_unwindD1Ev
000228a0 g     F .text	00000020 .hidden _Unwind_GetIPInfo
0002a8b0 g       *ABS*	00000000 __flash_rwdata_start
000222c8 g     F .text	00000084 __cxa_rethrow
00024f64 g     F .text	000001ac Check_for_Master_Boot_Record
0002282c g     F .text	00000014 .hidden _Unwind_SjLj_Unregister
00021d28 g     F .text	00000014 _ZSt14set_unexpectedPFvvE
00020538 g     F .text	00000148 _Z7bt_taskv
00022890 g     F .text	00000010 .hidden _Unwind_GetIP
08002064 g       *ABS*	00000000 __alt_heap_start
00028da8 g     F .text	000001cc alt_up_sd_card_fclose
0002362c g     F .text	00000054 _kill_r
0002324c g     F .text	0000004c printf
00023400 g     F .text	0000007c _signal_r
08000018  w    O .rodata	00000010 _ZTV6BTUart
0002252c g     F .text	00000040 __cxa_free_dependent_exception
00021d4c g     F .text	00000010 _ZN10__cxxabiv120__si_class_type_infoD2Ev
08000380  w    O .rodata	00000025 _ZTSN10__cxxabiv120__si_class_type_infoE
0002047c g     F .text	00000038 _ZN6SDCardD0Ev
000246ac g     F .text	00000020 __malloc_unlock
000293d4 g     F .text	00000090 alt_up_rs232_read_fd
00022594 g     F .text	00000004 _ZN10__cxxabiv115__forced_unwindD2Ev
00020404 g     F .text	00000030 _ZN6SDCardC2Ev
0002217c g     F .text	00000020 _ZSt18uncaught_exceptionv
08000fcc g     O .bss	00000004 current_sector_modified
000225c4 g     F .text	00000020 __cxa_deleted_virtual
000203b8 g     F .text	0000004c _ZN6BTUart5flushEv
0002256c g     F .text	00000004 _ZNSt9exceptionD2Ev
0002797c g     F .text	000000c4 alt_up_sd_card_is_Present
00024cac g     F .text	0000004c Save_Modified_Sector
080004bc  w    O .rodata	00000014 _ZTVSt13bad_exception
00029d7c g     F .text	00000020 altera_nios2_gen2_irq_init
00000000  w      *UND*	00000000 __errno
00020000 g     F .entry	0000000c __reset
08000fc4 g     O .bss	00000004 fat_partition_size_in_512_byte_sectors
000228dc g     F .text	00000008 .hidden _Unwind_GetRegionStart
00020020 g       *ABS*	00000000 __flash_exceptions_start
08000f90 g     O .bss	00000004 errno
08000000 g       *ABS*	00000000 __alt_mem_sdram_controller
00022ab8 g     F .text	00000074 .hidden _Unwind_Backtrace
08000f98 g     O .bss	00000004 alt_argv
08008ee8 g       *ABS*	00000000 _gp
00027f38 g     F .text	00000384 alt_up_sd_card_fopen
00027aac g     F .text	000000d0 alt_up_sd_card_find_first
08000fb8 g     O .bss	00000004 command_argument_register
00024390 g     F .text	00000020 getpid
000216ec g     F .text	00000234 __cxa_call_unexpected
00022010 g     F .text	00000008 __cxa_get_exception_ptr
08000d68 g     O .rwdata	00000180 alt_fd_list
08000ef0  w    O .rwdata	00000008 _ZTS6BTUart
00023298 g     F .text	00000008 _putchar_r
000229cc g     F .text	00000044 .hidden _Unwind_SjLj_ForcedUnwind
000271e8 g     F .text	00000134 find_first_empty_record_in_root_directory
0002285c g     F .text	00000018 .hidden _Unwind_GetCFA
00021d04 g     F .text	00000014 _ZSt13set_terminatePFvvE
00029854 g     F .text	00000090 alt_find_dev
00022498 g     F .text	00000094 __cxa_allocate_dependent_exception
000219b0 g     F .text	00000018 _ZNK10__cxxabiv117__class_type_info20__do_find_public_srcEiPKvPKS0_S2_
000299e0 g     F .text	00000078 alt_io_redirect
00020404 g     F .text	00000030 _ZN6SDCardC1Ev
0002a308 g       *ABS*	00000000 __DTOR_END__
000219c8 g     F .text	00000010 _ZN10__cxxabiv117__class_type_infoD1Ev
00029360 g     F .text	00000074 alt_up_rs232_read_data
00023338 g     F .text	00000014 puts
00026de0 g     F .text	000001b4 find_first_empty_cluster
000278bc g     F .text	000000c0 alt_up_sd_card_open_dev
00029034 g     F .text	000000e4 altera_avalon_jtag_uart_read
00022b44 g     F .text	00000014 malloc
00023210 g     F .text	0000003c _printf_r
00020000 g       *ABS*	00000000 __alt_mem_onchip_memory2_0
0002434c g     F .text	00000008 .hidden __udivsi3
0002347c g     F .text	000000b4 _raise_r
08000f8c g     O .bss	00000004 __malloc_top_pad
00023680 g     F .text	00000004 _getpid_r
00021a78 g     F .text	000000b8 _ZNK10__cxxabiv117__class_type_info10__do_catchEPKSt9type_infoPPvj
00023530 g     F .text	000000a8 __sigtramp_r
000260d8 g     F .text	000000b8 get_dir_divider_location
0002334c g     F .text	00000050 _sbrk_r
00025dac g     F .text	000000c0 filename_to_upper_case
080003f0  w    O .rodata	00000020 _ZTVSt9type_info
000282bc g     F .text	00000084 alt_up_sd_card_set_attributes
00025110 g     F .text	0000027c Read_File_Record_At_Offset
000204b4 g     F .text	00000058 _ZN6SDCard4openEPKc
00022574 g     F .text	0000000c _ZNKSt9exception4whatEv
0002028c g     F .text	00000070 _ZN6BTUart6read_mEPhi
08000f54 g     O .rwdata	00000004 alt_max_fd
000292dc g     F .text	00000044 alt_up_rs232_check_parity
00026968 g     F .text	00000478 find_file_in_directory
08000f88 g     O .bss	00000004 __malloc_max_sbrked_mem
00027a40 g     F .text	0000006c alt_up_sd_card_is_FAT16
080003b4  w    O .rodata	0000002c _ZTVN10__cxxabiv120__si_class_type_infoE
00021a0c g     F .text	0000006c _ZNK10__cxxabiv117__class_type_info11__do_upcastEPKS0_PKvRNS0_15__upcast_resultE
00021c00 g     F .text	00000004 _ZdlPv
0002008c g     F .text	00000048 _ZN6BTUartD1Ev
08000f38 g     O .rwdata	00000004 _global_impure_ptr
0002642c g     F .text	0000053c get_home_directory_cluster_for_file
08002064 g       *ABS*	00000000 __bss_end
00022814 g     F .text	00000018 .hidden _Unwind_SjLj_Register
00020434 g     F .text	00000048 _ZN6SDCardD2Ev
00022b2c g     F .text	00000018 abort
0002050c g     F .text	0000002c _ZN6SDCard12card_presentEv
08000fd0 g     O .bss	00000004 current_sector_index
000220cc g     F .text	000000b0 __cxa_end_catch
00022570 g     F .text	00000004 _ZNSt13bad_exceptionD2Ev
00024e84 g     F .text	000000e0 mark_cluster
00021cc4 g     F .text	00000018 _ZSt9terminatev
08000d40 g     O .rwdata	00000028 alt_dev_null
0002731c g     F .text	00000188 convert_filename_to_name_extension
0002259c g     F .text	00000004 _ZN10__cxxabiv119__foreign_exceptionD2Ev
0002005c g     F .text	00000030 _ZN6BTUartC2Ev
0002005c g     F .text	00000030 _ZN6BTUartC1Ev
08000324  w    O .rodata	00000022 _ZTSN10__cxxabiv117__class_type_infoE
00029660 g     F .text	0000001c alt_dcache_flush_all
08000fa4 g     O .bss	00000004 is_sd_card_formated_as_FAT16
08000f14  w    O .rwdata	00000008 _ZTISt9exception
00026f94 g     F .text	00000254 find_first_empty_record_in_a_subdirectory
08000f5c g       *ABS*	00000000 __ram_rwdata_end
0002234c g     F .text	00000004 _ZNSt9type_infoD1Ev
08000f4c g     O .rwdata	00000008 alt_dev_list
0002259c g     F .text	00000004 _ZN10__cxxabiv119__foreign_exceptionD1Ev
00024a38 g     F .text	00000100 write
00024180 g     F .text	00000058 _putc_r
08000fc8 g     O .bss	00000004 device_pointer
00022368 g     F .text	00000004 _ZNSt9type_infoD0Ev
080005a8 g       *ABS*	00000000 __ram_rodata_end
00029464 g     F .text	00000094 alt_up_rs232_write_fd
00024400 g     F .text	00000130 kill
08000f60 g     O .bss	00000002 att
00024354 g     F .text	00000008 .hidden __umodsi3
00022360 g     F .text	00000008 _ZNKSt9type_info11__do_upcastEPKN10__cxxabiv117__class_type_infoEPPv
00021d18 g     F .text	00000010 _ZSt13get_terminatev
08002064 g       *ABS*	00000000 end
00022aa0 g     F .text	00000018 .hidden _Unwind_DeleteException
08000f64 g     O .bss	00000004 i
08000028  w    O .rodata	00000010 _ZTV6SDCard
00021b30 g     F .text	000000d0 _ZNK10__cxxabiv117__class_type_info12__do_dyncastEiNS0_10__sub_kindEPKS0_PKvS3_S5_RNS0_16__dyncast_resultE
0002a308 g       *ABS*	00000000 __CTOR_LIST__
0c000000 g       *ABS*	00000000 __alt_stack_pointer
00021938 g     F .text	00000078 _ZNK10__cxxabiv117__class_type_info11__do_upcastEPKS0_PPv
00029118 g     F .text	00000094 altera_avalon_jtag_uart_write
08000444  w    O .rodata	00000012 _ZTSSt13bad_exception
00023744 g     F .text	0000056c ___vfprintf_internal_r
00023df8 g     F .text	00000288 _free_r
000246cc g     F .text	00000228 alt_printf
0002a12c g     F .text	0000019c __call_exitprocs
0002008c g     F .text	00000048 _ZN6BTUartD2Ev
08000f30 g     O .rwdata	00000004 __malloc_sbrk_base
00020020 g     F .text	0000003c _start
08000f68 g     O .bss	00000004 pixel
080003e0  w    O .rodata	0000000d _ZTSSt9type_info
000225a4 g     F .text	00000020 __cxa_pure_virtual
000235ec g     F .text	0000001c signal
00024ba4 g     F .text	00000054 alt_sys_init
00029fe8 g     F .text	00000144 __register_exitproc
080005a8 g     O .rwdata	00000200 buffer
00021d90 g     F .text	00000160 _ZNK10__cxxabiv120__si_class_type_info12__do_dyncastEiNS_17__class_type_info10__sub_kindEPKS1_PKvS4_S6_RNS1_16__dyncast_resultE
000292a0 g     F .text	0000003c alt_up_rs232_get_available_space_in_write_FIFO
08000ef8  w    O .rwdata	00000008 _ZTI6SDCard
000225e4 g     F .text	00000028 .hidden __mulsi3
080005a8 g       *ABS*	00000000 __ram_rwdata_start
000228fc g     F .text	000000d0 .hidden _Unwind_SjLj_RaiseException
08000000 g       *ABS*	00000000 __ram_rodata_start
08001ad4 g     O .bss	00000028 __malloc_current_mallinfo
00022a10 g     F .text	00000044 .hidden _Unwind_SjLj_Resume
00020434 g     F .text	00000048 _ZN6SDCardD1Ev
080004e4  w    O .rodata	00000014 _ZTVN10__cxxabiv119__foreign_exceptionE
0002234c g     F .text	00000004 _ZNSt9type_infoD2Ev
08000fa0 g     O .bss	00000004 initialized
000225a0 g     F .text	00000004 _ZN10__cxxabiv119__foreign_exceptionD0Ev
00021f8c g     F .text	00000084 _ZNK10__cxxabiv120__si_class_type_info11__do_upcastEPKNS_17__class_type_infoEPKvRNS1_15__upcast_resultE
00028f74 g     F .text	00000060 altera_avalon_jtag_uart_read_fd
00029eb0 g     F .text	000000d4 alt_get_fd
08001afc g     O .bss	00000014 search_data
08000f24  w    O .rwdata	00000008 _ZTIN10__cxxabiv119__foreign_exceptionE
00029fb8 g     F .text	00000030 memcmp
08002064 g       *ABS*	00000000 __alt_stack_base
00021d4c g     F .text	00000010 _ZN10__cxxabiv120__si_class_type_infoD1Ev
00022a54 g     F .text	0000004c .hidden _Unwind_SjLj_Resume_or_Rethrow
08001b10 g     O .bss	00000054 boot_sector_data
00022350 g     F .text	00000008 _ZNKSt9type_info14__is_pointer_pEv
080007a8 g     O .rwdata	00000408 __malloc_av_
080004a8  w    O .rodata	00000014 _ZTVSt9exception
00022598 g     F .text	00000004 _ZN10__cxxabiv115__forced_unwindD0Ev
00029204 g     F .text	0000005c alt_up_rs232_disable_read_interrupt
00029d9c g     F .text	00000114 alt_find_file
000296f8 g     F .text	000000a4 alt_dev_llist_insert
0002468c g     F .text	00000020 __malloc_lock
00024938 g     F .text	000000b0 sbrk
08000f5c g     O .bss	00000002 sd_fileh
08000354  w    O .rodata	0000002c _ZTVN10__cxxabiv117__class_type_infoE
00022238 g     F .text	00000090 __cxa_throw
000228c0 g     F .text	00000010 .hidden _Unwind_SetIP
00024080 g     F .text	000000ac __sfvwrite_small_dev
08000f5c g       *ABS*	00000000 __bss_start
08000fd4 g     O .bss	00000200 data
000201d4 g     F .text	000000b8 _ZN6BTUart7write_sEh
000231f0 g     F .text	00000020 memset
00020680 g     F .text	00000044 main
08000f9c g     O .bss	00000004 alt_envp
08000f84 g     O .bss	00000004 __malloc_max_total_mem
00028fd4 g     F .text	00000060 altera_avalon_jtag_uart_write_fd
00021920 g     F .text	0000000c __cxa_get_globals_fast
00028340 g     F .text	00000088 alt_up_sd_card_get_attributes
00024bf8 g     F .text	000000b4 Write_Sector_Data
00028758 g     F .text	00000650 alt_up_sd_card_write
0c000000 g       *ABS*	00000000 __alt_heap_limit
00020174 g     F .text	00000060 _ZN6BTUart6read_sEv
00022b6c g     F .text	00000684 _malloc_r
000200d4 g     F .text	00000038 _ZN6BTUartD0Ev
00022580 g     F .text	0000000c _ZNKSt13bad_exception4whatEv
08000f58 g     O .rwdata	00000004 alt_errno
00023608 g     F .text	00000010 _init_signal
08000348  w    O .rodata	0000000c _ZTIN10__cxxabiv117__class_type_infoE
000202fc g     F .text	00000074 _ZN6BTUart7write_mEPci
00022570 g     F .text	00000004 _ZNSt13bad_exceptionD1Ev
0002412c g     F .text	00000054 putc
000206c4 g     F .text	000002a0 _Z7sd_taskv
0002429c g     F .text	00000054 .hidden __divsi3
00023cd4 g     F .text	00000124 _malloc_trim_r
0002a308 g       *ABS*	00000000 __CTOR_END__
08000fac g     O .bss	00000004 status_register
00023684 g     F .text	00000038 strcmp
08000fb4 g     O .bss	00000004 command_register
0002a308 g       *ABS*	00000000 __flash_rodata_start
080004d0  w    O .rodata	00000014 _ZTVN10__cxxabiv115__forced_unwindE
0002a308 g       *ABS*	00000000 __DTOR_LIST__
000294f8 g     F .text	00000040 alt_up_rs232_open_dev
00024b70 g     F .text	00000034 alt_irq_init
00029cfc g     F .text	00000080 alt_release_fd
00024dd0 g     F .text	000000b4 get_cluster_flag
00021d5c g     F .text	00000034 _ZN10__cxxabiv120__si_class_type_infoD0Ev
0002538c g     F .text	0000028c Write_File_Record_At_Offset
00029f84 g     F .text	00000014 atexit
000241d8 g     F .text	00000058 _write_r
000228f4 g     F .text	00000008 .hidden _Unwind_GetTextRelBase
0002219c g     F .text	00000058 __cxa_call_terminate
00025618 g     F .text	000006a8 Check_for_DOS_FAT
000274a4 g     F .text	000002d4 create_file
08000f3c g     O .rwdata	00000004 _impure_ptr
08000f1c  w    O .rwdata	00000008 _ZTIN10__cxxabiv115__forced_unwindE
08000fb0 g     O .bss	00000004 CSD_register_w0
08000f94 g     O .bss	00000004 alt_argc
000297f8 g     F .text	0000005c _do_dtors
08000ee8  w    O .rwdata	00000008 _ZTI6BTUart
00021d3c g     F .text	00000010 _ZSt14get_unexpectedv
000228e4 g     F .text	00000008 .hidden _Unwind_FindEnclosingFunction
08000f44 g     O .rwdata	00000008 alt_fs_list
08000484  w    O .rodata	00000024 _ZTSN10__cxxabiv119__foreign_exceptionE
00025e6c g     F .text	0000026c check_file_name_for_FAT16_compliance
08000fbc g     O .bss	00000004 buffer_memory
000291ac g     F .text	00000058 alt_up_rs232_enable_read_interrupt
000228d0 g     F .text	0000000c .hidden _Unwind_GetLanguageSpecificData
00029320 g     F .text	00000040 alt_up_rs232_write_data
00022018 g     F .text	000000b4 __cxa_begin_catch
000219c8 g     F .text	00000010 _ZN10__cxxabiv117__class_type_infoD2Ev
00021cdc g     F .text	00000010 _ZN10__cxxabiv112__unexpectedEPFvvE
08000f6c g     O .bss	00000004 att3
00020020 g       *ABS*	00000000 __ram_exceptions_start
08000f5e g     O .bss	00000002 sd_fileh2
00022590 g     F .text	00000004 _ZNSt13bad_exceptionD0Ev
08000f00  w    O .rwdata	00000008 _ZTS6SDCard
08000f08 g     O .rwdata	00000004 _ZN10__cxxabiv119__terminate_handlerE
000223b0 g     F .text	000000a4 __cxa_allocate_exception
08000fc0 g     O .bss	00000004 fat_partition_offset_in_512_byte_sectors
080003a8  w    O .rodata	0000000c _ZTIN10__cxxabiv120__si_class_type_infoE
08000f5c g       *ABS*	00000000 _edata
08002064 g       *ABS*	00000000 _end
08001b64 g     O .bss	00000500 active_files
000211ec g     F .text	00000500 __gxx_personality_sj0
00020020 g       *ABS*	00000000 __ram_exceptions_end
00027778 g     F .text	00000144 copy_file_record_name_to_string
00025cc0 g     F .text	000000ec Look_for_FAT16
0002256c g     F .text	00000004 _ZNSt9exceptionD1Ev
08000f34 g     O .rwdata	00000004 __malloc_trim_threshold
00029f98 g     F .text	00000020 exit
00022874 g     F .text	0000001c .hidden _Unwind_SetGR
00027b7c g     F .text	000003bc alt_up_sd_card_find_next
00021ef0 g     F .text	0000009c _ZNK10__cxxabiv120__si_class_type_info20__do_find_public_srcEiPKvPKNS_17__class_type_infoES2_
00021c04 g     F .text	000000c0 _ZN10__cxxabiv111__terminateEPFvvE
000242f0 g     F .text	0000005c .hidden __modsi3
00024cf8 g     F .text	000000d8 Read_Sector_Data
0c000000 g       *ABS*	00000000 __alt_data_end
08000458  w    O .rodata	0000000c _ZTISt13bad_exception
0002435c g     F .text	00000034 _exit
000283c8 g     F .text	00000390 alt_up_sd_card_read
00022840 g     F .text	0000001c .hidden _Unwind_GetGR
0002192c g     F .text	0000000c __cxa_get_globals
08000f2c g     O .rwdata	00000004 _ZN10__cxxabiv120__unexpected_handlerE
000236bc g     F .text	0000001c strlen
0002339c g     F .text	00000064 _init_signal_r
08000f0c  w    O .rwdata	00000008 _ZTISt9type_info
00029b9c g     F .text	00000160 open
000248f4 g     F .text	00000044 alt_putchar
0002010c g     F .text	00000068 _ZN6BTUart4openEPKc
08000434  w    O .rodata	0000000d _ZTSSt9exception
0002258c g     F .text	00000004 _ZNSt9exceptionD0Ev
000298e4 g     F .text	0000001c alt_icache_flush_all
000228ec g     F .text	00000008 .hidden _Unwind_GetDataRelBase
00023cb0 g     F .text	00000024 __vfprintf_internal
0002979c g     F .text	0000005c _do_ctors
00023618 g     F .text	00000014 __sigtramp
00020370 g     F .text	00000048 _ZN6BTUart10read_readyEv
00029260 g     F .text	00000040 alt_up_rs232_get_used_space_in_read_FIFO
00029588 g     F .text	000000d8 close
08000464  w    O .rodata	00000020 _ZTSN10__cxxabiv115__forced_unwindE
00024594 g     F .text	00000080 alt_load
0002236c g     F .text	00000044 _ZNKSt9type_info10__do_catchEPKS_PPvj
00026190 g     F .text	0000029c match_file_record_to_name_ext
000235d8 g     F .text	00000014 raise
00022b58 g     F .text	00000014 free
000219d8 g     F .text	00000034 _ZN10__cxxabiv117__class_type_infoD0Ev



Disassembly of section .entry:

00020000 <__reset>:
 * Jump to the _start entry point in the .text section if reset code
 * is allowed or if optimizing for RTL simulation.
 */
#if defined(ALT_ALLOW_CODE_AT_RESET) || defined(ALT_SIM_OPTIMIZE)
    /* Jump to the _start entry point in the .text section. */
    movhi r1, %hi(_start)
   20000:	004000b4 	movhi	at,2
    ori r1, r1, %lo(_start)
   20004:	08400814 	ori	at,at,32
    jmp r1
   20008:	0800683a 	jmp	at
	...

Disassembly of section .text:

00020020 <_start>:

    /*
     * Now that the caches are initialized, set up the stack pointer and global pointer.
     * The values provided by the linker are assumed to be correctly aligned.
     */
    movhi sp, %hi(__alt_stack_pointer)
   20020:	06c30034 	movhi	sp,3072
    ori sp, sp, %lo(__alt_stack_pointer)
   20024:	dec00014 	ori	sp,sp,0
    movhi gp, %hi(_gp)
   20028:	06820034 	movhi	gp,2048
    ori gp, gp, %lo(_gp)
   2002c:	d6a3ba14 	ori	gp,gp,36584
 */
#ifndef ALT_SIM_OPTIMIZE
    /* Log that the BSS is about to be cleared. */
    ALT_LOG_PUTS(alt_log_msg_bss)

    movhi r2, %hi(__bss_start)
   20030:	00820034 	movhi	r2,2048
    ori r2, r2, %lo(__bss_start)
   20034:	1083d714 	ori	r2,r2,3932

    movhi r3, %hi(__bss_end)
   20038:	00c20034 	movhi	r3,2048
    ori r3, r3, %lo(__bss_end)
   2003c:	18c81914 	ori	r3,r3,8292

    beq r2, r3, 1f
   20040:	10c00326 	beq	r2,r3,20050 <_start+0x30>

0:
    stw zero, (r2)
   20044:	10000015 	stw	zero,0(r2)
    addi r2, r2, 4
   20048:	10800104 	addi	r2,r2,4
    bltu r2, r3, 0b
   2004c:	10fffd36 	bltu	r2,r3,20044 <__alt_data_end+0xf4020044>
     * section aren't defined until alt_load() has been called).
     */
    mov   et, zero
#endif

    call alt_load
   20050:	00245940 	call	24594 <alt_load>

    /* Log that alt_main is about to be called. */
    ALT_LOG_PUTS(alt_log_msg_alt_main)

    /* Call the C entry point. It should never return. */
    call alt_main
   20054:	00246140 	call	24614 <alt_main>

00020058 <alt_after_alt_main>:

    /* Wait in infinite loop in case alt_main does return. */
alt_after_alt_main:
    br alt_after_alt_main
   20058:	003fff06 	br	20058 <__alt_data_end+0xf4020058>

0002005c <_ZN6BTUartC1Ev>:
#include "BTUart.h"
#include "sys/alt_dev.h"
#include "altera_up_avalon_rs232.h"


BTUart::BTUart()
   2005c:	defffe04 	addi	sp,sp,-8
   20060:	df000115 	stw	fp,4(sp)
   20064:	df000104 	addi	fp,sp,4
   20068:	e13fff15 	stw	r4,-4(fp)
   2006c:	e0ffff17 	ldw	r3,-4(fp)
   20070:	00820034 	movhi	r2,2048
   20074:	10800804 	addi	r2,r2,32
   20078:	18800015 	stw	r2,0(r3)
{
    // TODO Auto-generated constructor stub
}
   2007c:	e037883a 	mov	sp,fp
   20080:	df000017 	ldw	fp,0(sp)
   20084:	dec00104 	addi	sp,sp,4
   20088:	f800283a 	ret

0002008c <_ZN6BTUartD1Ev>:


BTUart::~BTUart()
   2008c:	defffd04 	addi	sp,sp,-12
   20090:	dfc00215 	stw	ra,8(sp)
   20094:	df000115 	stw	fp,4(sp)
   20098:	df000104 	addi	fp,sp,4
   2009c:	e13fff15 	stw	r4,-4(fp)
   200a0:	e0ffff17 	ldw	r3,-4(fp)
   200a4:	00820034 	movhi	r2,2048
   200a8:	10800804 	addi	r2,r2,32
   200ac:	18800015 	stw	r2,0(r3)
{
	// TODO Auto-generated destructor stub
}
   200b0:	0005883a 	mov	r2,zero
   200b4:	10000226 	beq	r2,zero,200c0 <_ZN6BTUartD1Ev+0x34>
   200b8:	e13fff17 	ldw	r4,-4(fp)
   200bc:	0021c000 	call	21c00 <_ZdlPv>
   200c0:	e037883a 	mov	sp,fp
   200c4:	dfc00117 	ldw	ra,4(sp)
   200c8:	df000017 	ldw	fp,0(sp)
   200cc:	dec00204 	addi	sp,sp,8
   200d0:	f800283a 	ret

000200d4 <_ZN6BTUartD0Ev>:
{
    // TODO Auto-generated constructor stub
}


BTUart::~BTUart()
   200d4:	defffd04 	addi	sp,sp,-12
   200d8:	dfc00215 	stw	ra,8(sp)
   200dc:	df000115 	stw	fp,4(sp)
   200e0:	df000104 	addi	fp,sp,4
   200e4:	e13fff15 	stw	r4,-4(fp)
{
	// TODO Auto-generated destructor stub
}
   200e8:	e13fff17 	ldw	r4,-4(fp)
   200ec:	002008c0 	call	2008c <_ZN6BTUartD1Ev>
   200f0:	e13fff17 	ldw	r4,-4(fp)
   200f4:	0021c000 	call	21c00 <_ZdlPv>
   200f8:	e037883a 	mov	sp,fp
   200fc:	dfc00117 	ldw	ra,4(sp)
   20100:	df000017 	ldw	fp,0(sp)
   20104:	dec00204 	addi	sp,sp,8
   20108:	f800283a 	ret

0002010c <_ZN6BTUart4openEPKc>:


int BTUart::open(const char *device_name)
{
   2010c:	defffc04 	addi	sp,sp,-16
   20110:	dfc00315 	stw	ra,12(sp)
   20114:	df000215 	stw	fp,8(sp)
   20118:	df000204 	addi	fp,sp,8
   2011c:	e13ffe15 	stw	r4,-8(fp)
   20120:	e17fff15 	stw	r5,-4(fp)
	RS232_DEV = alt_up_rs232_open_dev(device_name);
   20124:	e13fff17 	ldw	r4,-4(fp)
   20128:	00294f80 	call	294f8 <alt_up_rs232_open_dev>
   2012c:	1007883a 	mov	r3,r2
   20130:	e0bffe17 	ldw	r2,-8(fp)
   20134:	10c00115 	stw	r3,4(r2)

    // Enable the read interrupts for the RS232 UART core 
    alt_up_rs232_enable_read_interrupt(RS232_DEV);
   20138:	e0bffe17 	ldw	r2,-8(fp)
   2013c:	10800117 	ldw	r2,4(r2)
   20140:	1009883a 	mov	r4,r2
   20144:	00291ac0 	call	291ac <alt_up_rs232_enable_read_interrupt>

    if (RS232_DEV == NULL) {
   20148:	e0bffe17 	ldw	r2,-8(fp)
   2014c:	10800117 	ldw	r2,4(r2)
   20150:	1000021e 	bne	r2,zero,2015c <_ZN6BTUart4openEPKc+0x50>
        return 0;
   20154:	0005883a 	mov	r2,zero
   20158:	00000106 	br	20160 <_ZN6BTUart4openEPKc+0x54>
    }
        
    return 1;
   2015c:	00800044 	movi	r2,1
}
   20160:	e037883a 	mov	sp,fp
   20164:	dfc00117 	ldw	ra,4(sp)
   20168:	df000017 	ldw	fp,0(sp)
   2016c:	dec00204 	addi	sp,sp,8
   20170:	f800283a 	ret

00020174 <_ZN6BTUart6read_sEv>:


unsigned char BTUart::read_s(void)
{
   20174:	defffc04 	addi	sp,sp,-16
   20178:	dfc00315 	stw	ra,12(sp)
   2017c:	df000215 	stw	fp,8(sp)
   20180:	df000204 	addi	fp,sp,8
   20184:	e13fff15 	stw	r4,-4(fp)
    while (!read_ready()) {}    // Wait for data to be available to read
   20188:	0001883a 	nop
   2018c:	e13fff17 	ldw	r4,-4(fp)
   20190:	00203700 	call	20370 <_ZN6BTUart10read_readyEv>
   20194:	1005003a 	cmpeq	r2,r2,zero
   20198:	10803fcc 	andi	r2,r2,255
   2019c:	103ffb1e 	bne	r2,zero,2018c <__alt_data_end+0xf402018c>

    alt_u8 buffer;
    alt_u8 parity_error;

    alt_up_rs232_read_data(RS232_DEV, &buffer, &parity_error);
   201a0:	e0bfff17 	ldw	r2,-4(fp)
   201a4:	10c00117 	ldw	r3,4(r2)
   201a8:	e0bffe44 	addi	r2,fp,-7
   201ac:	1809883a 	mov	r4,r3
   201b0:	e17ffe04 	addi	r5,fp,-8
   201b4:	100d883a 	mov	r6,r2
   201b8:	00293600 	call	29360 <alt_up_rs232_read_data>

    return (unsigned char) buffer;
   201bc:	e0bffe03 	ldbu	r2,-8(fp)
}
   201c0:	e037883a 	mov	sp,fp
   201c4:	dfc00117 	ldw	ra,4(sp)
   201c8:	df000017 	ldw	fp,0(sp)
   201cc:	dec00204 	addi	sp,sp,8
   201d0:	f800283a 	ret

000201d4 <_ZN6BTUart7write_sEh>:


int BTUart::write_s(alt_u8 data)
{
   201d4:	defffb04 	addi	sp,sp,-20
   201d8:	dfc00415 	stw	ra,16(sp)
   201dc:	df000315 	stw	fp,12(sp)
   201e0:	df000304 	addi	fp,sp,12
   201e4:	e13ffe15 	stw	r4,-8(fp)
   201e8:	2805883a 	mov	r2,r5
   201ec:	e0bfff05 	stb	r2,-4(fp)
    alt_up_rs232_disable_read_interrupt(RS232_DEV);
   201f0:	e0bffe17 	ldw	r2,-8(fp)
   201f4:	10800117 	ldw	r2,4(r2)
   201f8:	1009883a 	mov	r4,r2
   201fc:	00292040 	call	29204 <alt_up_rs232_disable_read_interrupt>

    int result = 0;
   20200:	e03ffd15 	stw	zero,-12(fp)
    WRITE_FIFO_SPACE = alt_up_rs232_get_available_space_in_write_FIFO(RS232_DEV);
   20204:	e0bffe17 	ldw	r2,-8(fp)
   20208:	10800117 	ldw	r2,4(r2)
   2020c:	1009883a 	mov	r4,r2
   20210:	00292a00 	call	292a0 <alt_up_rs232_get_available_space_in_write_FIFO>
   20214:	1007883a 	mov	r3,r2
   20218:	e0bffe17 	ldw	r2,-8(fp)
   2021c:	10c00215 	stw	r3,8(r2)

    if (WRITE_FIFO_SPACE >= WRITE_FIFO_EMPTY) {
   20220:	e0bffe17 	ldw	r2,-8(fp)
   20224:	10800217 	ldw	r2,8(r2)
   20228:	10802030 	cmpltui	r2,r2,128
   2022c:	10000d1e 	bne	r2,zero,20264 <_ZN6BTUart7write_sEh+0x90>
        alt_up_rs232_write_data(RS232_DEV, data);
   20230:	e0bffe17 	ldw	r2,-8(fp)
   20234:	10c00117 	ldw	r3,4(r2)
   20238:	e0bfff03 	ldbu	r2,-4(fp)
   2023c:	1809883a 	mov	r4,r3
   20240:	100b883a 	mov	r5,r2
   20244:	00293200 	call	29320 <alt_up_rs232_write_data>
        alt_printf("write %c to RS232 UART\n", data);
   20248:	e0bfff03 	ldbu	r2,-4(fp)
   2024c:	01020034 	movhi	r4,2048
   20250:	21000004 	addi	r4,r4,0
   20254:	100b883a 	mov	r5,r2
   20258:	00246cc0 	call	246cc <alt_printf>
        result = 1;
   2025c:	00800044 	movi	r2,1
   20260:	e0bffd15 	stw	r2,-12(fp)
    }

    // Enable the read interrupts for the RS232 UART core 
    alt_up_rs232_enable_read_interrupt(RS232_DEV);
   20264:	e0bffe17 	ldw	r2,-8(fp)
   20268:	10800117 	ldw	r2,4(r2)
   2026c:	1009883a 	mov	r4,r2
   20270:	00291ac0 	call	291ac <alt_up_rs232_enable_read_interrupt>
    return result;
   20274:	e0bffd17 	ldw	r2,-12(fp)
}
   20278:	e037883a 	mov	sp,fp
   2027c:	dfc00117 	ldw	ra,4(sp)
   20280:	df000017 	ldw	fp,0(sp)
   20284:	dec00204 	addi	sp,sp,8
   20288:	f800283a 	ret

0002028c <_ZN6BTUart6read_mEPhi>:


void BTUart::read_m(alt_u8 *buffer, int length)
{
   2028c:	defff904 	addi	sp,sp,-28
   20290:	dfc00615 	stw	ra,24(sp)
   20294:	df000515 	stw	fp,20(sp)
   20298:	dc000415 	stw	r16,16(sp)
   2029c:	df000504 	addi	fp,sp,20
   202a0:	e13ffc15 	stw	r4,-16(fp)
   202a4:	e17ffd15 	stw	r5,-12(fp)
   202a8:	e1bffe15 	stw	r6,-8(fp)
    int count;

    for (count = 0; count < length; count++) {
   202ac:	e03ffb15 	stw	zero,-20(fp)
   202b0:	00000906 	br	202d8 <_ZN6BTUart6read_mEPhi+0x4c>
		buffer[count] = read_s();
   202b4:	e0bffb17 	ldw	r2,-20(fp)
   202b8:	e0fffd17 	ldw	r3,-12(fp)
   202bc:	18a1883a 	add	r16,r3,r2
   202c0:	e13ffc17 	ldw	r4,-16(fp)
   202c4:	00201740 	call	20174 <_ZN6BTUart6read_sEv>
   202c8:	80800005 	stb	r2,0(r16)

void BTUart::read_m(alt_u8 *buffer, int length)
{
    int count;

    for (count = 0; count < length; count++) {
   202cc:	e0bffb17 	ldw	r2,-20(fp)
   202d0:	10800044 	addi	r2,r2,1
   202d4:	e0bffb15 	stw	r2,-20(fp)
   202d8:	e0fffb17 	ldw	r3,-20(fp)
   202dc:	e0bffe17 	ldw	r2,-8(fp)
   202e0:	18bff416 	blt	r3,r2,202b4 <__alt_data_end+0xf40202b4>
		buffer[count] = read_s();
	}
}
   202e4:	e6ffff04 	addi	sp,fp,-4
   202e8:	dfc00217 	ldw	ra,8(sp)
   202ec:	df000117 	ldw	fp,4(sp)
   202f0:	dc000017 	ldw	r16,0(sp)
   202f4:	dec00304 	addi	sp,sp,12
   202f8:	f800283a 	ret

000202fc <_ZN6BTUart7write_mEPci>:


int BTUart::write_m(char data[], int length)
{
   202fc:	defffa04 	addi	sp,sp,-24
   20300:	dfc00515 	stw	ra,20(sp)
   20304:	df000415 	stw	fp,16(sp)
   20308:	df000404 	addi	fp,sp,16
   2030c:	e13ffd15 	stw	r4,-12(fp)
   20310:	e17ffe15 	stw	r5,-8(fp)
   20314:	e1bfff15 	stw	r6,-4(fp)
    int count;

	for (count = 0; count < length; count++) {
   20318:	e03ffc15 	stw	zero,-16(fp)
   2031c:	00000b06 	br	2034c <_ZN6BTUart7write_mEPci+0x50>
        // printf("Write from m: %c\n", data[count]);
		write_s(data[count]);
   20320:	e0bffc17 	ldw	r2,-16(fp)
   20324:	e0fffe17 	ldw	r3,-8(fp)
   20328:	1885883a 	add	r2,r3,r2
   2032c:	10800003 	ldbu	r2,0(r2)
   20330:	10803fcc 	andi	r2,r2,255
   20334:	e13ffd17 	ldw	r4,-12(fp)
   20338:	100b883a 	mov	r5,r2
   2033c:	00201d40 	call	201d4 <_ZN6BTUart7write_sEh>

int BTUart::write_m(char data[], int length)
{
    int count;

	for (count = 0; count < length; count++) {
   20340:	e0bffc17 	ldw	r2,-16(fp)
   20344:	10800044 	addi	r2,r2,1
   20348:	e0bffc15 	stw	r2,-16(fp)
   2034c:	e0fffc17 	ldw	r3,-16(fp)
   20350:	e0bfff17 	ldw	r2,-4(fp)
   20354:	18bff216 	blt	r3,r2,20320 <__alt_data_end+0xf4020320>
        // printf("Write from m: %c\n", data[count]);
		write_s(data[count]);
	}
    return count;
   20358:	e0bffc17 	ldw	r2,-16(fp)
}
   2035c:	e037883a 	mov	sp,fp
   20360:	dfc00117 	ldw	ra,4(sp)
   20364:	df000017 	ldw	fp,0(sp)
   20368:	dec00204 	addi	sp,sp,8
   2036c:	f800283a 	ret

00020370 <_ZN6BTUart10read_readyEv>:


int BTUart::read_ready(void)
{
   20370:	defffc04 	addi	sp,sp,-16
   20374:	dfc00315 	stw	ra,12(sp)
   20378:	df000215 	stw	fp,8(sp)
   2037c:	df000204 	addi	fp,sp,8
   20380:	e13fff15 	stw	r4,-4(fp)
    alt_u16 read_fifo_used = alt_up_rs232_get_used_space_in_read_FIFO(RS232_DEV);
   20384:	e0bfff17 	ldw	r2,-4(fp)
   20388:	10800117 	ldw	r2,4(r2)
   2038c:	1009883a 	mov	r4,r2
   20390:	00292600 	call	29260 <alt_up_rs232_get_used_space_in_read_FIFO>
   20394:	e0bffe0d 	sth	r2,-8(fp)
    return (read_fifo_used > READ_FIFO_EMPTY);
   20398:	e0bffe0b 	ldhu	r2,-8(fp)
   2039c:	1004c03a 	cmpne	r2,r2,zero
   203a0:	10803fcc 	andi	r2,r2,255
}
   203a4:	e037883a 	mov	sp,fp
   203a8:	dfc00117 	ldw	ra,4(sp)
   203ac:	df000017 	ldw	fp,0(sp)
   203b0:	dec00204 	addi	sp,sp,8
   203b4:	f800283a 	ret

000203b8 <_ZN6BTUart5flushEv>:


void BTUart::flush(void)
{
   203b8:	defffd04 	addi	sp,sp,-12
   203bc:	dfc00215 	stw	ra,8(sp)
   203c0:	df000115 	stw	fp,4(sp)
   203c4:	df000104 	addi	fp,sp,4
   203c8:	e13fff15 	stw	r4,-4(fp)
    while (read_ready()) {
   203cc:	00000206 	br	203d8 <_ZN6BTUart5flushEv+0x20>
        // read unwanted char out of fifo receiver buffer
        read_s();
   203d0:	e13fff17 	ldw	r4,-4(fp)
   203d4:	00201740 	call	20174 <_ZN6BTUart6read_sEv>
}


void BTUart::flush(void)
{
    while (read_ready()) {
   203d8:	e13fff17 	ldw	r4,-4(fp)
   203dc:	00203700 	call	20370 <_ZN6BTUart10read_readyEv>
   203e0:	1004c03a 	cmpne	r2,r2,zero
   203e4:	10803fcc 	andi	r2,r2,255
   203e8:	103ff91e 	bne	r2,zero,203d0 <__alt_data_end+0xf40203d0>
        // read unwanted char out of fifo receiver buffer
        read_s();
    }
    return; // no more characters so return 
   203ec:	0001883a 	nop
   203f0:	e037883a 	mov	sp,fp
   203f4:	dfc00117 	ldw	ra,4(sp)
   203f8:	df000017 	ldw	fp,0(sp)
   203fc:	dec00204 	addi	sp,sp,8
   20400:	f800283a 	ret

00020404 <_ZN6SDCardC1Ev>:
#include "SDCard.h"
#include "sys/alt_dev.h"
#include "altera_up_sd_card_avalon_interface.h"


SDCard::SDCard()
   20404:	defffe04 	addi	sp,sp,-8
   20408:	df000115 	stw	fp,4(sp)
   2040c:	df000104 	addi	fp,sp,4
   20410:	e13fff15 	stw	r4,-4(fp)
   20414:	e0ffff17 	ldw	r3,-4(fp)
   20418:	00820034 	movhi	r2,2048
   2041c:	10800c04 	addi	r2,r2,48
   20420:	18800015 	stw	r2,0(r3)
{
    // TODO Auto-generated constructor stub
}
   20424:	e037883a 	mov	sp,fp
   20428:	df000017 	ldw	fp,0(sp)
   2042c:	dec00104 	addi	sp,sp,4
   20430:	f800283a 	ret

00020434 <_ZN6SDCardD1Ev>:


SDCard::~SDCard()
   20434:	defffd04 	addi	sp,sp,-12
   20438:	dfc00215 	stw	ra,8(sp)
   2043c:	df000115 	stw	fp,4(sp)
   20440:	df000104 	addi	fp,sp,4
   20444:	e13fff15 	stw	r4,-4(fp)
   20448:	e0ffff17 	ldw	r3,-4(fp)
   2044c:	00820034 	movhi	r2,2048
   20450:	10800c04 	addi	r2,r2,48
   20454:	18800015 	stw	r2,0(r3)
{
	// TODO Auto-generated destructor stub
}
   20458:	0005883a 	mov	r2,zero
   2045c:	10000226 	beq	r2,zero,20468 <_ZN6SDCardD1Ev+0x34>
   20460:	e13fff17 	ldw	r4,-4(fp)
   20464:	0021c000 	call	21c00 <_ZdlPv>
   20468:	e037883a 	mov	sp,fp
   2046c:	dfc00117 	ldw	ra,4(sp)
   20470:	df000017 	ldw	fp,0(sp)
   20474:	dec00204 	addi	sp,sp,8
   20478:	f800283a 	ret

0002047c <_ZN6SDCardD0Ev>:
{
    // TODO Auto-generated constructor stub
}


SDCard::~SDCard()
   2047c:	defffd04 	addi	sp,sp,-12
   20480:	dfc00215 	stw	ra,8(sp)
   20484:	df000115 	stw	fp,4(sp)
   20488:	df000104 	addi	fp,sp,4
   2048c:	e13fff15 	stw	r4,-4(fp)
{
	// TODO Auto-generated destructor stub
}
   20490:	e13fff17 	ldw	r4,-4(fp)
   20494:	00204340 	call	20434 <_ZN6SDCardD1Ev>
   20498:	e13fff17 	ldw	r4,-4(fp)
   2049c:	0021c000 	call	21c00 <_ZdlPv>
   204a0:	e037883a 	mov	sp,fp
   204a4:	dfc00117 	ldw	ra,4(sp)
   204a8:	df000017 	ldw	fp,0(sp)
   204ac:	dec00204 	addi	sp,sp,8
   204b0:	f800283a 	ret

000204b4 <_ZN6SDCard4openEPKc>:


int SDCard::open(const char *device_name)
{
   204b4:	defffc04 	addi	sp,sp,-16
   204b8:	dfc00315 	stw	ra,12(sp)
   204bc:	df000215 	stw	fp,8(sp)
   204c0:	df000204 	addi	fp,sp,8
   204c4:	e13ffe15 	stw	r4,-8(fp)
   204c8:	e17fff15 	stw	r5,-4(fp)
	SDCARD_DEV = alt_up_sd_card_open_dev(device_name);
   204cc:	e13fff17 	ldw	r4,-4(fp)
   204d0:	00278bc0 	call	278bc <alt_up_sd_card_open_dev>
   204d4:	1007883a 	mov	r3,r2
   204d8:	e0bffe17 	ldw	r2,-8(fp)
   204dc:	10c00115 	stw	r3,4(r2)

    if (SDCARD_DEV == 0) {
   204e0:	e0bffe17 	ldw	r2,-8(fp)
   204e4:	10800117 	ldw	r2,4(r2)
   204e8:	1000021e 	bne	r2,zero,204f4 <_ZN6SDCard4openEPKc+0x40>
        return 0;
   204ec:	0005883a 	mov	r2,zero
   204f0:	00000106 	br	204f8 <_ZN6SDCard4openEPKc+0x44>
    }
        
    return 1;
   204f4:	00800044 	movi	r2,1
}
   204f8:	e037883a 	mov	sp,fp
   204fc:	dfc00117 	ldw	ra,4(sp)
   20500:	df000017 	ldw	fp,0(sp)
   20504:	dec00204 	addi	sp,sp,8
   20508:	f800283a 	ret

0002050c <_ZN6SDCard12card_presentEv>:


bool SDCard::card_present(void)
{
   2050c:	defffd04 	addi	sp,sp,-12
   20510:	dfc00215 	stw	ra,8(sp)
   20514:	df000115 	stw	fp,4(sp)
   20518:	df000104 	addi	fp,sp,4
   2051c:	e13fff15 	stw	r4,-4(fp)
    return alt_up_sd_card_is_Present();
   20520:	002797c0 	call	2797c <alt_up_sd_card_is_Present>
   20524:	e037883a 	mov	sp,fp
   20528:	dfc00117 	ldw	ra,4(sp)
   2052c:	df000017 	ldw	fp,0(sp)
   20530:	dec00204 	addi	sp,sp,8
   20534:	f800283a 	ret

00020538 <_Z7bt_taskv>:
#include "tasks.h"

#define BT_UART_NAME (const char *)("/dev/bt_rs232_uart") // Qsys component name

int bt_task()
{
   20538:	deffe304 	addi	sp,sp,-116
   2053c:	dfc01c15 	stw	ra,112(sp)
   20540:	df001b15 	stw	fp,108(sp)
   20544:	ddc01a15 	stw	r23,104(sp)
   20548:	dd801915 	stw	r22,100(sp)
   2054c:	dd401815 	stw	r21,96(sp)
   20550:	dd001715 	stw	r20,92(sp)
   20554:	dcc01615 	stw	r19,88(sp)
   20558:	dc801515 	stw	r18,84(sp)
   2055c:	dc401415 	stw	r17,80(sp)
   20560:	dc001315 	stw	r16,76(sp)
   20564:	df001b04 	addi	fp,sp,108
   20568:	008000b4 	movhi	r2,2
   2056c:	10847b04 	addi	r2,r2,4588
   20570:	e0bff015 	stw	r2,-64(fp)
   20574:	008000f4 	movhi	r2,3
   20578:	10a8b204 	addi	r2,r2,-23864
   2057c:	e0bff115 	stw	r2,-60(fp)
   20580:	e0bff204 	addi	r2,fp,-56
   20584:	e0ffe504 	addi	r3,fp,-108
   20588:	10c00015 	stw	r3,0(r2)
   2058c:	00c000b4 	movhi	r3,2
   20590:	18c19404 	addi	r3,r3,1616
   20594:	10c00115 	stw	r3,4(r2)
   20598:	16c00215 	stw	sp,8(r2)
   2059c:	e0bfea04 	addi	r2,fp,-88
   205a0:	1009883a 	mov	r4,r2
   205a4:	00228140 	call	22814 <_Unwind_SjLj_Register>
  BTUart BT_UART;
   205a8:	e0ffe704 	addi	r3,fp,-100
   205ac:	00bfffc4 	movi	r2,-1
   205b0:	e0bfeb15 	stw	r2,-84(fp)
   205b4:	1809883a 	mov	r4,r3
   205b8:	002005c0 	call	2005c <_ZN6BTUartC1Ev>
  char c;

  int init_success = BT_UART.open(BT_UART_NAME);
   205bc:	e0bfe704 	addi	r2,fp,-100
   205c0:	1009883a 	mov	r4,r2
   205c4:	01420034 	movhi	r5,2048
   205c8:	00800044 	movi	r2,1
   205cc:	e0bfeb15 	stw	r2,-84(fp)
   205d0:	29400e04 	addi	r5,r5,56
   205d4:	002010c0 	call	2010c <_ZN6BTUart4openEPKc>
   205d8:	e0bfe515 	stw	r2,-108(fp)
  BT_UART.flush();
   205dc:	e0bfe704 	addi	r2,fp,-100
   205e0:	1009883a 	mov	r4,r2
   205e4:	00203b80 	call	203b8 <_ZN6BTUart5flushEv>

  if (init_success)
   205e8:	e0bfe517 	ldw	r2,-108(fp)
   205ec:	10000326 	beq	r2,zero,205fc <_Z7bt_taskv+0xc4>
    printf("INIT SUCCESS: RS232 UART port.\n");
   205f0:	01020034 	movhi	r4,2048
   205f4:	21001304 	addi	r4,r4,76
   205f8:	00233380 	call	23338 <puts>


  printf("START READING FROM UART FIFO ...\n");
   205fc:	01020034 	movhi	r4,2048
   20600:	00800044 	movi	r2,1
   20604:	e0bfeb15 	stw	r2,-84(fp)
   20608:	21001b04 	addi	r4,r4,108
   2060c:	00233380 	call	23338 <puts>

  while (1) {
    if (BT_UART.read_ready()) {
   20610:	e0ffe704 	addi	r3,fp,-100
   20614:	00800044 	movi	r2,1
   20618:	e0bfeb15 	stw	r2,-84(fp)
   2061c:	1809883a 	mov	r4,r3
   20620:	00203700 	call	20370 <_ZN6BTUart10read_readyEv>
   20624:	1004c03a 	cmpne	r2,r2,zero
   20628:	10803fcc 	andi	r2,r2,255
   2062c:	103ff826 	beq	r2,zero,20610 <__alt_data_end+0xf4020610>
      c = BT_UART.read_s();
   20630:	e0bfe704 	addi	r2,fp,-100
   20634:	1009883a 	mov	r4,r2
   20638:	00201740 	call	20174 <_ZN6BTUart6read_sEv>
   2063c:	e0bfe605 	stb	r2,-104(fp)
      printf("%c", c);
   20640:	e0bfe607 	ldb	r2,-104(fp)
   20644:	1009883a 	mov	r4,r2
   20648:	00232a00 	call	232a0 <putchar>
   2064c:	003ff006 	br	20610 <__alt_data_end+0xf4020610>
   20650:	e7001b04 	addi	fp,fp,108
   20654:	e0bfec17 	ldw	r2,-80(fp)
   20658:	e0bff715 	stw	r2,-36(fp)
    }
  }

  return 0;
   2065c:	e0bfe704 	addi	r2,fp,-100
   20660:	e03feb15 	stw	zero,-84(fp)
   20664:	1009883a 	mov	r4,r2
   20668:	002008c0 	call	2008c <_ZN6BTUartD1Ev>
   2066c:	e0fff717 	ldw	r3,-36(fp)
   20670:	00bfffc4 	movi	r2,-1
   20674:	e0bfeb15 	stw	r2,-84(fp)
   20678:	1809883a 	mov	r4,r3
   2067c:	0022a100 	call	22a10 <_Unwind_SjLj_Resume>

00020680 <main>:
#define RUN_BT    0
#define RUN_SD    1
#define RUN_WIFI  0

int main()
{
   20680:	defffe04 	addi	sp,sp,-8
   20684:	dfc00115 	stw	ra,4(sp)
   20688:	df000015 	stw	fp,0(sp)
   2068c:	d839883a 	mov	fp,sp
  printf("NIOS II SOFTWARE APPLICATION\n");
   20690:	01020034 	movhi	r4,2048
   20694:	21002404 	addi	r4,r4,144
   20698:	00233380 	call	23338 <puts>
  printf("===========================================\n\n");
   2069c:	01020034 	movhi	r4,2048
   206a0:	21002c04 	addi	r4,r4,176
   206a4:	00233380 	call	23338 <puts>
  #if (RUN_BT)
    bt_task();
  #endif

  #if (RUN_SD)
    sd_task();
   206a8:	00206c40 	call	206c4 <_Z7sd_taskv>

  #if (RUN_WIFI)
     wifi_task();
  #endif

  return 0;
   206ac:	0005883a 	mov	r2,zero
}
   206b0:	e037883a 	mov	sp,fp
   206b4:	dfc00117 	ldw	ra,4(sp)
   206b8:	df000017 	ldw	fp,0(sp)
   206bc:	dec00204 	addi	sp,sp,8
   206c0:	f800283a 	ret

000206c4 <_Z7sd_taskv>:
char data[512];
int i, pixel, att3;


int sd_task()
{
   206c4:	defffb04 	addi	sp,sp,-20
   206c8:	dfc00415 	stw	ra,16(sp)
   206cc:	df000315 	stw	fp,12(sp)
   206d0:	dc000215 	stw	r16,8(sp)
   206d4:	df000304 	addi	fp,sp,12
    printf("SD CARD ACCESS TEST\n");
   206d8:	01020034 	movhi	r4,2048
   206dc:	21003804 	addi	r4,r4,224
   206e0:	00233380 	call	23338 <puts>
    printf("===========================================\n\n");
   206e4:	01020034 	movhi	r4,2048
   206e8:	21003d04 	addi	r4,r4,244
   206ec:	00233380 	call	23338 <puts>

    alt_up_sd_card_dev *SDCARD_DEV = alt_up_sd_card_open_dev(SDCARD_IFC_NAME);
   206f0:	01020034 	movhi	r4,2048
   206f4:	21004904 	addi	r4,r4,292
   206f8:	00278bc0 	call	278bc <alt_up_sd_card_open_dev>
   206fc:	e0bffe15 	stw	r2,-8(fp)

    if (SDCARD_DEV != 0) {
   20700:	e0bffe17 	ldw	r2,-8(fp)
   20704:	10008c26 	beq	r2,zero,20938 <_Z7sd_taskv+0x274>
        printf("INIT SUCCESS: SD Card IP Core HAL device driver.\n");
   20708:	01020034 	movhi	r4,2048
   2070c:	21004d04 	addi	r4,r4,308
   20710:	00233380 	call	23338 <puts>

        // Check if SD card is present at the SD card socket
        if (alt_up_sd_card_is_Present()) 
   20714:	002797c0 	call	2797c <alt_up_sd_card_is_Present>
   20718:	10803fcc 	andi	r2,r2,255
   2071c:	10000426 	beq	r2,zero,20730 <_Z7sd_taskv+0x6c>
            printf("W FAT16: SD Card contains a FAT16 partition.\n");
   20720:	01020034 	movhi	r4,2048
   20724:	21005a04 	addi	r4,r4,360
   20728:	00233380 	call	23338 <puts>
   2072c:	00000306 	br	2073c <_Z7sd_taskv+0x78>
        else
            printf("WTHT FAT16: SD Card does not contain a FAT16 partition.\n");
   20730:	01020034 	movhi	r4,2048
   20734:	21006604 	addi	r4,r4,408
   20738:	00233380 	call	23338 <puts>

        
        // Create new text file and write data to it
        sd_fileh = alt_up_sd_card_fopen("test1.txt", true);
   2073c:	01020034 	movhi	r4,2048
   20740:	21007404 	addi	r4,r4,464
   20744:	01400044 	movi	r5,1
   20748:	0027f380 	call	27f38 <alt_up_sd_card_fopen>
   2074c:	d0a01d0d 	sth	r2,-32652(gp)

        if (sd_fileh < 0)
   20750:	d0a01d0b 	ldhu	r2,-32652(gp)
   20754:	10bfffcc 	andi	r2,r2,65535
   20758:	10a0001c 	xori	r2,r2,32768
   2075c:	10a00004 	addi	r2,r2,-32768
   20760:	1000090e 	bge	r2,zero,20788 <_Z7sd_taskv+0xc4>
            printf("ERROR: Problem creating file - %i\n", sd_fileh);
   20764:	d0a01d0b 	ldhu	r2,-32652(gp)
   20768:	10bfffcc 	andi	r2,r2,65535
   2076c:	10a0001c 	xori	r2,r2,32768
   20770:	10a00004 	addi	r2,r2,-32768
   20774:	01020034 	movhi	r4,2048
   20778:	21007704 	addi	r4,r4,476
   2077c:	100b883a 	mov	r5,r2
   20780:	002324c0 	call	2324c <printf>
   20784:	00002b06 	br	20834 <_Z7sd_taskv+0x170>
        else {
            printf("SD ACCESS SUCCESS: Writing data to new file ...\n");
   20788:	01020034 	movhi	r4,2048
   2078c:	21008004 	addi	r4,r4,512
   20790:	00233380 	call	23338 <puts>

            int index = 0;
   20794:	e03ffd15 	stw	zero,-12(fp)

            // Write buffer data into test1.txt
            while (buffer[index] != '\0') {
   20798:	00001106 	br	207e0 <_Z7sd_taskv+0x11c>
                alt_up_sd_card_write(sd_fileh, buffer[index]);
   2079c:	d0a01d0b 	ldhu	r2,-32652(gp)
   207a0:	113fffcc 	andi	r4,r2,65535
   207a4:	2120001c 	xori	r4,r4,32768
   207a8:	21200004 	addi	r4,r4,-32768
   207ac:	00820034 	movhi	r2,2048
   207b0:	10816a04 	addi	r2,r2,1448
   207b4:	e0fffd17 	ldw	r3,-12(fp)
   207b8:	10c5883a 	add	r2,r2,r3
   207bc:	10800003 	ldbu	r2,0(r2)
   207c0:	10803fcc 	andi	r2,r2,255
   207c4:	1080201c 	xori	r2,r2,128
   207c8:	10bfe004 	addi	r2,r2,-128
   207cc:	100b883a 	mov	r5,r2
   207d0:	00287580 	call	28758 <alt_up_sd_card_write>
                index = index + 1;
   207d4:	e0bffd17 	ldw	r2,-12(fp)
   207d8:	10800044 	addi	r2,r2,1
   207dc:	e0bffd15 	stw	r2,-12(fp)
            printf("SD ACCESS SUCCESS: Writing data to new file ...\n");

            int index = 0;

            // Write buffer data into test1.txt
            while (buffer[index] != '\0') {
   207e0:	00820034 	movhi	r2,2048
   207e4:	10816a04 	addi	r2,r2,1448
   207e8:	e0fffd17 	ldw	r3,-12(fp)
   207ec:	10c5883a 	add	r2,r2,r3
   207f0:	10800003 	ldbu	r2,0(r2)
   207f4:	10803fcc 	andi	r2,r2,255
   207f8:	1080201c 	xori	r2,r2,128
   207fc:	10bfe004 	addi	r2,r2,-128
   20800:	103fe61e 	bne	r2,zero,2079c <__alt_data_end+0xf402079c>
                alt_up_sd_card_write(sd_fileh, buffer[index]);
                index = index + 1;
            }

            printf("WRITE DONE: All buffer data has been successfully written into file.\n");
   20804:	01020034 	movhi	r4,2048
   20808:	21008c04 	addi	r4,r4,560
   2080c:	00233380 	call	23338 <puts>

            alt_up_sd_card_fclose(sd_fileh);
   20810:	d0a01d0b 	ldhu	r2,-32652(gp)
   20814:	10bfffcc 	andi	r2,r2,65535
   20818:	10a0001c 	xori	r2,r2,32768
   2081c:	10a00004 	addi	r2,r2,-32768
   20820:	1009883a 	mov	r4,r2
   20824:	0028da80 	call	28da8 <alt_up_sd_card_fclose>
            printf("FILE CLOSED\n");
   20828:	01020034 	movhi	r4,2048
   2082c:	21009e04 	addi	r4,r4,632
   20830:	00233380 	call	23338 <puts>
        }


        // Read text file from SD Card
        sd_fileh2 = alt_up_sd_card_fopen("test2.txt", false);
   20834:	01020034 	movhi	r4,2048
   20838:	2100a104 	addi	r4,r4,644
   2083c:	000b883a 	mov	r5,zero
   20840:	0027f380 	call	27f38 <alt_up_sd_card_fopen>
   20844:	d0a01d8d 	sth	r2,-32650(gp)

        if (sd_fileh2 > 0)
   20848:	d0a01d8b 	ldhu	r2,-32650(gp)
   2084c:	10bfffcc 	andi	r2,r2,65535
   20850:	10a0001c 	xori	r2,r2,32768
   20854:	10a00004 	addi	r2,r2,-32768
   20858:	0080090e 	bge	zero,r2,20880 <_Z7sd_taskv+0x1bc>
            printf("ERROR: Problem opening file - %i\n", sd_fileh2);
   2085c:	d0a01d8b 	ldhu	r2,-32650(gp)
   20860:	10bfffcc 	andi	r2,r2,65535
   20864:	10a0001c 	xori	r2,r2,32768
   20868:	10a00004 	addi	r2,r2,-32768
   2086c:	01020034 	movhi	r4,2048
   20870:	2100a404 	addi	r4,r4,656
   20874:	100b883a 	mov	r5,r2
   20878:	002324c0 	call	2324c <printf>
   2087c:	00003206 	br	20948 <_Z7sd_taskv+0x284>
        else {
            printf("SD ACCESS SUCCESS: Reading data from opened file ...\n\n");
   20880:	01020034 	movhi	r4,2048
   20884:	2100ad04 	addi	r4,r4,692
   20888:	00233380 	call	23338 <puts>

            // Read content from the text file
            for (i = 0; i < 12; i++) {
   2088c:	d0201f15 	stw	zero,-32644(gp)
   20890:	00001906 	br	208f8 <_Z7sd_taskv+0x234>
                data[i] = alt_up_sd_card_read(sd_fileh2);
   20894:	d4201f17 	ldw	r16,-32644(gp)
   20898:	d0a01d8b 	ldhu	r2,-32650(gp)
   2089c:	10bfffcc 	andi	r2,r2,65535
   208a0:	10a0001c 	xori	r2,r2,32768
   208a4:	10a00004 	addi	r2,r2,-32768
   208a8:	1009883a 	mov	r4,r2
   208ac:	00283c80 	call	283c8 <alt_up_sd_card_read>
   208b0:	1007883a 	mov	r3,r2
   208b4:	00820034 	movhi	r2,2048
   208b8:	1083f504 	addi	r2,r2,4052
   208bc:	1405883a 	add	r2,r2,r16
   208c0:	10c00005 	stb	r3,0(r2)
                printf("%c", data[i]);
   208c4:	d0e01f17 	ldw	r3,-32644(gp)
   208c8:	00820034 	movhi	r2,2048
   208cc:	1083f504 	addi	r2,r2,4052
   208d0:	10c5883a 	add	r2,r2,r3
   208d4:	10800003 	ldbu	r2,0(r2)
   208d8:	10803fcc 	andi	r2,r2,255
   208dc:	1080201c 	xori	r2,r2,128
   208e0:	10bfe004 	addi	r2,r2,-128
   208e4:	1009883a 	mov	r4,r2
   208e8:	00232a00 	call	232a0 <putchar>
            printf("ERROR: Problem opening file - %i\n", sd_fileh2);
        else {
            printf("SD ACCESS SUCCESS: Reading data from opened file ...\n\n");

            // Read content from the text file
            for (i = 0; i < 12; i++) {
   208ec:	d0a01f17 	ldw	r2,-32644(gp)
   208f0:	10800044 	addi	r2,r2,1
   208f4:	d0a01f15 	stw	r2,-32644(gp)
   208f8:	d0a01f17 	ldw	r2,-32644(gp)
   208fc:	10800310 	cmplti	r2,r2,12
   20900:	103fe41e 	bne	r2,zero,20894 <__alt_data_end+0xf4020894>
                data[i] = alt_up_sd_card_read(sd_fileh2);
                printf("%c", data[i]);
            }

            printf("\nREAD DONE: Closing file ...\n");
   20904:	01020034 	movhi	r4,2048
   20908:	2100bb04 	addi	r4,r4,748
   2090c:	00233380 	call	23338 <puts>
            alt_up_sd_card_fclose(sd_fileh2);
   20910:	d0a01d8b 	ldhu	r2,-32650(gp)
   20914:	10bfffcc 	andi	r2,r2,65535
   20918:	10a0001c 	xori	r2,r2,32768
   2091c:	10a00004 	addi	r2,r2,-32768
   20920:	1009883a 	mov	r4,r2
   20924:	0028da80 	call	28da8 <alt_up_sd_card_fclose>

            printf("EXIT\n");
   20928:	01020034 	movhi	r4,2048
   2092c:	2100c304 	addi	r4,r4,780
   20930:	00233380 	call	23338 <puts>
   20934:	00000406 	br	20948 <_Z7sd_taskv+0x284>
        }

    } else {
        printf("INIT ERROR: %s\n", SDCARD_DEV);
   20938:	01020034 	movhi	r4,2048
   2093c:	2100c504 	addi	r4,r4,788
   20940:	e17ffe17 	ldw	r5,-8(fp)
   20944:	002324c0 	call	2324c <printf>
    }

    return 0;
   20948:	0005883a 	mov	r2,zero
   2094c:	e6ffff04 	addi	sp,fp,-4
   20950:	dfc00217 	ldw	ra,8(sp)
   20954:	df000117 	ldw	fp,4(sp)
   20958:	dc000017 	ldw	r16,0(sp)
   2095c:	dec00304 	addi	sp,sp,12
   20960:	f800283a 	ret

00020964 <_ZL12read_sleb128PKhPl>:
   20964:	0011883a 	mov	r8,zero
   20968:	000d883a 	mov	r6,zero
   2096c:	21c00003 	ldbu	r7,0(r4)
   20970:	20800044 	addi	r2,r4,1
   20974:	1009883a 	mov	r4,r2
   20978:	38c01fcc 	andi	r3,r7,127
   2097c:	1986983a 	sll	r3,r3,r6
   20980:	3a403fcc 	andi	r9,r7,255
   20984:	4a40201c 	xori	r9,r9,128
   20988:	4a7fe004 	addi	r9,r9,-128
   2098c:	40d0b03a 	or	r8,r8,r3
   20990:	318001c4 	addi	r6,r6,7
   20994:	483ff516 	blt	r9,zero,2096c <__alt_data_end+0xf402096c>
   20998:	00c007c4 	movi	r3,31
   2099c:	19800536 	bltu	r3,r6,209b4 <_ZL12read_sleb128PKhPl+0x50>
   209a0:	39c0100c 	andi	r7,r7,64
   209a4:	38000326 	beq	r7,zero,209b4 <_ZL12read_sleb128PKhPl+0x50>
   209a8:	00ffffc4 	movi	r3,-1
   209ac:	198c983a 	sll	r6,r3,r6
   209b0:	3210b03a 	or	r8,r6,r8
   209b4:	2a000015 	stw	r8,0(r5)
   209b8:	f800283a 	ret

000209bc <_ZL16get_adjusted_ptrPKSt9type_infoS1_PPv>:
   209bc:	28800017 	ldw	r2,0(r5)
   209c0:	30c00017 	ldw	r3,0(r6)
   209c4:	defffb04 	addi	sp,sp,-20
   209c8:	10800217 	ldw	r2,8(r2)
   209cc:	dc400315 	stw	r17,12(sp)
   209d0:	dc000215 	stw	r16,8(sp)
   209d4:	d9400115 	stw	r5,4(sp)
   209d8:	dfc00415 	stw	ra,16(sp)
   209dc:	2021883a 	mov	r16,r4
   209e0:	d8c00015 	stw	r3,0(sp)
   209e4:	2809883a 	mov	r4,r5
   209e8:	3023883a 	mov	r17,r6
   209ec:	103ee83a 	callr	r2
   209f0:	10803fcc 	andi	r2,r2,255
   209f4:	d9400117 	ldw	r5,4(sp)
   209f8:	10000326 	beq	r2,zero,20a08 <_ZL16get_adjusted_ptrPKSt9type_infoS1_PPv+0x4c>
   209fc:	d8800017 	ldw	r2,0(sp)
   20a00:	10800017 	ldw	r2,0(r2)
   20a04:	d8800015 	stw	r2,0(sp)
   20a08:	80800017 	ldw	r2,0(r16)
   20a0c:	8009883a 	mov	r4,r16
   20a10:	d80d883a 	mov	r6,sp
   20a14:	10800417 	ldw	r2,16(r2)
   20a18:	01c00044 	movi	r7,1
   20a1c:	103ee83a 	callr	r2
   20a20:	10c03fcc 	andi	r3,r2,255
   20a24:	18000226 	beq	r3,zero,20a30 <_ZL16get_adjusted_ptrPKSt9type_infoS1_PPv+0x74>
   20a28:	d8c00017 	ldw	r3,0(sp)
   20a2c:	88c00015 	stw	r3,0(r17)
   20a30:	dfc00417 	ldw	ra,16(sp)
   20a34:	dc400317 	ldw	r17,12(sp)
   20a38:	dc000217 	ldw	r16,8(sp)
   20a3c:	dec00504 	addi	sp,sp,20
   20a40:	f800283a 	ret

00020a44 <_ZL21size_of_encoded_valueh>:
   20a44:	deffff04 	addi	sp,sp,-4
   20a48:	dfc00015 	stw	ra,0(sp)
   20a4c:	00803fc4 	movi	r2,255
   20a50:	20802026 	beq	r4,r2,20ad4 <_ZL21size_of_encoded_valueh+0x90>
   20a54:	210001cc 	andi	r4,r4,7
   20a58:	00800144 	movi	r2,5
   20a5c:	11001c36 	bltu	r2,r4,20ad0 <_ZL21size_of_encoded_valueh+0x8c>
   20a60:	200890ba 	slli	r4,r4,2
   20a64:	008000b4 	movhi	r2,2
   20a68:	10829e04 	addi	r2,r2,2680
   20a6c:	2089883a 	add	r4,r4,r2
   20a70:	20800017 	ldw	r2,0(r4)
   20a74:	1000683a 	jmp	r2
   20a78:	00020a90 	cmplti	zero,zero,2090
   20a7c:	00020ad0 	cmplti	zero,zero,2091
   20a80:	00020aa0 	cmpeqi	zero,zero,2090
   20a84:	00020a90 	cmplti	zero,zero,2090
   20a88:	00020ac0 	call	20ac <__alt_mem_onchip_memory2_0-0x1df54>
   20a8c:	00020ab0 	cmpltui	zero,zero,2090
   20a90:	00800104 	movi	r2,4
   20a94:	dfc00017 	ldw	ra,0(sp)
   20a98:	dec00104 	addi	sp,sp,4
   20a9c:	f800283a 	ret
   20aa0:	00800084 	movi	r2,2
   20aa4:	dfc00017 	ldw	ra,0(sp)
   20aa8:	dec00104 	addi	sp,sp,4
   20aac:	f800283a 	ret
   20ab0:	00800044 	movi	r2,1
   20ab4:	dfc00017 	ldw	ra,0(sp)
   20ab8:	dec00104 	addi	sp,sp,4
   20abc:	f800283a 	ret
   20ac0:	00800204 	movi	r2,8
   20ac4:	dfc00017 	ldw	ra,0(sp)
   20ac8:	dec00104 	addi	sp,sp,4
   20acc:	f800283a 	ret
   20ad0:	0022b2c0 	call	22b2c <abort>
   20ad4:	0005883a 	mov	r2,zero
   20ad8:	dfc00017 	ldw	ra,0(sp)
   20adc:	dec00104 	addi	sp,sp,4
   20ae0:	f800283a 	ret

00020ae4 <_ZL28read_encoded_value_with_basehjPKhPj>:
   20ae4:	defffa04 	addi	sp,sp,-24
   20ae8:	dc000315 	stw	r16,12(sp)
   20aec:	dfc00515 	stw	ra,20(sp)
   20af0:	dc400415 	stw	r17,16(sp)
   20af4:	00801404 	movi	r2,80
   20af8:	2021883a 	mov	r16,r4
   20afc:	20807526 	beq	r4,r2,20cd4 <_ZL28read_encoded_value_with_basehjPKhPj+0x1f0>
   20b00:	208003cc 	andi	r2,r4,15
   20b04:	00c00304 	movi	r3,12
   20b08:	18807136 	bltu	r3,r2,20cd0 <_ZL28read_encoded_value_with_basehjPKhPj+0x1ec>
   20b0c:	100490ba 	slli	r2,r2,2
   20b10:	00c000b4 	movhi	r3,2
   20b14:	18c2ca04 	addi	r3,r3,2856
   20b18:	10c5883a 	add	r2,r2,r3
   20b1c:	10800017 	ldw	r2,0(r2)
   20b20:	2823883a 	mov	r17,r5
   20b24:	1000683a 	jmp	r2
   20b28:	00020c10 	cmplti	zero,zero,2096
   20b2c:	00020c40 	call	20c4 <__alt_mem_onchip_memory2_0-0x1df3c>
   20b30:	00020bf8 	rdprs	zero,zero,2095
   20b34:	00020b5c 	xori	zero,zero,2093
   20b38:	00020bc8 	cmpgei	zero,zero,2095
   20b3c:	00020c7c 	xorhi	zero,zero,2097
   20b40:	00020cd0 	cmplti	zero,zero,2099
   20b44:	00020cd0 	cmplti	zero,zero,2099
   20b48:	00020cd0 	cmplti	zero,zero,2099
   20b4c:	00020c88 	cmpgei	zero,zero,2098
   20b50:	00020cac 	andhi	zero,zero,2098
   20b54:	00020b5c 	xori	zero,zero,2093
   20b58:	00020bc8 	cmpgei	zero,zero,2095
   20b5c:	30800043 	ldbu	r2,1(r6)
   20b60:	30c00083 	ldbu	r3,2(r6)
   20b64:	310000c3 	ldbu	r4,3(r6)
   20b68:	32000003 	ldbu	r8,0(r6)
   20b6c:	1004923a 	slli	r2,r2,8
   20b70:	1806943a 	slli	r3,r3,16
   20b74:	2008963a 	slli	r4,r4,24
   20b78:	1204b03a 	or	r2,r2,r8
   20b7c:	1884b03a 	or	r2,r3,r2
   20b80:	2086b03a 	or	r3,r4,r2
   20b84:	30800104 	addi	r2,r6,4
   20b88:	18000926 	beq	r3,zero,20bb0 <_ZL28read_encoded_value_with_basehjPKhPj+0xcc>
   20b8c:	81401c0c 	andi	r5,r16,112
   20b90:	01000404 	movi	r4,16
   20b94:	29005526 	beq	r5,r4,20cec <_ZL28read_encoded_value_with_basehjPKhPj+0x208>
   20b98:	84003fcc 	andi	r16,r16,255
   20b9c:	8400201c 	xori	r16,r16,128
   20ba0:	843fe004 	addi	r16,r16,-128
   20ba4:	1c47883a 	add	r3,r3,r17
   20ba8:	8000010e 	bge	r16,zero,20bb0 <_ZL28read_encoded_value_with_basehjPKhPj+0xcc>
   20bac:	18c00017 	ldw	r3,0(r3)
   20bb0:	38c00015 	stw	r3,0(r7)
   20bb4:	dfc00517 	ldw	ra,20(sp)
   20bb8:	dc400417 	ldw	r17,16(sp)
   20bbc:	dc000317 	ldw	r16,12(sp)
   20bc0:	dec00604 	addi	sp,sp,24
   20bc4:	f800283a 	ret
   20bc8:	30800043 	ldbu	r2,1(r6)
   20bcc:	30c00083 	ldbu	r3,2(r6)
   20bd0:	310000c3 	ldbu	r4,3(r6)
   20bd4:	32000003 	ldbu	r8,0(r6)
   20bd8:	1004923a 	slli	r2,r2,8
   20bdc:	1806943a 	slli	r3,r3,16
   20be0:	2008963a 	slli	r4,r4,24
   20be4:	1204b03a 	or	r2,r2,r8
   20be8:	1884b03a 	or	r2,r3,r2
   20bec:	2086b03a 	or	r3,r4,r2
   20bf0:	30800204 	addi	r2,r6,8
   20bf4:	003fe406 	br	20b88 <__alt_data_end+0xf4020b88>
   20bf8:	30c00043 	ldbu	r3,1(r6)
   20bfc:	32000003 	ldbu	r8,0(r6)
   20c00:	30800084 	addi	r2,r6,2
   20c04:	1806923a 	slli	r3,r3,8
   20c08:	1a06b03a 	or	r3,r3,r8
   20c0c:	003fde06 	br	20b88 <__alt_data_end+0xf4020b88>
   20c10:	30800043 	ldbu	r2,1(r6)
   20c14:	30c00083 	ldbu	r3,2(r6)
   20c18:	314000c3 	ldbu	r5,3(r6)
   20c1c:	31000003 	ldbu	r4,0(r6)
   20c20:	1004923a 	slli	r2,r2,8
   20c24:	1806943a 	slli	r3,r3,16
   20c28:	280a963a 	slli	r5,r5,24
   20c2c:	1104b03a 	or	r2,r2,r4
   20c30:	1884b03a 	or	r2,r3,r2
   20c34:	2886b03a 	or	r3,r5,r2
   20c38:	30800104 	addi	r2,r6,4
   20c3c:	003fd206 	br	20b88 <__alt_data_end+0xf4020b88>
   20c40:	3013883a 	mov	r9,r6
   20c44:	0007883a 	mov	r3,zero
   20c48:	0011883a 	mov	r8,zero
   20c4c:	49000003 	ldbu	r4,0(r9)
   20c50:	48800044 	addi	r2,r9,1
   20c54:	1013883a 	mov	r9,r2
   20c58:	21401fcc 	andi	r5,r4,127
   20c5c:	2a0a983a 	sll	r5,r5,r8
   20c60:	21003fcc 	andi	r4,r4,255
   20c64:	2100201c 	xori	r4,r4,128
   20c68:	213fe004 	addi	r4,r4,-128
   20c6c:	1946b03a 	or	r3,r3,r5
   20c70:	420001c4 	addi	r8,r8,7
   20c74:	203ff516 	blt	r4,zero,20c4c <__alt_data_end+0xf4020c4c>
   20c78:	003fc306 	br	20b88 <__alt_data_end+0xf4020b88>
   20c7c:	30c00003 	ldbu	r3,0(r6)
   20c80:	30800044 	addi	r2,r6,1
   20c84:	003fc006 	br	20b88 <__alt_data_end+0xf4020b88>
   20c88:	3009883a 	mov	r4,r6
   20c8c:	d80b883a 	mov	r5,sp
   20c90:	d9800115 	stw	r6,4(sp)
   20c94:	d9c00215 	stw	r7,8(sp)
   20c98:	00209640 	call	20964 <_ZL12read_sleb128PKhPl>
   20c9c:	d8c00017 	ldw	r3,0(sp)
   20ca0:	d9800117 	ldw	r6,4(sp)
   20ca4:	d9c00217 	ldw	r7,8(sp)
   20ca8:	003fb706 	br	20b88 <__alt_data_end+0xf4020b88>
   20cac:	30c00043 	ldbu	r3,1(r6)
   20cb0:	32000003 	ldbu	r8,0(r6)
   20cb4:	30800084 	addi	r2,r6,2
   20cb8:	1806923a 	slli	r3,r3,8
   20cbc:	1a06b03a 	or	r3,r3,r8
   20cc0:	18ffffcc 	andi	r3,r3,65535
   20cc4:	18e0001c 	xori	r3,r3,32768
   20cc8:	18e00004 	addi	r3,r3,-32768
   20ccc:	003fae06 	br	20b88 <__alt_data_end+0xf4020b88>
   20cd0:	0022b2c0 	call	22b2c <abort>
   20cd4:	318000c4 	addi	r6,r6,3
   20cd8:	00bfff04 	movi	r2,-4
   20cdc:	3084703a 	and	r2,r6,r2
   20ce0:	10c00017 	ldw	r3,0(r2)
   20ce4:	10800104 	addi	r2,r2,4
   20ce8:	003fb106 	br	20bb0 <__alt_data_end+0xf4020bb0>
   20cec:	3023883a 	mov	r17,r6
   20cf0:	003fa906 	br	20b98 <__alt_data_end+0xf4020b98>

00020cf4 <_ZL15get_ttype_entryP16lsda_header_infom>:
   20cf4:	defffc04 	addi	sp,sp,-16
   20cf8:	dfc00315 	stw	ra,12(sp)
   20cfc:	dc000215 	stw	r16,8(sp)
   20d00:	2021883a 	mov	r16,r4
   20d04:	21000503 	ldbu	r4,20(r4)
   20d08:	d9400115 	stw	r5,4(sp)
   20d0c:	0020a440 	call	20a44 <_ZL21size_of_encoded_valueh>
   20d10:	d9400117 	ldw	r5,4(sp)
   20d14:	1009883a 	mov	r4,r2
   20d18:	00225e40 	call	225e4 <__mulsi3>
   20d1c:	81800317 	ldw	r6,12(r16)
   20d20:	81000503 	ldbu	r4,20(r16)
   20d24:	81400217 	ldw	r5,8(r16)
   20d28:	308dc83a 	sub	r6,r6,r2
   20d2c:	d80f883a 	mov	r7,sp
   20d30:	0020ae40 	call	20ae4 <_ZL28read_encoded_value_with_basehjPKhPj>
   20d34:	d8800017 	ldw	r2,0(sp)
   20d38:	dfc00317 	ldw	ra,12(sp)
   20d3c:	dc000217 	ldw	r16,8(sp)
   20d40:	dec00404 	addi	sp,sp,16
   20d44:	f800283a 	ret

00020d48 <_ZL20check_exception_specP16lsda_header_infoPKSt9type_infoPvl>:
   20d48:	defffb04 	addi	sp,sp,-20
   20d4c:	dc000115 	stw	r16,4(sp)
   20d50:	24000317 	ldw	r16,12(r4)
   20d54:	01ce303a 	nor	r7,zero,r7
   20d58:	dc800315 	stw	r18,12(sp)
   20d5c:	dc400215 	stw	r17,8(sp)
   20d60:	dfc00415 	stw	ra,16(sp)
   20d64:	2023883a 	mov	r17,r4
   20d68:	2825883a 	mov	r18,r5
   20d6c:	d9800015 	stw	r6,0(sp)
   20d70:	81e1883a 	add	r16,r16,r7
   20d74:	8009883a 	mov	r4,r16
   20d78:	000b883a 	mov	r5,zero
   20d7c:	000d883a 	mov	r6,zero
   20d80:	20800003 	ldbu	r2,0(r4)
   20d84:	84000044 	addi	r16,r16,1
   20d88:	8009883a 	mov	r4,r16
   20d8c:	10c01fcc 	andi	r3,r2,127
   20d90:	1986983a 	sll	r3,r3,r6
   20d94:	10803fcc 	andi	r2,r2,255
   20d98:	1080201c 	xori	r2,r2,128
   20d9c:	10bfe004 	addi	r2,r2,-128
   20da0:	28cab03a 	or	r5,r5,r3
   20da4:	318001c4 	addi	r6,r6,7
   20da8:	103ff516 	blt	r2,zero,20d80 <__alt_data_end+0xf4020d80>
   20dac:	28000e26 	beq	r5,zero,20de8 <_ZL20check_exception_specP16lsda_header_infoPKSt9type_infoPvl+0xa0>
   20db0:	8809883a 	mov	r4,r17
   20db4:	0020cf40 	call	20cf4 <_ZL15get_ttype_entryP16lsda_header_infom>
   20db8:	1009883a 	mov	r4,r2
   20dbc:	900b883a 	mov	r5,r18
   20dc0:	d80d883a 	mov	r6,sp
   20dc4:	00209bc0 	call	209bc <_ZL16get_adjusted_ptrPKSt9type_infoS1_PPv>
   20dc8:	10c03fcc 	andi	r3,r2,255
   20dcc:	183fe926 	beq	r3,zero,20d74 <__alt_data_end+0xf4020d74>
   20dd0:	dfc00417 	ldw	ra,16(sp)
   20dd4:	dc800317 	ldw	r18,12(sp)
   20dd8:	dc400217 	ldw	r17,8(sp)
   20ddc:	dc000117 	ldw	r16,4(sp)
   20de0:	dec00504 	addi	sp,sp,20
   20de4:	f800283a 	ret
   20de8:	0005883a 	mov	r2,zero
   20dec:	003ff806 	br	20dd0 <__alt_data_end+0xf4020dd0>

00020df0 <_ZL21base_of_encoded_valuehP15_Unwind_Context>:
   20df0:	deffff04 	addi	sp,sp,-4
   20df4:	dfc00015 	stw	ra,0(sp)
   20df8:	00803fc4 	movi	r2,255
   20dfc:	20800e26 	beq	r4,r2,20e38 <_ZL21base_of_encoded_valuehP15_Unwind_Context+0x48>
   20e00:	20801c0c 	andi	r2,r4,112
   20e04:	00c00804 	movi	r3,32
   20e08:	10c01726 	beq	r2,r3,20e68 <_ZL21base_of_encoded_valuehP15_Unwind_Context+0x78>
   20e0c:	18800e2e 	bgeu	r3,r2,20e48 <_ZL21base_of_encoded_valuehP15_Unwind_Context+0x58>
   20e10:	00c01004 	movi	r3,64
   20e14:	10c01026 	beq	r2,r3,20e58 <_ZL21base_of_encoded_valuehP15_Unwind_Context+0x68>
   20e18:	00c01404 	movi	r3,80
   20e1c:	10c00626 	beq	r2,r3,20e38 <_ZL21base_of_encoded_valuehP15_Unwind_Context+0x48>
   20e20:	00c00c04 	movi	r3,48
   20e24:	10c00b1e 	bne	r2,r3,20e54 <_ZL21base_of_encoded_valuehP15_Unwind_Context+0x64>
   20e28:	2809883a 	mov	r4,r5
   20e2c:	dfc00017 	ldw	ra,0(sp)
   20e30:	dec00104 	addi	sp,sp,4
   20e34:	00228ec1 	jmpi	228ec <_Unwind_GetDataRelBase>
   20e38:	0005883a 	mov	r2,zero
   20e3c:	dfc00017 	ldw	ra,0(sp)
   20e40:	dec00104 	addi	sp,sp,4
   20e44:	f800283a 	ret
   20e48:	103ffb26 	beq	r2,zero,20e38 <__alt_data_end+0xf4020e38>
   20e4c:	00c00404 	movi	r3,16
   20e50:	10fff926 	beq	r2,r3,20e38 <__alt_data_end+0xf4020e38>
   20e54:	0022b2c0 	call	22b2c <abort>
   20e58:	2809883a 	mov	r4,r5
   20e5c:	dfc00017 	ldw	ra,0(sp)
   20e60:	dec00104 	addi	sp,sp,4
   20e64:	00228dc1 	jmpi	228dc <_Unwind_GetRegionStart>
   20e68:	2809883a 	mov	r4,r5
   20e6c:	dfc00017 	ldw	ra,0(sp)
   20e70:	dec00104 	addi	sp,sp,4
   20e74:	00228f41 	jmpi	228f4 <_Unwind_GetTextRelBase>

00020e78 <_ZL28check_compact_exception_specPKSt9type_infoPvPKhij>:
   20e78:	defff104 	addi	sp,sp,-60
   20e7c:	dd800b15 	stw	r22,44(sp)
   20e80:	382dd23a 	srai	r22,r7,8
   20e84:	dd400a15 	stw	r21,40(sp)
   20e88:	dd000915 	stw	r20,36(sp)
   20e8c:	dfc00e15 	stw	ra,56(sp)
   20e90:	df000d15 	stw	fp,52(sp)
   20e94:	ddc00c15 	stw	r23,48(sp)
   20e98:	dcc00815 	stw	r19,32(sp)
   20e9c:	dc800715 	stw	r18,28(sp)
   20ea0:	dc400615 	stw	r17,24(sp)
   20ea4:	dc000515 	stw	r16,20(sp)
   20ea8:	d9c00315 	stw	r7,12(sp)
   20eac:	d9400215 	stw	r5,8(sp)
   20eb0:	2029883a 	mov	r20,r4
   20eb4:	dd400f17 	ldw	r21,60(sp)
   20eb8:	b000010e 	bge	r22,zero,20ec0 <_ZL28check_compact_exception_specPKSt9type_infoPvPKhij+0x48>
   20ebc:	05adc83a 	sub	r22,zero,r22
   20ec0:	01000144 	movi	r4,5
   20ec4:	000b883a 	mov	r5,zero
   20ec8:	d9800415 	stw	r6,16(sp)
   20ecc:	0020df00 	call	20df0 <_ZL21base_of_encoded_valuehP15_Unwind_Context>
   20ed0:	d9800417 	ldw	r6,16(sp)
   20ed4:	100b883a 	mov	r5,r2
   20ed8:	d9c00104 	addi	r7,sp,4
   20edc:	01000144 	movi	r4,5
   20ee0:	0020ae40 	call	20ae4 <_ZL28read_encoded_value_with_basehjPKhPj>
   20ee4:	1009883a 	mov	r4,r2
   20ee8:	017ffe44 	movi	r5,-7
   20eec:	1021883a 	mov	r16,r2
   20ef0:	00225e40 	call	225e4 <__mulsi3>
   20ef4:	1027883a 	mov	r19,r2
   20ef8:	002f883a 	mov	r23,zero
   20efc:	84400003 	ldbu	r17,0(r16)
   20f00:	8009883a 	mov	r4,r16
   20f04:	014001c4 	movi	r5,7
   20f08:	00225e40 	call	225e4 <__mulsi3>
   20f0c:	88c01fcc 	andi	r3,r17,127
   20f10:	14c5883a 	add	r2,r2,r19
   20f14:	1886983a 	sll	r3,r3,r2
   20f18:	8c403fcc 	andi	r17,r17,255
   20f1c:	8c40201c 	xori	r17,r17,128
   20f20:	8c7fe004 	addi	r17,r17,-128
   20f24:	84000044 	addi	r16,r16,1
   20f28:	b8eeb03a 	or	r23,r23,r3
   20f2c:	883ff316 	blt	r17,zero,20efc <__alt_data_end+0xf4020efc>
   20f30:	85e1883a 	add	r16,r16,r23
   20f34:	8009883a 	mov	r4,r16
   20f38:	017ffe44 	movi	r5,-7
   20f3c:	00225e40 	call	225e4 <__mulsi3>
   20f40:	102f883a 	mov	r23,r2
   20f44:	8007883a 	mov	r3,r16
   20f48:	0025883a 	mov	r18,zero
   20f4c:	1cc00003 	ldbu	r19,0(r3)
   20f50:	1809883a 	mov	r4,r3
   20f54:	014001c4 	movi	r5,7
   20f58:	1c400044 	addi	r17,r3,1
   20f5c:	00225e40 	call	225e4 <__mulsi3>
   20f60:	98c01fcc 	andi	r3,r19,127
   20f64:	15c5883a 	add	r2,r2,r23
   20f68:	1884983a 	sll	r2,r3,r2
   20f6c:	9cc03fcc 	andi	r19,r19,255
   20f70:	9cc0201c 	xori	r19,r19,128
   20f74:	9cffe004 	addi	r19,r19,-128
   20f78:	8807883a 	mov	r3,r17
   20f7c:	90a4b03a 	or	r18,r18,r2
   20f80:	983ff216 	blt	r19,zero,20f4c <__alt_data_end+0xf4020f4c>
   20f84:	b7003fcc 	andi	fp,r22,255
   20f88:	e73fffc4 	addi	fp,fp,-1
   20f8c:	8f39883a 	add	fp,r17,fp
   20f90:	840000c4 	addi	r16,r16,3
   20f94:	848d883a 	add	r6,r16,r18
   20f98:	e009883a 	mov	r4,fp
   20f9c:	017ffe44 	movi	r5,-7
   20fa0:	04ffff04 	movi	r19,-4
   20fa4:	34e6703a 	and	r19,r6,r19
   20fa8:	00225e40 	call	225e4 <__mulsi3>
   20fac:	002f883a 	mov	r23,zero
   20fb0:	102d883a 	mov	r22,r2
   20fb4:	e4400003 	ldbu	r17,0(fp)
   20fb8:	e009883a 	mov	r4,fp
   20fbc:	014001c4 	movi	r5,7
   20fc0:	00225e40 	call	225e4 <__mulsi3>
   20fc4:	88c01fcc 	andi	r3,r17,127
   20fc8:	1585883a 	add	r2,r2,r22
   20fcc:	1886983a 	sll	r3,r3,r2
   20fd0:	8c403fcc 	andi	r17,r17,255
   20fd4:	8c40201c 	xori	r17,r17,128
   20fd8:	e4000044 	addi	r16,fp,1
   20fdc:	8c7fe004 	addi	r17,r17,-128
   20fe0:	b8eeb03a 	or	r23,r23,r3
   20fe4:	8039883a 	mov	fp,r16
   20fe8:	883ff216 	blt	r17,zero,20fb4 <__alt_data_end+0xf4020fb4>
   20fec:	d8800317 	ldw	r2,12(sp)
   20ff0:	14803fcc 	andi	r18,r2,255
   20ff4:	b8002326 	beq	r23,zero,21084 <_ZL28check_compact_exception_specPKSt9type_infoPvPKhij+0x20c>
   20ff8:	9009883a 	mov	r4,r18
   20ffc:	0020a440 	call	20a44 <_ZL21size_of_encoded_valueh>
   21000:	1009883a 	mov	r4,r2
   21004:	b97fffc4 	addi	r5,r23,-1
   21008:	00225e40 	call	225e4 <__mulsi3>
   2100c:	9009883a 	mov	r4,r18
   21010:	a80b883a 	mov	r5,r21
   21014:	14cd883a 	add	r6,r2,r19
   21018:	d80f883a 	mov	r7,sp
   2101c:	0020ae40 	call	20ae4 <_ZL28read_encoded_value_with_basehjPKhPj>
   21020:	d9000017 	ldw	r4,0(sp)
   21024:	a00b883a 	mov	r5,r20
   21028:	d9800204 	addi	r6,sp,8
   2102c:	00209bc0 	call	209bc <_ZL16get_adjusted_ptrPKSt9type_infoS1_PPv>
   21030:	10c03fcc 	andi	r3,r2,255
   21034:	1800141e 	bne	r3,zero,21088 <_ZL28check_compact_exception_specPKSt9type_infoPvPKhij+0x210>
   21038:	8009883a 	mov	r4,r16
   2103c:	017ffe44 	movi	r5,-7
   21040:	00225e40 	call	225e4 <__mulsi3>
   21044:	102d883a 	mov	r22,r2
   21048:	002f883a 	mov	r23,zero
   2104c:	84400003 	ldbu	r17,0(r16)
   21050:	8009883a 	mov	r4,r16
   21054:	014001c4 	movi	r5,7
   21058:	00225e40 	call	225e4 <__mulsi3>
   2105c:	88c01fcc 	andi	r3,r17,127
   21060:	1585883a 	add	r2,r2,r22
   21064:	1886983a 	sll	r3,r3,r2
   21068:	8c403fcc 	andi	r17,r17,255
   2106c:	8c40201c 	xori	r17,r17,128
   21070:	8c7fe004 	addi	r17,r17,-128
   21074:	84000044 	addi	r16,r16,1
   21078:	b8eeb03a 	or	r23,r23,r3
   2107c:	883ff316 	blt	r17,zero,2104c <__alt_data_end+0xf402104c>
   21080:	003fdc06 	br	20ff4 <__alt_data_end+0xf4020ff4>
   21084:	0005883a 	mov	r2,zero
   21088:	dfc00e17 	ldw	ra,56(sp)
   2108c:	df000d17 	ldw	fp,52(sp)
   21090:	ddc00c17 	ldw	r23,48(sp)
   21094:	dd800b17 	ldw	r22,44(sp)
   21098:	dd400a17 	ldw	r21,40(sp)
   2109c:	dd000917 	ldw	r20,36(sp)
   210a0:	dcc00817 	ldw	r19,32(sp)
   210a4:	dc800717 	ldw	r18,28(sp)
   210a8:	dc400617 	ldw	r17,24(sp)
   210ac:	dc000517 	ldw	r16,20(sp)
   210b0:	dec00f04 	addi	sp,sp,60
   210b4:	f800283a 	ret

000210b8 <_ZL17parse_lsda_headerP15_Unwind_ContextPKhP16lsda_header_info>:
   210b8:	defffb04 	addi	sp,sp,-20
   210bc:	dcc00315 	stw	r19,12(sp)
   210c0:	dc400115 	stw	r17,4(sp)
   210c4:	dc000015 	stw	r16,0(sp)
   210c8:	dfc00415 	stw	ra,16(sp)
   210cc:	dc800215 	stw	r18,8(sp)
   210d0:	2027883a 	mov	r19,r4
   210d4:	2821883a 	mov	r16,r5
   210d8:	3023883a 	mov	r17,r6
   210dc:	20003f26 	beq	r4,zero,211dc <_ZL17parse_lsda_headerP15_Unwind_ContextPKhP16lsda_header_info+0x124>
   210e0:	00228dc0 	call	228dc <_Unwind_GetRegionStart>
   210e4:	88800015 	stw	r2,0(r17)
   210e8:	84800003 	ldbu	r18,0(r16)
   210ec:	00c03fc4 	movi	r3,255
   210f0:	84000044 	addi	r16,r16,1
   210f4:	90c03726 	beq	r18,r3,211d4 <_ZL17parse_lsda_headerP15_Unwind_ContextPKhP16lsda_header_info+0x11c>
   210f8:	9009883a 	mov	r4,r18
   210fc:	980b883a 	mov	r5,r19
   21100:	0020df00 	call	20df0 <_ZL21base_of_encoded_valuehP15_Unwind_Context>
   21104:	800d883a 	mov	r6,r16
   21108:	9009883a 	mov	r4,r18
   2110c:	100b883a 	mov	r5,r2
   21110:	89c00104 	addi	r7,r17,4
   21114:	0020ae40 	call	20ae4 <_ZL28read_encoded_value_with_basehjPKhPj>
   21118:	1021883a 	mov	r16,r2
   2111c:	80c00003 	ldbu	r3,0(r16)
   21120:	01003fc4 	movi	r4,255
   21124:	80800044 	addi	r2,r16,1
   21128:	88c00505 	stb	r3,20(r17)
   2112c:	18c03fcc 	andi	r3,r3,255
   21130:	19002c26 	beq	r3,r4,211e4 <_ZL17parse_lsda_headerP15_Unwind_ContextPKhP16lsda_header_info+0x12c>
   21134:	100d883a 	mov	r6,r2
   21138:	000f883a 	mov	r7,zero
   2113c:	000b883a 	mov	r5,zero
   21140:	30c00003 	ldbu	r3,0(r6)
   21144:	10800044 	addi	r2,r2,1
   21148:	100d883a 	mov	r6,r2
   2114c:	19001fcc 	andi	r4,r3,127
   21150:	2148983a 	sll	r4,r4,r5
   21154:	18c03fcc 	andi	r3,r3,255
   21158:	18c0201c 	xori	r3,r3,128
   2115c:	18ffe004 	addi	r3,r3,-128
   21160:	390eb03a 	or	r7,r7,r4
   21164:	294001c4 	addi	r5,r5,7
   21168:	183ff516 	blt	r3,zero,21140 <__alt_data_end+0xf4021140>
   2116c:	11cf883a 	add	r7,r2,r7
   21170:	89c00315 	stw	r7,12(r17)
   21174:	10c00003 	ldbu	r3,0(r2)
   21178:	000f883a 	mov	r7,zero
   2117c:	10800044 	addi	r2,r2,1
   21180:	88c00545 	stb	r3,21(r17)
   21184:	000b883a 	mov	r5,zero
   21188:	10c00003 	ldbu	r3,0(r2)
   2118c:	10800044 	addi	r2,r2,1
   21190:	19001fcc 	andi	r4,r3,127
   21194:	2148983a 	sll	r4,r4,r5
   21198:	18c03fcc 	andi	r3,r3,255
   2119c:	18c0201c 	xori	r3,r3,128
   211a0:	18ffe004 	addi	r3,r3,-128
   211a4:	390eb03a 	or	r7,r7,r4
   211a8:	294001c4 	addi	r5,r5,7
   211ac:	183ff616 	blt	r3,zero,21188 <__alt_data_end+0xf4021188>
   211b0:	11cf883a 	add	r7,r2,r7
   211b4:	89c00415 	stw	r7,16(r17)
   211b8:	dfc00417 	ldw	ra,16(sp)
   211bc:	dcc00317 	ldw	r19,12(sp)
   211c0:	dc800217 	ldw	r18,8(sp)
   211c4:	dc400117 	ldw	r17,4(sp)
   211c8:	dc000017 	ldw	r16,0(sp)
   211cc:	dec00504 	addi	sp,sp,20
   211d0:	f800283a 	ret
   211d4:	88800115 	stw	r2,4(r17)
   211d8:	003fd006 	br	2111c <__alt_data_end+0xf402111c>
   211dc:	0005883a 	mov	r2,zero
   211e0:	003fc006 	br	210e4 <__alt_data_end+0xf40210e4>
   211e4:	88000315 	stw	zero,12(r17)
   211e8:	003fe206 	br	21174 <__alt_data_end+0xf4021174>

000211ec <__gxx_personality_sj0>:
   211ec:	008000b4 	movhi	r2,2
   211f0:	deffde04 	addi	sp,sp,-136
   211f4:	10847b04 	addi	r2,r2,4588
   211f8:	d8801015 	stw	r2,64(sp)
   211fc:	008000f4 	movhi	r2,3
   21200:	10a8b404 	addi	r2,r2,-23856
   21204:	d8801115 	stw	r2,68(sp)
   21208:	008000b4 	movhi	r2,2
   2120c:	1085b604 	addi	r2,r2,5848
   21210:	d9001715 	stw	r4,92(sp)
   21214:	d9000a04 	addi	r4,sp,40
   21218:	d8801315 	stw	r2,76(sp)
   2121c:	dfc02115 	stw	ra,132(sp)
   21220:	df002015 	stw	fp,128(sp)
   21224:	dec01215 	stw	sp,72(sp)
   21228:	dec01415 	stw	sp,80(sp)
   2122c:	d9401a15 	stw	r5,104(sp)
   21230:	d9801815 	stw	r6,96(sp)
   21234:	d9c01915 	stw	r7,100(sp)
   21238:	00228140 	call	22814 <_Unwind_SjLj_Register>
   2123c:	d8c01717 	ldw	r3,92(sp)
   21240:	d8000915 	stw	zero,36(sp)
   21244:	d8000815 	stw	zero,32(sp)
   21248:	00800044 	movi	r2,1
   2124c:	18800926 	beq	r3,r2,21274 <__gxx_personality_sj0+0x88>
   21250:	014000c4 	movi	r5,3
   21254:	d9401715 	stw	r5,92(sp)
   21258:	d9000a04 	addi	r4,sp,40
   2125c:	002282c0 	call	2282c <_Unwind_SjLj_Unregister>
   21260:	d8801717 	ldw	r2,92(sp)
   21264:	dfc02117 	ldw	ra,132(sp)
   21268:	df002017 	ldw	fp,128(sp)
   2126c:	dec02204 	addi	sp,sp,136
   21270:	f800283a 	ret
   21274:	d9401817 	ldw	r5,96(sp)
   21278:	012f3574 	movhi	r4,48341
   2127c:	21354004 	addi	r4,r4,-11008
   21280:	2909883a 	add	r4,r5,r4
   21284:	2145803a 	cmpltu	r2,r4,r5
   21288:	d9401917 	ldw	r5,100(sp)
   2128c:	d8c01b05 	stb	r3,108(sp)
   21290:	00ee2cb4 	movhi	r3,47282
   21294:	18eaaf04 	addi	r3,r3,-21828
   21298:	28c7883a 	add	r3,r5,r3
   2129c:	10c5883a 	add	r2,r2,r3
   212a0:	10003526 	beq	r2,zero,21378 <__gxx_personality_sj0+0x18c>
   212a4:	d8c01a17 	ldw	r3,104(sp)
   212a8:	00800184 	movi	r2,6
   212ac:	18803826 	beq	r3,r2,21390 <__gxx_personality_sj0+0x1a4>
   212b0:	d9002317 	ldw	r4,140(sp)
   212b4:	00ffffc4 	movi	r3,-1
   212b8:	d8c00b15 	stw	r3,44(sp)
   212bc:	00228d00 	call	228d0 <_Unwind_GetLanguageSpecificData>
   212c0:	d8801915 	stw	r2,100(sp)
   212c4:	1000a326 	beq	r2,zero,21554 <__gxx_personality_sj0+0x368>
   212c8:	d9002317 	ldw	r4,140(sp)
   212cc:	d9401917 	ldw	r5,100(sp)
   212d0:	d80d883a 	mov	r6,sp
   212d4:	00bfffc4 	movi	r2,-1
   212d8:	d8800b15 	stw	r2,44(sp)
   212dc:	00210b80 	call	210b8 <_ZL17parse_lsda_headerP15_Unwind_ContextPKhP16lsda_header_info>
   212e0:	d9000503 	ldbu	r4,20(sp)
   212e4:	d9402317 	ldw	r5,140(sp)
   212e8:	d8801715 	stw	r2,92(sp)
   212ec:	0020df00 	call	20df0 <_ZL21base_of_encoded_valuehP15_Unwind_Context>
   212f0:	d9002317 	ldw	r4,140(sp)
   212f4:	d9400804 	addi	r5,sp,32
   212f8:	d8800215 	stw	r2,8(sp)
   212fc:	00228a00 	call	228a0 <_Unwind_GetIPInfo>
   21300:	d8c00817 	ldw	r3,32(sp)
   21304:	1800011e 	bne	r3,zero,2130c <__gxx_personality_sj0+0x120>
   21308:	10bfffc4 	addi	r2,r2,-1
   2130c:	10009116 	blt	r2,zero,21554 <__gxx_personality_sj0+0x368>
   21310:	10004c1e 	bne	r2,zero,21444 <__gxx_personality_sj0+0x258>
   21314:	d8001c15 	stw	zero,112(sp)
   21318:	00800044 	movi	r2,1
   2131c:	d8001715 	stw	zero,92(sp)
   21320:	d8001815 	stw	zero,96(sp)
   21324:	d9001a17 	ldw	r4,104(sp)
   21328:	20c0004c 	andi	r3,r4,1
   2132c:	18008c26 	beq	r3,zero,21560 <__gxx_personality_sj0+0x374>
   21330:	00c00084 	movi	r3,2
   21334:	10c08726 	beq	r2,r3,21554 <__gxx_personality_sj0+0x368>
   21338:	d8801b03 	ldbu	r2,108(sp)
   2133c:	1000d21e 	bne	r2,zero,21688 <__gxx_personality_sj0+0x49c>
   21340:	d9402217 	ldw	r5,136(sp)
   21344:	d8801717 	ldw	r2,92(sp)
   21348:	d8c01817 	ldw	r3,96(sp)
   2134c:	d9001917 	ldw	r4,100(sp)
   21350:	28bffb15 	stw	r2,-20(r5)
   21354:	d8800917 	ldw	r2,36(sp)
   21358:	28fffc15 	stw	r3,-16(r5)
   2135c:	00c00184 	movi	r3,6
   21360:	28bfff15 	stw	r2,-4(r5)
   21364:	d8801c17 	ldw	r2,112(sp)
   21368:	293ffd15 	stw	r4,-12(r5)
   2136c:	d8c01715 	stw	r3,92(sp)
   21370:	28bffe15 	stw	r2,-8(r5)
   21374:	003fb806 	br	21258 <__alt_data_end+0xf4021258>
   21378:	d8801717 	ldw	r2,92(sp)
   2137c:	113fc936 	bltu	r2,r4,212a4 <__alt_data_end+0xf40212a4>
   21380:	d8c01a17 	ldw	r3,104(sp)
   21384:	d8001b05 	stb	zero,108(sp)
   21388:	00800184 	movi	r2,6
   2138c:	18bfc81e 	bne	r3,r2,212b0 <__alt_data_end+0xf40212b0>
   21390:	d8801b03 	ldbu	r2,108(sp)
   21394:	103fc61e 	bne	r2,zero,212b0 <__alt_data_end+0xf40212b0>
   21398:	d9002217 	ldw	r4,136(sp)
   2139c:	d9402217 	ldw	r5,136(sp)
   213a0:	d8802217 	ldw	r2,136(sp)
   213a4:	213ffe17 	ldw	r4,-8(r4)
   213a8:	297ffb17 	ldw	r5,-20(r5)
   213ac:	10bffd17 	ldw	r2,-12(r2)
   213b0:	d9001c15 	stw	r4,112(sp)
   213b4:	d9401715 	stw	r5,92(sp)
   213b8:	d8801915 	stw	r2,100(sp)
   213bc:	20008726 	beq	r4,zero,215dc <__gxx_personality_sj0+0x3f0>
   213c0:	d8801717 	ldw	r2,92(sp)
   213c4:	10006f0e 	bge	r2,zero,21584 <__gxx_personality_sj0+0x398>
   213c8:	d9002317 	ldw	r4,140(sp)
   213cc:	d9401917 	ldw	r5,100(sp)
   213d0:	d80d883a 	mov	r6,sp
   213d4:	00bfffc4 	movi	r2,-1
   213d8:	d8800b15 	stw	r2,44(sp)
   213dc:	00210b80 	call	210b8 <_ZL17parse_lsda_headerP15_Unwind_ContextPKhP16lsda_header_info>
   213e0:	d9000503 	ldbu	r4,20(sp)
   213e4:	d9402317 	ldw	r5,140(sp)
   213e8:	0020df00 	call	20df0 <_ZL21base_of_encoded_valuehP15_Unwind_Context>
   213ec:	d9000503 	ldbu	r4,20(sp)
   213f0:	d9402317 	ldw	r5,140(sp)
   213f4:	d8800215 	stw	r2,8(sp)
   213f8:	0020df00 	call	20df0 <_ZL21base_of_encoded_valuehP15_Unwind_Context>
   213fc:	d8c02217 	ldw	r3,136(sp)
   21400:	18bffe15 	stw	r2,-8(r3)
   21404:	00005f06 	br	21584 <__gxx_personality_sj0+0x398>
   21408:	000f883a 	mov	r7,zero
   2140c:	000d883a 	mov	r6,zero
   21410:	19000003 	ldbu	r4,0(r3)
   21414:	18c00044 	addi	r3,r3,1
   21418:	d8c01715 	stw	r3,92(sp)
   2141c:	21401fcc 	andi	r5,r4,127
   21420:	298a983a 	sll	r5,r5,r6
   21424:	21003fcc 	andi	r4,r4,255
   21428:	2100201c 	xori	r4,r4,128
   2142c:	213fe004 	addi	r4,r4,-128
   21430:	394eb03a 	or	r7,r7,r5
   21434:	318001c4 	addi	r6,r6,7
   21438:	203ff516 	blt	r4,zero,21410 <__alt_data_end+0xf4021410>
   2143c:	10bfffc4 	addi	r2,r2,-1
   21440:	10000e26 	beq	r2,zero,2147c <__gxx_personality_sj0+0x290>
   21444:	d8c01717 	ldw	r3,92(sp)
   21448:	0011883a 	mov	r8,zero
   2144c:	000d883a 	mov	r6,zero
   21450:	19000003 	ldbu	r4,0(r3)
   21454:	18c00044 	addi	r3,r3,1
   21458:	21401fcc 	andi	r5,r4,127
   2145c:	298a983a 	sll	r5,r5,r6
   21460:	21003fcc 	andi	r4,r4,255
   21464:	2100201c 	xori	r4,r4,128
   21468:	213fe004 	addi	r4,r4,-128
   2146c:	4150b03a 	or	r8,r8,r5
   21470:	318001c4 	addi	r6,r6,7
   21474:	203ff616 	blt	r4,zero,21450 <__alt_data_end+0xf4021450>
   21478:	003fe306 	br	21408 <__alt_data_end+0xf4021408>
   2147c:	42000044 	addi	r8,r8,1
   21480:	da001c15 	stw	r8,112(sp)
   21484:	38004f26 	beq	r7,zero,215c4 <__gxx_personality_sj0+0x3d8>
   21488:	d8800417 	ldw	r2,16(sp)
   2148c:	39ffffc4 	addi	r7,r7,-1
   21490:	11c5883a 	add	r2,r2,r7
   21494:	d8801815 	stw	r2,96(sp)
   21498:	40002e26 	beq	r8,zero,21554 <__gxx_personality_sj0+0x368>
   2149c:	10004b26 	beq	r2,zero,215cc <__gxx_personality_sj0+0x3e0>
   214a0:	d8c01a17 	ldw	r3,104(sp)
   214a4:	18c0020c 	andi	r3,r3,8
   214a8:	d8c01e15 	stw	r3,120(sp)
   214ac:	1800801e 	bne	r3,zero,216b0 <__gxx_personality_sj0+0x4c4>
   214b0:	d8801b03 	ldbu	r2,108(sp)
   214b4:	1000821e 	bne	r2,zero,216c0 <__gxx_personality_sj0+0x4d4>
   214b8:	d9002217 	ldw	r4,136(sp)
   214bc:	20800017 	ldw	r2,0(r4)
   214c0:	1080004c 	andi	r2,r2,1
   214c4:	1000821e 	bne	r2,zero,216d0 <__gxx_personality_sj0+0x4e4>
   214c8:	d9402217 	ldw	r5,136(sp)
   214cc:	28800504 	addi	r2,r5,20
   214d0:	d8800915 	stw	r2,36(sp)
   214d4:	10bff017 	ldw	r2,-64(r2)
   214d8:	d8801d15 	stw	r2,116(sp)
   214dc:	d9001b03 	ldbu	r4,108(sp)
   214e0:	d8001b45 	stb	zero,109(sp)
   214e4:	d9001f15 	stw	r4,124(sp)
   214e8:	00000e06 	br	21524 <__gxx_personality_sj0+0x338>
   214ec:	01c03d0e 	bge	zero,r7,215e4 <__gxx_personality_sj0+0x3f8>
   214f0:	017fffc4 	movi	r5,-1
   214f4:	d9400b15 	stw	r5,44(sp)
   214f8:	d809883a 	mov	r4,sp
   214fc:	380b883a 	mov	r5,r7
   21500:	0020cf40 	call	20cf4 <_ZL15get_ttype_entryP16lsda_header_infom>
   21504:	10004f26 	beq	r2,zero,21644 <__gxx_personality_sj0+0x458>
   21508:	d8c01d17 	ldw	r3,116(sp)
   2150c:	1800611e 	bne	r3,zero,21694 <__gxx_personality_sj0+0x4a8>
   21510:	d8800617 	ldw	r2,24(sp)
   21514:	10005726 	beq	r2,zero,21674 <__gxx_personality_sj0+0x488>
   21518:	d9401717 	ldw	r5,92(sp)
   2151c:	2885883a 	add	r2,r5,r2
   21520:	d8801815 	stw	r2,96(sp)
   21524:	d9001817 	ldw	r4,96(sp)
   21528:	d9400704 	addi	r5,sp,28
   2152c:	00209640 	call	20964 <_ZL12read_sleb128PKhPl>
   21530:	1009883a 	mov	r4,r2
   21534:	d9400604 	addi	r5,sp,24
   21538:	d8801715 	stw	r2,92(sp)
   2153c:	00209640 	call	20964 <_ZL12read_sleb128PKhPl>
   21540:	d9c00717 	ldw	r7,28(sp)
   21544:	383fe91e 	bne	r7,zero,214ec <__alt_data_end+0xf40214ec>
   21548:	01000044 	movi	r4,1
   2154c:	d9001b45 	stb	r4,109(sp)
   21550:	003fef06 	br	21510 <__alt_data_end+0xf4021510>
   21554:	01000204 	movi	r4,8
   21558:	d9001715 	stw	r4,92(sp)
   2155c:	003f3e06 	br	21258 <__alt_data_end+0xf4021258>
   21560:	d9001a17 	ldw	r4,104(sp)
   21564:	20c0020c 	andi	r3,r4,8
   21568:	1800021e 	bne	r3,zero,21574 <__gxx_personality_sj0+0x388>
   2156c:	d8c01b03 	ldbu	r3,108(sp)
   21570:	18001826 	beq	r3,zero,215d4 <__gxx_personality_sj0+0x3e8>
   21574:	00c00044 	movi	r3,1
   21578:	10c05926 	beq	r2,r3,216e0 <__gxx_personality_sj0+0x4f4>
   2157c:	d9401717 	ldw	r5,92(sp)
   21580:	28005816 	blt	r5,zero,216e4 <__gxx_personality_sj0+0x4f8>
   21584:	d9802217 	ldw	r6,136(sp)
   21588:	d9002317 	ldw	r4,140(sp)
   2158c:	00bfffc4 	movi	r2,-1
   21590:	000b883a 	mov	r5,zero
   21594:	d8800b15 	stw	r2,44(sp)
   21598:	00228740 	call	22874 <_Unwind_SetGR>
   2159c:	d9002317 	ldw	r4,140(sp)
   215a0:	d9801717 	ldw	r6,92(sp)
   215a4:	01400044 	movi	r5,1
   215a8:	00228740 	call	22874 <_Unwind_SetGR>
   215ac:	d9002317 	ldw	r4,140(sp)
   215b0:	d9401c17 	ldw	r5,112(sp)
   215b4:	00228c00 	call	228c0 <_Unwind_SetIP>
   215b8:	010001c4 	movi	r4,7
   215bc:	d9001715 	stw	r4,92(sp)
   215c0:	003f2506 	br	21258 <__alt_data_end+0xf4021258>
   215c4:	d8c01c17 	ldw	r3,112(sp)
   215c8:	183fe226 	beq	r3,zero,21554 <__alt_data_end+0xf4021554>
   215cc:	00800084 	movi	r2,2
   215d0:	003f5206 	br	2131c <__alt_data_end+0xf402131c>
   215d4:	00c00044 	movi	r3,1
   215d8:	10ff791e 	bne	r2,r3,213c0 <__alt_data_end+0xf40213c0>
   215dc:	d9002217 	ldw	r4,136(sp)
   215e0:	002219c0 	call	2219c <__cxa_call_terminate>
   215e4:	d9001d17 	ldw	r4,116(sp)
   215e8:	20000426 	beq	r4,zero,215fc <__gxx_personality_sj0+0x410>
   215ec:	d9401e17 	ldw	r5,120(sp)
   215f0:	2800021e 	bne	r5,zero,215fc <__gxx_personality_sj0+0x410>
   215f4:	d8801f17 	ldw	r2,124(sp)
   215f8:	10001626 	beq	r2,zero,21654 <__gxx_personality_sj0+0x468>
   215fc:	d8c00317 	ldw	r3,12(sp)
   21600:	01ce303a 	nor	r7,zero,r7
   21604:	000d883a 	mov	r6,zero
   21608:	19c7883a 	add	r3,r3,r7
   2160c:	000b883a 	mov	r5,zero
   21610:	18800003 	ldbu	r2,0(r3)
   21614:	18c00044 	addi	r3,r3,1
   21618:	11001fcc 	andi	r4,r2,127
   2161c:	2148983a 	sll	r4,r4,r5
   21620:	10803fcc 	andi	r2,r2,255
   21624:	1080201c 	xori	r2,r2,128
   21628:	10bfe004 	addi	r2,r2,-128
   2162c:	310cb03a 	or	r6,r6,r4
   21630:	294001c4 	addi	r5,r5,7
   21634:	103ff616 	blt	r2,zero,21610 <__alt_data_end+0xf4021610>
   21638:	3005003a 	cmpeq	r2,r6,zero
   2163c:	10803fcc 	andi	r2,r2,255
   21640:	103fb326 	beq	r2,zero,21510 <__alt_data_end+0xf4021510>
   21644:	d8800717 	ldw	r2,28(sp)
   21648:	d8801715 	stw	r2,92(sp)
   2164c:	008000c4 	movi	r2,3
   21650:	003f3406 	br	21324 <__alt_data_end+0xf4021324>
   21654:	d9401d17 	ldw	r5,116(sp)
   21658:	d9800917 	ldw	r6,36(sp)
   2165c:	00ffffc4 	movi	r3,-1
   21660:	d809883a 	mov	r4,sp
   21664:	d8c00b15 	stw	r3,44(sp)
   21668:	0020d480 	call	20d48 <_ZL20check_exception_specP16lsda_header_infoPKSt9type_infoPvl>
   2166c:	1080005c 	xori	r2,r2,1
   21670:	003ff206 	br	2163c <__alt_data_end+0xf402163c>
   21674:	d8801b43 	ldbu	r2,109(sp)
   21678:	103fb626 	beq	r2,zero,21554 <__alt_data_end+0xf4021554>
   2167c:	d8001715 	stw	zero,92(sp)
   21680:	00800084 	movi	r2,2
   21684:	003f2706 	br	21324 <__alt_data_end+0xf4021324>
   21688:	00800184 	movi	r2,6
   2168c:	d8801715 	stw	r2,92(sp)
   21690:	003ef106 	br	21258 <__alt_data_end+0xf4021258>
   21694:	1009883a 	mov	r4,r2
   21698:	180b883a 	mov	r5,r3
   2169c:	d9800904 	addi	r6,sp,36
   216a0:	00209bc0 	call	209bc <_ZL16get_adjusted_ptrPKSt9type_infoS1_PPv>
   216a4:	10803fcc 	andi	r2,r2,255
   216a8:	103fe61e 	bne	r2,zero,21644 <__alt_data_end+0xf4021644>
   216ac:	003f9806 	br	21510 <__alt_data_end+0xf4021510>
   216b0:	00820034 	movhi	r2,2048
   216b4:	1083c704 	addi	r2,r2,3868
   216b8:	d8801d15 	stw	r2,116(sp)
   216bc:	003f8706 	br	214dc <__alt_data_end+0xf40214dc>
   216c0:	00c20034 	movhi	r3,2048
   216c4:	18c3c904 	addi	r3,r3,3876
   216c8:	d8c01d15 	stw	r3,116(sp)
   216cc:	003f8306 	br	214dc <__alt_data_end+0xf40214dc>
   216d0:	20bff517 	ldw	r2,-44(r4)
   216d4:	003f7e06 	br	214d0 <__alt_data_end+0xf40214d0>
   216d8:	d9000c17 	ldw	r4,48(sp)
   216dc:	00220180 	call	22018 <__cxa_begin_catch>
   216e0:	0021cc40 	call	21cc4 <_ZSt9terminatev>
   216e4:	d8c00b15 	stw	r3,44(sp)
   216e8:	0021cec0 	call	21cec <_ZSt10unexpectedv>

000216ec <__cxa_call_unexpected>:
   216ec:	008000b4 	movhi	r2,2
   216f0:	deffe604 	addi	sp,sp,-104
   216f4:	10847b04 	addi	r2,r2,4588
   216f8:	d8800d15 	stw	r2,52(sp)
   216fc:	008000f4 	movhi	r2,3
   21700:	10a8b804 	addi	r2,r2,-23840
   21704:	d8800e15 	stw	r2,56(sp)
   21708:	d8800104 	addi	r2,sp,4
   2170c:	d8800f15 	stw	r2,60(sp)
   21710:	008000b4 	movhi	r2,2
   21714:	1085de04 	addi	r2,r2,6008
   21718:	d9001415 	stw	r4,80(sp)
   2171c:	d9000704 	addi	r4,sp,28
   21720:	dfc01915 	stw	ra,100(sp)
   21724:	d8801015 	stw	r2,64(sp)
   21728:	df001815 	stw	fp,96(sp)
   2172c:	dec01115 	stw	sp,68(sp)
   21730:	00228140 	call	22814 <_Unwind_SjLj_Register>
   21734:	d9001417 	ldw	r4,80(sp)
   21738:	00220180 	call	22018 <__cxa_begin_catch>
   2173c:	d8c01417 	ldw	r3,80(sp)
   21740:	18bffe17 	ldw	r2,-8(r3)
   21744:	193ff717 	ldw	r4,-36(r3)
   21748:	18fffd17 	ldw	r3,-12(r3)
   2174c:	d8800315 	stw	r2,12(sp)
   21750:	d8c01615 	stw	r3,88(sp)
   21754:	d8c01417 	ldw	r3,80(sp)
   21758:	18fffb17 	ldw	r3,-20(r3)
   2175c:	d8c01515 	stw	r3,84(sp)
   21760:	d8c01417 	ldw	r3,80(sp)
   21764:	18fff817 	ldw	r3,-32(r3)
   21768:	d8c01415 	stw	r3,80(sp)
   2176c:	00c00044 	movi	r3,1
   21770:	d8c00815 	stw	r3,32(sp)
   21774:	0021cdc0 	call	21cdc <_ZN10__cxxabiv112__unexpectedEPFvvE>
   21778:	d8c00917 	ldw	r3,36(sp)
   2177c:	d8800817 	ldw	r2,32(sp)
   21780:	d8c01715 	stw	r3,92(sp)
   21784:	10000a26 	beq	r2,zero,217b0 <__cxa_call_unexpected+0xc4>
   21788:	10bfffc4 	addi	r2,r2,-1
   2178c:	10000126 	beq	r2,zero,21794 <__cxa_call_unexpected+0xa8>
   21790:	003da0fa 	break	3
   21794:	d8000815 	stw	zero,32(sp)
   21798:	00220cc0 	call	220cc <__cxa_end_catch>
   2179c:	00220cc0 	call	220cc <__cxa_end_catch>
   217a0:	d9001717 	ldw	r4,92(sp)
   217a4:	00bfffc4 	movi	r2,-1
   217a8:	d8800815 	stw	r2,32(sp)
   217ac:	0022a100 	call	22a10 <_Unwind_SjLj_Resume>
   217b0:	d9001717 	ldw	r4,92(sp)
   217b4:	00220180 	call	22018 <__cxa_begin_catch>
   217b8:	00219200 	call	21920 <__cxa_get_globals_fast>
   217bc:	10800017 	ldw	r2,0(r2)
   217c0:	10c00b17 	ldw	r3,44(r2)
   217c4:	18c0004c 	andi	r3,r3,1
   217c8:	18001e26 	beq	r3,zero,21844 <__cxa_call_unexpected+0x158>
   217cc:	10800017 	ldw	r2,0(r2)
   217d0:	d8801715 	stw	r2,92(sp)
   217d4:	d8801517 	ldw	r2,84(sp)
   217d8:	00802b0e 	bge	zero,r2,21888 <__cxa_call_unexpected+0x19c>
   217dc:	d8c01717 	ldw	r3,92(sp)
   217e0:	d8800317 	ldw	r2,12(sp)
   217e4:	d9801617 	ldw	r6,88(sp)
   217e8:	193ff017 	ldw	r4,-64(r3)
   217ec:	d9c01517 	ldw	r7,84(sp)
   217f0:	d8800015 	stw	r2,0(sp)
   217f4:	180b883a 	mov	r5,r3
   217f8:	00800084 	movi	r2,2
   217fc:	d8800815 	stw	r2,32(sp)
   21800:	0020e780 	call	20e78 <_ZL28check_compact_exception_specPKSt9type_infoPvPKhij>
   21804:	10803fcc 	andi	r2,r2,255
   21808:	10001e1e 	bne	r2,zero,21884 <__cxa_call_unexpected+0x198>
   2180c:	d8800317 	ldw	r2,12(sp)
   21810:	d9801617 	ldw	r6,88(sp)
   21814:	d9c01517 	ldw	r7,84(sp)
   21818:	01020034 	movhi	r4,2048
   2181c:	d8800015 	stw	r2,0(sp)
   21820:	21011604 	addi	r4,r4,1112
   21824:	00800084 	movi	r2,2
   21828:	000b883a 	mov	r5,zero
   2182c:	d8800815 	stw	r2,32(sp)
   21830:	0020e780 	call	20e78 <_ZL28check_compact_exception_specPKSt9type_infoPvPKhij>
   21834:	10803fcc 	andi	r2,r2,255
   21838:	1000051e 	bne	r2,zero,21850 <__cxa_call_unexpected+0x164>
   2183c:	d9001417 	ldw	r4,80(sp)
   21840:	0021c040 	call	21c04 <_ZN10__cxxabiv111__terminateEPFvvE>
   21844:	10801004 	addi	r2,r2,64
   21848:	d8801715 	stw	r2,92(sp)
   2184c:	003fe106 	br	217d4 <__alt_data_end+0xf40217d4>
   21850:	01000104 	movi	r4,4
   21854:	00223b00 	call	223b0 <__cxa_allocate_exception>
   21858:	00c20034 	movhi	r3,2048
   2185c:	18c13104 	addi	r3,r3,1220
   21860:	01420034 	movhi	r5,2048
   21864:	018000b4 	movhi	r6,2
   21868:	10c00015 	stw	r3,0(r2)
   2186c:	29411604 	addi	r5,r5,1112
   21870:	00c00084 	movi	r3,2
   21874:	31895c04 	addi	r6,r6,9584
   21878:	1009883a 	mov	r4,r2
   2187c:	d8c00815 	stw	r3,32(sp)
   21880:	00222380 	call	22238 <__cxa_throw>
   21884:	00222c80 	call	222c8 <__cxa_rethrow>
   21888:	d9401617 	ldw	r5,88(sp)
   2188c:	00800084 	movi	r2,2
   21890:	0009883a 	mov	r4,zero
   21894:	d9800104 	addi	r6,sp,4
   21898:	d8800815 	stw	r2,32(sp)
   2189c:	00210b80 	call	210b8 <_ZL17parse_lsda_headerP15_Unwind_ContextPKhP16lsda_header_info>
   218a0:	d8801717 	ldw	r2,92(sp)
   218a4:	d9c01517 	ldw	r7,84(sp)
   218a8:	d9000104 	addi	r4,sp,4
   218ac:	117ff017 	ldw	r5,-64(r2)
   218b0:	100d883a 	mov	r6,r2
   218b4:	0020d480 	call	20d48 <_ZL20check_exception_specP16lsda_header_infoPKSt9type_infoPvl>
   218b8:	10803fcc 	andi	r2,r2,255
   218bc:	1000171e 	bne	r2,zero,2191c <__cxa_call_unexpected+0x230>
   218c0:	d9c01517 	ldw	r7,84(sp)
   218c4:	01420034 	movhi	r5,2048
   218c8:	00800084 	movi	r2,2
   218cc:	29411604 	addi	r5,r5,1112
   218d0:	d9000104 	addi	r4,sp,4
   218d4:	000d883a 	mov	r6,zero
   218d8:	d8800815 	stw	r2,32(sp)
   218dc:	0020d480 	call	20d48 <_ZL20check_exception_specP16lsda_header_infoPKSt9type_infoPvl>
   218e0:	10803fcc 	andi	r2,r2,255
   218e4:	103fd526 	beq	r2,zero,2183c <__alt_data_end+0xf402183c>
   218e8:	01000104 	movi	r4,4
   218ec:	00223b00 	call	223b0 <__cxa_allocate_exception>
   218f0:	00c20034 	movhi	r3,2048
   218f4:	18c13104 	addi	r3,r3,1220
   218f8:	01420034 	movhi	r5,2048
   218fc:	018000b4 	movhi	r6,2
   21900:	10c00015 	stw	r3,0(r2)
   21904:	29411604 	addi	r5,r5,1112
   21908:	00c00084 	movi	r3,2
   2190c:	31895c04 	addi	r6,r6,9584
   21910:	1009883a 	mov	r4,r2
   21914:	d8c00815 	stw	r3,32(sp)
   21918:	00222380 	call	22238 <__cxa_throw>
   2191c:	00222c80 	call	222c8 <__cxa_rethrow>

00021920 <__cxa_get_globals_fast>:
   21920:	00820034 	movhi	r2,2048
   21924:	1083dc04 	addi	r2,r2,3952
   21928:	f800283a 	ret

0002192c <__cxa_get_globals>:
   2192c:	00820034 	movhi	r2,2048
   21930:	1083dc04 	addi	r2,r2,3952
   21934:	f800283a 	ret

00021938 <_ZNK10__cxxabiv117__class_type_info11__do_upcastEPKS0_PPv>:
   21938:	20800017 	ldw	r2,0(r4)
   2193c:	defffa04 	addi	sp,sp,-24
   21940:	dc000415 	stw	r16,16(sp)
   21944:	10800617 	ldw	r2,24(r2)
   21948:	3021883a 	mov	r16,r6
   2194c:	31800017 	ldw	r6,0(r6)
   21950:	00c00404 	movi	r3,16
   21954:	d8c00215 	stw	r3,8(sp)
   21958:	dfc00515 	stw	ra,20(sp)
   2195c:	d8000015 	stw	zero,0(sp)
   21960:	d8000115 	stw	zero,4(sp)
   21964:	d8000315 	stw	zero,12(sp)
   21968:	d80f883a 	mov	r7,sp
   2196c:	103ee83a 	callr	r2
   21970:	d8800117 	ldw	r2,4(sp)
   21974:	00c00184 	movi	r3,6
   21978:	1080018c 	andi	r2,r2,6
   2197c:	10c00526 	beq	r2,r3,21994 <_ZNK10__cxxabiv117__class_type_info11__do_upcastEPKS0_PPv+0x5c>
   21980:	0005883a 	mov	r2,zero
   21984:	dfc00517 	ldw	ra,20(sp)
   21988:	dc000417 	ldw	r16,16(sp)
   2198c:	dec00604 	addi	sp,sp,24
   21990:	f800283a 	ret
   21994:	d8c00017 	ldw	r3,0(sp)
   21998:	00800044 	movi	r2,1
   2199c:	80c00015 	stw	r3,0(r16)
   219a0:	dfc00517 	ldw	ra,20(sp)
   219a4:	dc000417 	ldw	r16,16(sp)
   219a8:	dec00604 	addi	sp,sp,24
   219ac:	f800283a 	ret

000219b0 <_ZNK10__cxxabiv117__class_type_info20__do_find_public_srcEiPKvPKS0_S2_>:
   219b0:	d8800017 	ldw	r2,0(sp)
   219b4:	11800226 	beq	r2,r6,219c0 <_ZNK10__cxxabiv117__class_type_info20__do_find_public_srcEiPKvPKS0_S2_+0x10>
   219b8:	00800044 	movi	r2,1
   219bc:	f800283a 	ret
   219c0:	00800184 	movi	r2,6
   219c4:	f800283a 	ret

000219c8 <_ZN10__cxxabiv117__class_type_infoD1Ev>:
   219c8:	00820034 	movhi	r2,2048
   219cc:	1080d704 	addi	r2,r2,860
   219d0:	20800015 	stw	r2,0(r4)
   219d4:	002234c1 	jmpi	2234c <_ZNSt9type_infoD1Ev>

000219d8 <_ZN10__cxxabiv117__class_type_infoD0Ev>:
   219d8:	defffe04 	addi	sp,sp,-8
   219dc:	00820034 	movhi	r2,2048
   219e0:	dc000015 	stw	r16,0(sp)
   219e4:	dfc00115 	stw	ra,4(sp)
   219e8:	1080d704 	addi	r2,r2,860
   219ec:	20800015 	stw	r2,0(r4)
   219f0:	2021883a 	mov	r16,r4
   219f4:	002234c0 	call	2234c <_ZNSt9type_infoD1Ev>
   219f8:	8009883a 	mov	r4,r16
   219fc:	dfc00117 	ldw	ra,4(sp)
   21a00:	dc000017 	ldw	r16,0(sp)
   21a04:	dec00204 	addi	sp,sp,8
   21a08:	0021c001 	jmpi	21c00 <_ZdlPv>

00021a0c <_ZNK10__cxxabiv117__class_type_info11__do_upcastEPKS0_PKvRNS0_15__upcast_resultE>:
   21a0c:	21000117 	ldw	r4,4(r4)
   21a10:	29400117 	ldw	r5,4(r5)
   21a14:	defffd04 	addi	sp,sp,-12
   21a18:	dc400115 	stw	r17,4(sp)
   21a1c:	dc000015 	stw	r16,0(sp)
   21a20:	dfc00215 	stw	ra,8(sp)
   21a24:	3023883a 	mov	r17,r6
   21a28:	3821883a 	mov	r16,r7
   21a2c:	21400b26 	beq	r4,r5,21a5c <_ZNK10__cxxabiv117__class_type_info11__do_upcastEPKS0_PKvRNS0_15__upcast_resultE+0x50>
   21a30:	20c00007 	ldb	r3,0(r4)
   21a34:	00800a84 	movi	r2,42
   21a38:	18800226 	beq	r3,r2,21a44 <_ZNK10__cxxabiv117__class_type_info11__do_upcastEPKS0_PKvRNS0_15__upcast_resultE+0x38>
   21a3c:	00236840 	call	23684 <strcmp>
   21a40:	10000626 	beq	r2,zero,21a5c <_ZNK10__cxxabiv117__class_type_info11__do_upcastEPKS0_PKvRNS0_15__upcast_resultE+0x50>
   21a44:	0005883a 	mov	r2,zero
   21a48:	dfc00217 	ldw	ra,8(sp)
   21a4c:	dc400117 	ldw	r17,4(sp)
   21a50:	dc000017 	ldw	r16,0(sp)
   21a54:	dec00304 	addi	sp,sp,12
   21a58:	f800283a 	ret
   21a5c:	00800204 	movi	r2,8
   21a60:	80800315 	stw	r2,12(r16)
   21a64:	00800184 	movi	r2,6
   21a68:	80800115 	stw	r2,4(r16)
   21a6c:	84400015 	stw	r17,0(r16)
   21a70:	00800044 	movi	r2,1
   21a74:	003ff406 	br	21a48 <__alt_data_end+0xf4021a48>

00021a78 <_ZNK10__cxxabiv117__class_type_info10__do_catchEPKSt9type_infoPPvj>:
   21a78:	20800117 	ldw	r2,4(r4)
   21a7c:	28c00117 	ldw	r3,4(r5)
   21a80:	10c02926 	beq	r2,r3,21b28 <_ZNK10__cxxabiv117__class_type_info10__do_catchEPKSt9type_infoPPvj+0xb0>
   21a84:	defffb04 	addi	sp,sp,-20
   21a88:	dcc00315 	stw	r19,12(sp)
   21a8c:	dc800215 	stw	r18,8(sp)
   21a90:	dc400115 	stw	r17,4(sp)
   21a94:	dc000015 	stw	r16,0(sp)
   21a98:	dfc00415 	stw	ra,16(sp)
   21a9c:	2821883a 	mov	r16,r5
   21aa0:	11400007 	ldb	r5,0(r2)
   21aa4:	2025883a 	mov	r18,r4
   21aa8:	01000a84 	movi	r4,42
   21aac:	3823883a 	mov	r17,r7
   21ab0:	3027883a 	mov	r19,r6
   21ab4:	29000426 	beq	r5,r4,21ac8 <_ZNK10__cxxabiv117__class_type_info10__do_catchEPKSt9type_infoPPvj+0x50>
   21ab8:	1009883a 	mov	r4,r2
   21abc:	180b883a 	mov	r5,r3
   21ac0:	00236840 	call	23684 <strcmp>
   21ac4:	10000a26 	beq	r2,zero,21af0 <_ZNK10__cxxabiv117__class_type_info10__do_catchEPKSt9type_infoPPvj+0x78>
   21ac8:	008000c4 	movi	r2,3
   21acc:	14400a2e 	bgeu	r2,r17,21af8 <_ZNK10__cxxabiv117__class_type_info10__do_catchEPKSt9type_infoPPvj+0x80>
   21ad0:	0005883a 	mov	r2,zero
   21ad4:	dfc00417 	ldw	ra,16(sp)
   21ad8:	dcc00317 	ldw	r19,12(sp)
   21adc:	dc800217 	ldw	r18,8(sp)
   21ae0:	dc400117 	ldw	r17,4(sp)
   21ae4:	dc000017 	ldw	r16,0(sp)
   21ae8:	dec00504 	addi	sp,sp,20
   21aec:	f800283a 	ret
   21af0:	00800044 	movi	r2,1
   21af4:	003ff706 	br	21ad4 <__alt_data_end+0xf4021ad4>
   21af8:	80800017 	ldw	r2,0(r16)
   21afc:	8009883a 	mov	r4,r16
   21b00:	900b883a 	mov	r5,r18
   21b04:	10800517 	ldw	r2,20(r2)
   21b08:	980d883a 	mov	r6,r19
   21b0c:	dfc00417 	ldw	ra,16(sp)
   21b10:	dcc00317 	ldw	r19,12(sp)
   21b14:	dc800217 	ldw	r18,8(sp)
   21b18:	dc400117 	ldw	r17,4(sp)
   21b1c:	dc000017 	ldw	r16,0(sp)
   21b20:	dec00504 	addi	sp,sp,20
   21b24:	1000683a 	jmp	r2
   21b28:	00800044 	movi	r2,1
   21b2c:	f800283a 	ret

00021b30 <_ZNK10__cxxabiv117__class_type_info12__do_dyncastEiNS0_10__sub_kindEPKS0_PKvS3_S5_RNS0_16__dyncast_resultE>:
   21b30:	defffb04 	addi	sp,sp,-20
   21b34:	dc400315 	stw	r17,12(sp)
   21b38:	d8800717 	ldw	r2,28(sp)
   21b3c:	dc400517 	ldw	r17,20(sp)
   21b40:	dc000215 	stw	r16,8(sp)
   21b44:	dfc00415 	stw	ra,16(sp)
   21b48:	24000117 	ldw	r16,4(r4)
   21b4c:	88801026 	beq	r17,r2,21b90 <_ZNK10__cxxabiv117__class_type_info12__do_dyncastEiNS0_10__sub_kindEPKS0_PKvS3_S5_RNS0_16__dyncast_resultE+0x60>
   21b50:	39400117 	ldw	r5,4(r7)
   21b54:	81401d26 	beq	r16,r5,21bcc <_ZNK10__cxxabiv117__class_type_info12__do_dyncastEiNS0_10__sub_kindEPKS0_PKvS3_S5_RNS0_16__dyncast_resultE+0x9c>
   21b58:	80c00007 	ldb	r3,0(r16)
   21b5c:	00800a84 	movi	r2,42
   21b60:	18800526 	beq	r3,r2,21b78 <_ZNK10__cxxabiv117__class_type_info12__do_dyncastEiNS0_10__sub_kindEPKS0_PKvS3_S5_RNS0_16__dyncast_resultE+0x48>
   21b64:	8009883a 	mov	r4,r16
   21b68:	d9800115 	stw	r6,4(sp)
   21b6c:	00236840 	call	23684 <strcmp>
   21b70:	d9800117 	ldw	r6,4(sp)
   21b74:	10001526 	beq	r2,zero,21bcc <_ZNK10__cxxabiv117__class_type_info12__do_dyncastEiNS0_10__sub_kindEPKS0_PKvS3_S5_RNS0_16__dyncast_resultE+0x9c>
   21b78:	0005883a 	mov	r2,zero
   21b7c:	dfc00417 	ldw	ra,16(sp)
   21b80:	dc400317 	ldw	r17,12(sp)
   21b84:	dc000217 	ldw	r16,8(sp)
   21b88:	dec00504 	addi	sp,sp,20
   21b8c:	f800283a 	ret
   21b90:	d8800617 	ldw	r2,24(sp)
   21b94:	11400117 	ldw	r5,4(r2)
   21b98:	81401326 	beq	r16,r5,21be8 <_ZNK10__cxxabiv117__class_type_info12__do_dyncastEiNS0_10__sub_kindEPKS0_PKvS3_S5_RNS0_16__dyncast_resultE+0xb8>
   21b9c:	80c00007 	ldb	r3,0(r16)
   21ba0:	00800a84 	movi	r2,42
   21ba4:	18801326 	beq	r3,r2,21bf4 <_ZNK10__cxxabiv117__class_type_info12__do_dyncastEiNS0_10__sub_kindEPKS0_PKvS3_S5_RNS0_16__dyncast_resultE+0xc4>
   21ba8:	8009883a 	mov	r4,r16
   21bac:	d9800115 	stw	r6,4(sp)
   21bb0:	d9c00015 	stw	r7,0(sp)
   21bb4:	00236840 	call	23684 <strcmp>
   21bb8:	d9800117 	ldw	r6,4(sp)
   21bbc:	d9c00017 	ldw	r7,0(sp)
   21bc0:	10000926 	beq	r2,zero,21be8 <_ZNK10__cxxabiv117__class_type_info12__do_dyncastEiNS0_10__sub_kindEPKS0_PKvS3_S5_RNS0_16__dyncast_resultE+0xb8>
   21bc4:	39400117 	ldw	r5,4(r7)
   21bc8:	817fe61e 	bne	r16,r5,21b64 <__alt_data_end+0xf4021b64>
   21bcc:	d8800817 	ldw	r2,32(sp)
   21bd0:	d8c00817 	ldw	r3,32(sp)
   21bd4:	14400015 	stw	r17,0(r2)
   21bd8:	11800115 	stw	r6,4(r2)
   21bdc:	00800044 	movi	r2,1
   21be0:	18800315 	stw	r2,12(r3)
   21be4:	003fe406 	br	21b78 <__alt_data_end+0xf4021b78>
   21be8:	d8800817 	ldw	r2,32(sp)
   21bec:	11800215 	stw	r6,8(r2)
   21bf0:	003fe106 	br	21b78 <__alt_data_end+0xf4021b78>
   21bf4:	38800117 	ldw	r2,4(r7)
   21bf8:	80bfdf1e 	bne	r16,r2,21b78 <__alt_data_end+0xf4021b78>
   21bfc:	003ff306 	br	21bcc <__alt_data_end+0xf4021bcc>

00021c00 <_ZdlPv>:
   21c00:	0022b581 	jmpi	22b58 <free>

00021c04 <_ZN10__cxxabiv111__terminateEPFvvE>:
   21c04:	008000b4 	movhi	r2,2
   21c08:	deffef04 	addi	sp,sp,-68
   21c0c:	10847b04 	addi	r2,r2,4588
   21c10:	d8800615 	stw	r2,24(sp)
   21c14:	008000f4 	movhi	r2,3
   21c18:	10a8bc04 	addi	r2,r2,-23824
   21c1c:	d8800715 	stw	r2,28(sp)
   21c20:	008000b4 	movhi	r2,2
   21c24:	10871704 	addi	r2,r2,7260
   21c28:	d9000d15 	stw	r4,52(sp)
   21c2c:	d809883a 	mov	r4,sp
   21c30:	d8800915 	stw	r2,36(sp)
   21c34:	dfc01015 	stw	ra,64(sp)
   21c38:	df000f15 	stw	fp,60(sp)
   21c3c:	dec00815 	stw	sp,32(sp)
   21c40:	dec00a15 	stw	sp,40(sp)
   21c44:	00228140 	call	22814 <_Unwind_SjLj_Register>
   21c48:	00800044 	movi	r2,1
   21c4c:	d8800115 	stw	r2,4(sp)
   21c50:	d8800d17 	ldw	r2,52(sp)
   21c54:	103ee83a 	callr	r2
   21c58:	0022b2c0 	call	22b2c <abort>
   21c5c:	d8c00217 	ldw	r3,8(sp)
   21c60:	d8800117 	ldw	r2,4(sp)
   21c64:	d8c00d15 	stw	r3,52(sp)
   21c68:	d8c00317 	ldw	r3,12(sp)
   21c6c:	d8c00e15 	stw	r3,56(sp)
   21c70:	10000b26 	beq	r2,zero,21ca0 <_ZN10__cxxabiv111__terminateEPFvvE+0x9c>
   21c74:	10bfffc4 	addi	r2,r2,-1
   21c78:	10000126 	beq	r2,zero,21c80 <_ZN10__cxxabiv111__terminateEPFvvE+0x7c>
   21c7c:	003da0fa 	break	3
   21c80:	d8000115 	stw	zero,4(sp)
   21c84:	00220cc0 	call	220cc <__cxa_end_catch>
   21c88:	d8c00e17 	ldw	r3,56(sp)
   21c8c:	00bfffc4 	movi	r2,-1
   21c90:	18800826 	beq	r3,r2,21cb4 <_ZN10__cxxabiv111__terminateEPFvvE+0xb0>
   21c94:	d9000d17 	ldw	r4,52(sp)
   21c98:	d8800115 	stw	r2,4(sp)
   21c9c:	0022a100 	call	22a10 <_Unwind_SjLj_Resume>
   21ca0:	d9000d17 	ldw	r4,52(sp)
   21ca4:	00220180 	call	22018 <__cxa_begin_catch>
   21ca8:	00800084 	movi	r2,2
   21cac:	d8800115 	stw	r2,4(sp)
   21cb0:	0022b2c0 	call	22b2c <abort>
   21cb4:	d8800e17 	ldw	r2,56(sp)
   21cb8:	d9000d17 	ldw	r4,52(sp)
   21cbc:	d8800115 	stw	r2,4(sp)
   21cc0:	00216ec0 	call	216ec <__cxa_call_unexpected>

00021cc4 <_ZSt9terminatev>:
   21cc4:	00820034 	movhi	r2,2048
   21cc8:	1083c204 	addi	r2,r2,3848
   21ccc:	11000017 	ldw	r4,0(r2)
   21cd0:	deffff04 	addi	sp,sp,-4
   21cd4:	dfc00015 	stw	ra,0(sp)
   21cd8:	0021c040 	call	21c04 <_ZN10__cxxabiv111__terminateEPFvvE>

00021cdc <_ZN10__cxxabiv112__unexpectedEPFvvE>:
   21cdc:	deffff04 	addi	sp,sp,-4
   21ce0:	dfc00015 	stw	ra,0(sp)
   21ce4:	203ee83a 	callr	r4
   21ce8:	0021cc40 	call	21cc4 <_ZSt9terminatev>

00021cec <_ZSt10unexpectedv>:
   21cec:	00820034 	movhi	r2,2048
   21cf0:	1083cb04 	addi	r2,r2,3884
   21cf4:	11000017 	ldw	r4,0(r2)
   21cf8:	deffff04 	addi	sp,sp,-4
   21cfc:	dfc00015 	stw	ra,0(sp)
   21d00:	0021cdc0 	call	21cdc <_ZN10__cxxabiv112__unexpectedEPFvvE>

00021d04 <_ZSt13set_terminatePFvvE>:
   21d04:	00c20034 	movhi	r3,2048
   21d08:	18c3c204 	addi	r3,r3,3848
   21d0c:	18800017 	ldw	r2,0(r3)
   21d10:	19000015 	stw	r4,0(r3)
   21d14:	f800283a 	ret

00021d18 <_ZSt13get_terminatev>:
   21d18:	00820034 	movhi	r2,2048
   21d1c:	1083c204 	addi	r2,r2,3848
   21d20:	10800017 	ldw	r2,0(r2)
   21d24:	f800283a 	ret

00021d28 <_ZSt14set_unexpectedPFvvE>:
   21d28:	00c20034 	movhi	r3,2048
   21d2c:	18c3cb04 	addi	r3,r3,3884
   21d30:	18800017 	ldw	r2,0(r3)
   21d34:	19000015 	stw	r4,0(r3)
   21d38:	f800283a 	ret

00021d3c <_ZSt14get_unexpectedv>:
   21d3c:	00820034 	movhi	r2,2048
   21d40:	1083cb04 	addi	r2,r2,3884
   21d44:	10800017 	ldw	r2,0(r2)
   21d48:	f800283a 	ret

00021d4c <_ZN10__cxxabiv120__si_class_type_infoD1Ev>:
   21d4c:	00820034 	movhi	r2,2048
   21d50:	1080ef04 	addi	r2,r2,956
   21d54:	20800015 	stw	r2,0(r4)
   21d58:	00219c81 	jmpi	219c8 <_ZN10__cxxabiv117__class_type_infoD1Ev>

00021d5c <_ZN10__cxxabiv120__si_class_type_infoD0Ev>:
   21d5c:	defffe04 	addi	sp,sp,-8
   21d60:	00820034 	movhi	r2,2048
   21d64:	dc000015 	stw	r16,0(sp)
   21d68:	dfc00115 	stw	ra,4(sp)
   21d6c:	1080ef04 	addi	r2,r2,956
   21d70:	20800015 	stw	r2,0(r4)
   21d74:	2021883a 	mov	r16,r4
   21d78:	00219c80 	call	219c8 <_ZN10__cxxabiv117__class_type_infoD1Ev>
   21d7c:	8009883a 	mov	r4,r16
   21d80:	dfc00117 	ldw	ra,4(sp)
   21d84:	dc000017 	ldw	r16,0(sp)
   21d88:	dec00204 	addi	sp,sp,8
   21d8c:	0021c001 	jmpi	21c00 <_ZdlPv>

00021d90 <_ZNK10__cxxabiv120__si_class_type_info12__do_dyncastEiNS_17__class_type_info10__sub_kindEPKS1_PKvS4_S6_RNS1_16__dyncast_resultE>:
   21d90:	defff504 	addi	sp,sp,-44
   21d94:	dc000115 	stw	r16,4(sp)
   21d98:	38800117 	ldw	r2,4(r7)
   21d9c:	24000117 	ldw	r16,4(r4)
   21da0:	ddc00815 	stw	r23,32(sp)
   21da4:	dd800715 	stw	r22,28(sp)
   21da8:	dd400615 	stw	r21,24(sp)
   21dac:	dd000515 	stw	r20,20(sp)
   21db0:	dcc00415 	stw	r19,16(sp)
   21db4:	dc800315 	stw	r18,12(sp)
   21db8:	dc400215 	stw	r17,8(sp)
   21dbc:	dfc00a15 	stw	ra,40(sp)
   21dc0:	df000915 	stw	fp,36(sp)
   21dc4:	202b883a 	mov	r21,r4
   21dc8:	382d883a 	mov	r22,r7
   21dcc:	2823883a 	mov	r17,r5
   21dd0:	dc800b17 	ldw	r18,44(sp)
   21dd4:	ddc00c17 	ldw	r23,48(sp)
   21dd8:	dd000d17 	ldw	r20,52(sp)
   21ddc:	dcc00e17 	ldw	r19,56(sp)
   21de0:	80801f26 	beq	r16,r2,21e60 <_ZNK10__cxxabiv120__si_class_type_info12__do_dyncastEiNS_17__class_type_info10__sub_kindEPKS1_PKvS4_S6_RNS1_16__dyncast_resultE+0xd0>
   21de4:	87000007 	ldb	fp,0(r16)
   21de8:	00c00a84 	movi	r3,42
   21dec:	e0c00626 	beq	fp,r3,21e08 <_ZNK10__cxxabiv120__si_class_type_info12__do_dyncastEiNS_17__class_type_info10__sub_kindEPKS1_PKvS4_S6_RNS1_16__dyncast_resultE+0x78>
   21df0:	8009883a 	mov	r4,r16
   21df4:	100b883a 	mov	r5,r2
   21df8:	d9800015 	stw	r6,0(sp)
   21dfc:	00236840 	call	23684 <strcmp>
   21e00:	d9800017 	ldw	r6,0(sp)
   21e04:	10001626 	beq	r2,zero,21e60 <_ZNK10__cxxabiv120__si_class_type_info12__do_dyncastEiNS_17__class_type_info10__sub_kindEPKS1_PKvS4_S6_RNS1_16__dyncast_resultE+0xd0>
   21e08:	95002c26 	beq	r18,r20,21ebc <_ZNK10__cxxabiv120__si_class_type_info12__do_dyncastEiNS_17__class_type_info10__sub_kindEPKS1_PKvS4_S6_RNS1_16__dyncast_resultE+0x12c>
   21e0c:	a9000217 	ldw	r4,8(r21)
   21e10:	880b883a 	mov	r5,r17
   21e14:	b00f883a 	mov	r7,r22
   21e18:	20800017 	ldw	r2,0(r4)
   21e1c:	dc800b15 	stw	r18,44(sp)
   21e20:	ddc00c15 	stw	r23,48(sp)
   21e24:	dd000d15 	stw	r20,52(sp)
   21e28:	dcc00e15 	stw	r19,56(sp)
   21e2c:	10800717 	ldw	r2,28(r2)
   21e30:	dfc00a17 	ldw	ra,40(sp)
   21e34:	df000917 	ldw	fp,36(sp)
   21e38:	ddc00817 	ldw	r23,32(sp)
   21e3c:	dd800717 	ldw	r22,28(sp)
   21e40:	dd400617 	ldw	r21,24(sp)
   21e44:	dd000517 	ldw	r20,20(sp)
   21e48:	dcc00417 	ldw	r19,16(sp)
   21e4c:	dc800317 	ldw	r18,12(sp)
   21e50:	dc400217 	ldw	r17,8(sp)
   21e54:	dc000117 	ldw	r16,4(sp)
   21e58:	dec00b04 	addi	sp,sp,44
   21e5c:	1000683a 	jmp	r2
   21e60:	9c800015 	stw	r18,0(r19)
   21e64:	99800115 	stw	r6,4(r19)
   21e68:	88001116 	blt	r17,zero,21eb0 <_ZNK10__cxxabiv120__si_class_type_info12__do_dyncastEiNS_17__class_type_info10__sub_kindEPKS1_PKvS4_S6_RNS1_16__dyncast_resultE+0x120>
   21e6c:	9463883a 	add	r17,r18,r17
   21e70:	a4401d26 	beq	r20,r17,21ee8 <_ZNK10__cxxabiv120__si_class_type_info12__do_dyncastEiNS_17__class_type_info10__sub_kindEPKS1_PKvS4_S6_RNS1_16__dyncast_resultE+0x158>
   21e74:	00800044 	movi	r2,1
   21e78:	98800315 	stw	r2,12(r19)
   21e7c:	0005883a 	mov	r2,zero
   21e80:	dfc00a17 	ldw	ra,40(sp)
   21e84:	df000917 	ldw	fp,36(sp)
   21e88:	ddc00817 	ldw	r23,32(sp)
   21e8c:	dd800717 	ldw	r22,28(sp)
   21e90:	dd400617 	ldw	r21,24(sp)
   21e94:	dd000517 	ldw	r20,20(sp)
   21e98:	dcc00417 	ldw	r19,16(sp)
   21e9c:	dc800317 	ldw	r18,12(sp)
   21ea0:	dc400217 	ldw	r17,8(sp)
   21ea4:	dc000117 	ldw	r16,4(sp)
   21ea8:	dec00b04 	addi	sp,sp,44
   21eac:	f800283a 	ret
   21eb0:	00bfff84 	movi	r2,-2
   21eb4:	88bff11e 	bne	r17,r2,21e7c <__alt_data_end+0xf4021e7c>
   21eb8:	003fee06 	br	21e74 <__alt_data_end+0xf4021e74>
   21ebc:	b9400117 	ldw	r5,4(r23)
   21ec0:	81400726 	beq	r16,r5,21ee0 <_ZNK10__cxxabiv120__si_class_type_info12__do_dyncastEiNS_17__class_type_info10__sub_kindEPKS1_PKvS4_S6_RNS1_16__dyncast_resultE+0x150>
   21ec4:	00800a84 	movi	r2,42
   21ec8:	e0bfd026 	beq	fp,r2,21e0c <__alt_data_end+0xf4021e0c>
   21ecc:	8009883a 	mov	r4,r16
   21ed0:	d9800015 	stw	r6,0(sp)
   21ed4:	00236840 	call	23684 <strcmp>
   21ed8:	d9800017 	ldw	r6,0(sp)
   21edc:	103fcb1e 	bne	r2,zero,21e0c <__alt_data_end+0xf4021e0c>
   21ee0:	99800215 	stw	r6,8(r19)
   21ee4:	003fe506 	br	21e7c <__alt_data_end+0xf4021e7c>
   21ee8:	00800184 	movi	r2,6
   21eec:	003fe206 	br	21e78 <__alt_data_end+0xf4021e78>

00021ef0 <_ZNK10__cxxabiv120__si_class_type_info20__do_find_public_srcEiPKvPKNS_17__class_type_infoES2_>:
   21ef0:	defffa04 	addi	sp,sp,-24
   21ef4:	dc000215 	stw	r16,8(sp)
   21ef8:	dc000617 	ldw	r16,24(sp)
   21efc:	dc800415 	stw	r18,16(sp)
   21f00:	dc400315 	stw	r17,12(sp)
   21f04:	dfc00515 	stw	ra,20(sp)
   21f08:	2023883a 	mov	r17,r4
   21f0c:	2825883a 	mov	r18,r5
   21f10:	81800b26 	beq	r16,r6,21f40 <_ZNK10__cxxabiv120__si_class_type_info20__do_find_public_srcEiPKvPKNS_17__class_type_infoES2_+0x50>
   21f14:	89000217 	ldw	r4,8(r17)
   21f18:	900b883a 	mov	r5,r18
   21f1c:	20800017 	ldw	r2,0(r4)
   21f20:	dc000615 	stw	r16,24(sp)
   21f24:	10800817 	ldw	r2,32(r2)
   21f28:	dfc00517 	ldw	ra,20(sp)
   21f2c:	dc800417 	ldw	r18,16(sp)
   21f30:	dc400317 	ldw	r17,12(sp)
   21f34:	dc000217 	ldw	r16,8(sp)
   21f38:	dec00604 	addi	sp,sp,24
   21f3c:	1000683a 	jmp	r2
   21f40:	21000117 	ldw	r4,4(r4)
   21f44:	39400117 	ldw	r5,4(r7)
   21f48:	21400926 	beq	r4,r5,21f70 <_ZNK10__cxxabiv120__si_class_type_info20__do_find_public_srcEiPKvPKNS_17__class_type_infoES2_+0x80>
   21f4c:	20c00007 	ldb	r3,0(r4)
   21f50:	00800a84 	movi	r2,42
   21f54:	18bfef26 	beq	r3,r2,21f14 <__alt_data_end+0xf4021f14>
   21f58:	d9800015 	stw	r6,0(sp)
   21f5c:	d9c00115 	stw	r7,4(sp)
   21f60:	00236840 	call	23684 <strcmp>
   21f64:	d9800017 	ldw	r6,0(sp)
   21f68:	d9c00117 	ldw	r7,4(sp)
   21f6c:	103fe91e 	bne	r2,zero,21f14 <__alt_data_end+0xf4021f14>
   21f70:	00800184 	movi	r2,6
   21f74:	dfc00517 	ldw	ra,20(sp)
   21f78:	dc800417 	ldw	r18,16(sp)
   21f7c:	dc400317 	ldw	r17,12(sp)
   21f80:	dc000217 	ldw	r16,8(sp)
   21f84:	dec00604 	addi	sp,sp,24
   21f88:	f800283a 	ret

00021f8c <_ZNK10__cxxabiv120__si_class_type_info11__do_upcastEPKNS_17__class_type_infoEPKvRNS1_15__upcast_resultE>:
   21f8c:	defffb04 	addi	sp,sp,-20
   21f90:	dcc00315 	stw	r19,12(sp)
   21f94:	dc800215 	stw	r18,8(sp)
   21f98:	dc400115 	stw	r17,4(sp)
   21f9c:	dc000015 	stw	r16,0(sp)
   21fa0:	dfc00415 	stw	ra,16(sp)
   21fa4:	2027883a 	mov	r19,r4
   21fa8:	2825883a 	mov	r18,r5
   21fac:	3023883a 	mov	r17,r6
   21fb0:	3821883a 	mov	r16,r7
   21fb4:	0021a0c0 	call	21a0c <_ZNK10__cxxabiv117__class_type_info11__do_upcastEPKS0_PKvRNS0_15__upcast_resultE>
   21fb8:	10c03fcc 	andi	r3,r2,255
   21fbc:	18000726 	beq	r3,zero,21fdc <_ZNK10__cxxabiv120__si_class_type_info11__do_upcastEPKNS_17__class_type_infoEPKvRNS1_15__upcast_resultE+0x50>
   21fc0:	dfc00417 	ldw	ra,16(sp)
   21fc4:	dcc00317 	ldw	r19,12(sp)
   21fc8:	dc800217 	ldw	r18,8(sp)
   21fcc:	dc400117 	ldw	r17,4(sp)
   21fd0:	dc000017 	ldw	r16,0(sp)
   21fd4:	dec00504 	addi	sp,sp,20
   21fd8:	f800283a 	ret
   21fdc:	99000217 	ldw	r4,8(r19)
   21fe0:	900b883a 	mov	r5,r18
   21fe4:	880d883a 	mov	r6,r17
   21fe8:	20800017 	ldw	r2,0(r4)
   21fec:	800f883a 	mov	r7,r16
   21ff0:	10800617 	ldw	r2,24(r2)
   21ff4:	dfc00417 	ldw	ra,16(sp)
   21ff8:	dcc00317 	ldw	r19,12(sp)
   21ffc:	dc800217 	ldw	r18,8(sp)
   22000:	dc400117 	ldw	r17,4(sp)
   22004:	dc000017 	ldw	r16,0(sp)
   22008:	dec00504 	addi	sp,sp,20
   2200c:	1000683a 	jmp	r2

00022010 <__cxa_get_exception_ptr>:
   22010:	20bfff17 	ldw	r2,-4(r4)
   22014:	f800283a 	ret

00022018 <__cxa_begin_catch>:
   22018:	defffe04 	addi	sp,sp,-8
   2201c:	dc000015 	stw	r16,0(sp)
   22020:	dfc00115 	stw	ra,4(sp)
   22024:	2021883a 	mov	r16,r4
   22028:	002192c0 	call	2192c <__cxa_get_globals>
   2202c:	81000017 	ldw	r4,0(r16)
   22030:	80c00117 	ldw	r3,4(r16)
   22034:	01af3574 	movhi	r6,48341
   22038:	31b54004 	addi	r6,r6,-11008
   2203c:	016e2cb4 	movhi	r5,47282
   22040:	296aaf04 	addi	r5,r5,-21828
   22044:	218d883a 	add	r6,r4,r6
   22048:	3109803a 	cmpltu	r4,r6,r4
   2204c:	1947883a 	add	r3,r3,r5
   22050:	20c7883a 	add	r3,r4,r3
   22054:	817ff504 	addi	r5,r16,-44
   22058:	11000017 	ldw	r4,0(r2)
   2205c:	18000726 	beq	r3,zero,2207c <__cxa_begin_catch+0x64>
   22060:	2000191e 	bne	r4,zero,220c8 <__cxa_begin_catch+0xb0>
   22064:	11400015 	stw	r5,0(r2)
   22068:	0005883a 	mov	r2,zero
   2206c:	dfc00117 	ldw	ra,4(sp)
   22070:	dc000017 	ldw	r16,0(sp)
   22074:	dec00204 	addi	sp,sp,8
   22078:	f800283a 	ret
   2207c:	01c00044 	movi	r7,1
   22080:	39bff736 	bltu	r7,r6,22060 <__alt_data_end+0xf4022060>
   22084:	80fffa17 	ldw	r3,-24(r16)
   22088:	18000d16 	blt	r3,zero,220c0 <__cxa_begin_catch+0xa8>
   2208c:	18c00044 	addi	r3,r3,1
   22090:	11800117 	ldw	r6,4(r2)
   22094:	80fffa15 	stw	r3,-24(r16)
   22098:	30ffffc4 	addi	r3,r6,-1
   2209c:	10c00115 	stw	r3,4(r2)
   220a0:	21400226 	beq	r4,r5,220ac <__cxa_begin_catch+0x94>
   220a4:	813ff915 	stw	r4,-28(r16)
   220a8:	11400015 	stw	r5,0(r2)
   220ac:	80bfff17 	ldw	r2,-4(r16)
   220b0:	dfc00117 	ldw	ra,4(sp)
   220b4:	dc000017 	ldw	r16,0(sp)
   220b8:	dec00204 	addi	sp,sp,8
   220bc:	f800283a 	ret
   220c0:	38c7c83a 	sub	r3,r7,r3
   220c4:	003ff206 	br	22090 <__alt_data_end+0xf4022090>
   220c8:	0021cc40 	call	21cc4 <_ZSt9terminatev>

000220cc <__cxa_end_catch>:
   220cc:	deffff04 	addi	sp,sp,-4
   220d0:	dfc00015 	stw	ra,0(sp)
   220d4:	00219200 	call	21920 <__cxa_get_globals_fast>
   220d8:	11000017 	ldw	r4,0(r2)
   220dc:	20001326 	beq	r4,zero,2212c <__cxa_end_catch+0x60>
   220e0:	21400b17 	ldw	r5,44(r4)
   220e4:	01ef3574 	movhi	r7,48341
   220e8:	39f54004 	addi	r7,r7,-11008
   220ec:	29cf883a 	add	r7,r5,r7
   220f0:	20c00c17 	ldw	r3,48(r4)
   220f4:	394d803a 	cmpltu	r6,r7,r5
   220f8:	016e2cb4 	movhi	r5,47282
   220fc:	296aaf04 	addi	r5,r5,-21828
   22100:	1947883a 	add	r3,r3,r5
   22104:	30c7883a 	add	r3,r6,r3
   22108:	18000b1e 	bne	r3,zero,22138 <__cxa_end_catch+0x6c>
   2210c:	00c00044 	movi	r3,1
   22110:	19c00936 	bltu	r3,r7,22138 <__cxa_end_catch+0x6c>
   22114:	20c00517 	ldw	r3,20(r4)
   22118:	18000c16 	blt	r3,zero,2214c <__cxa_end_catch+0x80>
   2211c:	197fffc4 	addi	r5,r3,-1
   22120:	28000f26 	beq	r5,zero,22160 <__cxa_end_catch+0x94>
   22124:	18001426 	beq	r3,zero,22178 <__cxa_end_catch+0xac>
   22128:	21400515 	stw	r5,20(r4)
   2212c:	dfc00017 	ldw	ra,0(sp)
   22130:	dec00104 	addi	sp,sp,4
   22134:	f800283a 	ret
   22138:	21000b04 	addi	r4,r4,44
   2213c:	10000015 	stw	zero,0(r2)
   22140:	dfc00017 	ldw	ra,0(sp)
   22144:	dec00104 	addi	sp,sp,4
   22148:	0022aa01 	jmpi	22aa0 <_Unwind_DeleteException>
   2214c:	19400044 	addi	r5,r3,1
   22150:	283ff51e 	bne	r5,zero,22128 <__alt_data_end+0xf4022128>
   22154:	20c00417 	ldw	r3,16(r4)
   22158:	10c00015 	stw	r3,0(r2)
   2215c:	003ff206 	br	22128 <__alt_data_end+0xf4022128>
   22160:	20c00417 	ldw	r3,16(r4)
   22164:	21000b04 	addi	r4,r4,44
   22168:	10c00015 	stw	r3,0(r2)
   2216c:	dfc00017 	ldw	ra,0(sp)
   22170:	dec00104 	addi	sp,sp,4
   22174:	0022aa01 	jmpi	22aa0 <_Unwind_DeleteException>
   22178:	0021cc40 	call	21cc4 <_ZSt9terminatev>

0002217c <_ZSt18uncaught_exceptionv>:
   2217c:	deffff04 	addi	sp,sp,-4
   22180:	dfc00015 	stw	ra,0(sp)
   22184:	002192c0 	call	2192c <__cxa_get_globals>
   22188:	10800117 	ldw	r2,4(r2)
   2218c:	1004c03a 	cmpne	r2,r2,zero
   22190:	dfc00017 	ldw	ra,0(sp)
   22194:	dec00104 	addi	sp,sp,4
   22198:	f800283a 	ret

0002219c <__cxa_call_terminate>:
   2219c:	defffe04 	addi	sp,sp,-8
   221a0:	dc000015 	stw	r16,0(sp)
   221a4:	dfc00115 	stw	ra,4(sp)
   221a8:	2021883a 	mov	r16,r4
   221ac:	20000c26 	beq	r4,zero,221e0 <__cxa_call_terminate+0x44>
   221b0:	00220180 	call	22018 <__cxa_begin_catch>
   221b4:	80c00017 	ldw	r3,0(r16)
   221b8:	012f3574 	movhi	r4,48341
   221bc:	21354004 	addi	r4,r4,-11008
   221c0:	1909883a 	add	r4,r3,r4
   221c4:	80800117 	ldw	r2,4(r16)
   221c8:	20cb803a 	cmpltu	r5,r4,r3
   221cc:	00ee2cb4 	movhi	r3,47282
   221d0:	18eaaf04 	addi	r3,r3,-21828
   221d4:	10c5883a 	add	r2,r2,r3
   221d8:	2885883a 	add	r2,r5,r2
   221dc:	10000126 	beq	r2,zero,221e4 <__cxa_call_terminate+0x48>
   221e0:	0021cc40 	call	21cc4 <_ZSt9terminatev>
   221e4:	00800044 	movi	r2,1
   221e8:	113ffd36 	bltu	r2,r4,221e0 <__alt_data_end+0xf40221e0>
   221ec:	813ff817 	ldw	r4,-32(r16)
   221f0:	0021c040 	call	21c04 <_ZN10__cxxabiv111__terminateEPFvvE>

000221f4 <_ZL23__gxx_exception_cleanup19_Unwind_Reason_CodeP17_Unwind_Exception>:
   221f4:	defffe04 	addi	sp,sp,-8
   221f8:	dfc00115 	stw	ra,4(sp)
   221fc:	dc000015 	stw	r16,0(sp)
   22200:	00800044 	movi	r2,1
   22204:	11000a36 	bltu	r2,r4,22230 <_ZL23__gxx_exception_cleanup19_Unwind_Reason_CodeP17_Unwind_Exception+0x3c>
   22208:	28bff617 	ldw	r2,-40(r5)
   2220c:	2c000504 	addi	r16,r5,20
   22210:	10000226 	beq	r2,zero,2221c <_ZL23__gxx_exception_cleanup19_Unwind_Reason_CodeP17_Unwind_Exception+0x28>
   22214:	8009883a 	mov	r4,r16
   22218:	103ee83a 	callr	r2
   2221c:	8009883a 	mov	r4,r16
   22220:	dfc00117 	ldw	ra,4(sp)
   22224:	dc000017 	ldw	r16,0(sp)
   22228:	dec00204 	addi	sp,sp,8
   2222c:	00224541 	jmpi	22454 <__cxa_free_exception>
   22230:	293ff817 	ldw	r4,-32(r5)
   22234:	0021c040 	call	21c04 <_ZN10__cxxabiv111__terminateEPFvvE>

00022238 <__cxa_throw>:
   22238:	defffb04 	addi	sp,sp,-20
   2223c:	dfc00415 	stw	ra,16(sp)
   22240:	dcc00315 	stw	r19,12(sp)
   22244:	dc800215 	stw	r18,8(sp)
   22248:	2827883a 	mov	r19,r5
   2224c:	3025883a 	mov	r18,r6
   22250:	dc400115 	stw	r17,4(sp)
   22254:	dc000015 	stw	r16,0(sp)
   22258:	2021883a 	mov	r16,r4
   2225c:	002192c0 	call	2192c <__cxa_get_globals>
   22260:	10c00117 	ldw	r3,4(r2)
   22264:	847ffb04 	addi	r17,r16,-20
   22268:	18c00044 	addi	r3,r3,1
   2226c:	10c00115 	stw	r3,4(r2)
   22270:	00800044 	movi	r2,1
   22274:	80bfef15 	stw	r2,-68(r16)
   22278:	84fff015 	stw	r19,-64(r16)
   2227c:	84bff115 	stw	r18,-60(r16)
   22280:	0021d3c0 	call	21d3c <_ZSt14get_unexpectedv>
   22284:	80bff215 	stw	r2,-56(r16)
   22288:	0021d180 	call	21d18 <_ZSt13get_terminatev>
   2228c:	80bff315 	stw	r2,-52(r16)
   22290:	0090caf4 	movhi	r2,17195
   22294:	108ac004 	addi	r2,r2,11008
   22298:	80bffb15 	stw	r2,-20(r16)
   2229c:	0091d3b4 	movhi	r2,18254
   222a0:	109550c4 	addi	r2,r2,21827
   222a4:	80bffc15 	stw	r2,-16(r16)
   222a8:	008000b4 	movhi	r2,2
   222ac:	10887d04 	addi	r2,r2,8692
   222b0:	8809883a 	mov	r4,r17
   222b4:	80bffd15 	stw	r2,-12(r16)
   222b8:	00228fc0 	call	228fc <_Unwind_SjLj_RaiseException>
   222bc:	8809883a 	mov	r4,r17
   222c0:	00220180 	call	22018 <__cxa_begin_catch>
   222c4:	0021cc40 	call	21cc4 <_ZSt9terminatev>

000222c8 <__cxa_rethrow>:
   222c8:	defffe04 	addi	sp,sp,-8
   222cc:	dfc00115 	stw	ra,4(sp)
   222d0:	dc000015 	stw	r16,0(sp)
   222d4:	002192c0 	call	2192c <__cxa_get_globals>
   222d8:	10c00117 	ldw	r3,4(r2)
   222dc:	11000017 	ldw	r4,0(r2)
   222e0:	18c00044 	addi	r3,r3,1
   222e4:	10c00115 	stw	r3,4(r2)
   222e8:	20001126 	beq	r4,zero,22330 <__cxa_rethrow+0x68>
   222ec:	21400b17 	ldw	r5,44(r4)
   222f0:	01ef3574 	movhi	r7,48341
   222f4:	39f54004 	addi	r7,r7,-11008
   222f8:	29cf883a 	add	r7,r5,r7
   222fc:	20c00c17 	ldw	r3,48(r4)
   22300:	394d803a 	cmpltu	r6,r7,r5
   22304:	016e2cb4 	movhi	r5,47282
   22308:	296aaf04 	addi	r5,r5,-21828
   2230c:	1947883a 	add	r3,r3,r5
   22310:	30c7883a 	add	r3,r6,r3
   22314:	18000726 	beq	r3,zero,22334 <__cxa_rethrow+0x6c>
   22318:	10000015 	stw	zero,0(r2)
   2231c:	24000b04 	addi	r16,r4,44
   22320:	8009883a 	mov	r4,r16
   22324:	0022a540 	call	22a54 <_Unwind_SjLj_Resume_or_Rethrow>
   22328:	8009883a 	mov	r4,r16
   2232c:	00220180 	call	22018 <__cxa_begin_catch>
   22330:	0021cc40 	call	21cc4 <_ZSt9terminatev>
   22334:	00c00044 	movi	r3,1
   22338:	19fff736 	bltu	r3,r7,22318 <__alt_data_end+0xf4022318>
   2233c:	20800517 	ldw	r2,20(r4)
   22340:	0085c83a 	sub	r2,zero,r2
   22344:	20800515 	stw	r2,20(r4)
   22348:	003ff406 	br	2231c <__alt_data_end+0xf402231c>

0002234c <_ZNSt9type_infoD1Ev>:
   2234c:	f800283a 	ret

00022350 <_ZNKSt9type_info14__is_pointer_pEv>:
   22350:	0005883a 	mov	r2,zero
   22354:	f800283a 	ret

00022358 <_ZNKSt9type_info15__is_function_pEv>:
   22358:	0005883a 	mov	r2,zero
   2235c:	f800283a 	ret

00022360 <_ZNKSt9type_info11__do_upcastEPKN10__cxxabiv117__class_type_infoEPPv>:
   22360:	0005883a 	mov	r2,zero
   22364:	f800283a 	ret

00022368 <_ZNSt9type_infoD0Ev>:
   22368:	0021c001 	jmpi	21c00 <_ZdlPv>

0002236c <_ZNKSt9type_info10__do_catchEPKS_PPvj>:
   2236c:	21000117 	ldw	r4,4(r4)
   22370:	29400117 	ldw	r5,4(r5)
   22374:	21400c26 	beq	r4,r5,223a8 <_ZNKSt9type_info10__do_catchEPKS_PPvj+0x3c>
   22378:	20c00007 	ldb	r3,0(r4)
   2237c:	00800a84 	movi	r2,42
   22380:	18800726 	beq	r3,r2,223a0 <_ZNKSt9type_info10__do_catchEPKS_PPvj+0x34>
   22384:	deffff04 	addi	sp,sp,-4
   22388:	dfc00015 	stw	ra,0(sp)
   2238c:	00236840 	call	23684 <strcmp>
   22390:	1005003a 	cmpeq	r2,r2,zero
   22394:	dfc00017 	ldw	ra,0(sp)
   22398:	dec00104 	addi	sp,sp,4
   2239c:	f800283a 	ret
   223a0:	0005883a 	mov	r2,zero
   223a4:	f800283a 	ret
   223a8:	00800044 	movi	r2,1
   223ac:	f800283a 	ret

000223b0 <__cxa_allocate_exception>:
   223b0:	defffd04 	addi	sp,sp,-12
   223b4:	dc400115 	stw	r17,4(sp)
   223b8:	24401104 	addi	r17,r4,68
   223bc:	8809883a 	mov	r4,r17
   223c0:	dc000015 	stw	r16,0(sp)
   223c4:	dfc00215 	stw	ra,8(sp)
   223c8:	0022b440 	call	22b44 <malloc>
   223cc:	1021883a 	mov	r16,r2
   223d0:	10000a26 	beq	r2,zero,223fc <__cxa_allocate_exception+0x4c>
   223d4:	8009883a 	mov	r4,r16
   223d8:	000b883a 	mov	r5,zero
   223dc:	01801104 	movi	r6,68
   223e0:	00231f00 	call	231f0 <memset>
   223e4:	80801104 	addi	r2,r16,68
   223e8:	dfc00217 	ldw	ra,8(sp)
   223ec:	dc400117 	ldw	r17,4(sp)
   223f0:	dc000017 	ldw	r16,0(sp)
   223f4:	dec00304 	addi	sp,sp,12
   223f8:	f800283a 	ret
   223fc:	01420034 	movhi	r5,2048
   22400:	2943df04 	addi	r5,r5,3964
   22404:	00808004 	movi	r2,512
   22408:	29800017 	ldw	r6,0(r5)
   2240c:	14400736 	bltu	r2,r17,2242c <__cxa_allocate_exception+0x7c>
   22410:	3005883a 	mov	r2,r6
   22414:	01000104 	movi	r4,4
   22418:	10c0004c 	andi	r3,r2,1
   2241c:	18000426 	beq	r3,zero,22430 <__cxa_allocate_exception+0x80>
   22420:	84000044 	addi	r16,r16,1
   22424:	1004d07a 	srli	r2,r2,1
   22428:	813ffb1e 	bne	r16,r4,22418 <__alt_data_end+0xf4022418>
   2242c:	0021cc40 	call	21cc4 <_ZSt9terminatev>
   22430:	00800044 	movi	r2,1
   22434:	1404983a 	sll	r2,r2,r16
   22438:	8020927a 	slli	r16,r16,9
   2243c:	118cb03a 	or	r6,r2,r6
   22440:	00820034 	movhi	r2,2048
   22444:	1084b504 	addi	r2,r2,4820
   22448:	29800015 	stw	r6,0(r5)
   2244c:	80a1883a 	add	r16,r16,r2
   22450:	003fe006 	br	223d4 <__alt_data_end+0xf40223d4>

00022454 <__cxa_free_exception>:
   22454:	00820034 	movhi	r2,2048
   22458:	1084b504 	addi	r2,r2,4820
   2245c:	20800236 	bltu	r4,r2,22468 <__cxa_free_exception+0x14>
   22460:	10c20004 	addi	r3,r2,2048
   22464:	20c00236 	bltu	r4,r3,22470 <__cxa_free_exception+0x1c>
   22468:	213fef04 	addi	r4,r4,-68
   2246c:	0022b581 	jmpi	22b58 <free>
   22470:	2089c83a 	sub	r4,r4,r2
   22474:	2008d27a 	srli	r4,r4,9
   22478:	01420034 	movhi	r5,2048
   2247c:	2943df04 	addi	r5,r5,3964
   22480:	00ffff84 	movi	r3,-2
   22484:	28800017 	ldw	r2,0(r5)
   22488:	1908183a 	rol	r4,r3,r4
   2248c:	2088703a 	and	r4,r4,r2
   22490:	29000015 	stw	r4,0(r5)
   22494:	f800283a 	ret

00022498 <__cxa_allocate_dependent_exception>:
   22498:	defffe04 	addi	sp,sp,-8
   2249c:	01001004 	movi	r4,64
   224a0:	dc000015 	stw	r16,0(sp)
   224a4:	dfc00115 	stw	ra,4(sp)
   224a8:	0022b440 	call	22b44 <malloc>
   224ac:	1021883a 	mov	r16,r2
   224b0:	10000926 	beq	r2,zero,224d8 <__cxa_allocate_dependent_exception+0x40>
   224b4:	8009883a 	mov	r4,r16
   224b8:	000b883a 	mov	r5,zero
   224bc:	01801004 	movi	r6,64
   224c0:	00231f00 	call	231f0 <memset>
   224c4:	8005883a 	mov	r2,r16
   224c8:	dfc00117 	ldw	ra,4(sp)
   224cc:	dc000017 	ldw	r16,0(sp)
   224d0:	dec00204 	addi	sp,sp,8
   224d4:	f800283a 	ret
   224d8:	01c20034 	movhi	r7,2048
   224dc:	39c3de04 	addi	r7,r7,3960
   224e0:	39800017 	ldw	r6,0(r7)
   224e4:	0005883a 	mov	r2,zero
   224e8:	01400104 	movi	r5,4
   224ec:	3007883a 	mov	r3,r6
   224f0:	1900004c 	andi	r4,r3,1
   224f4:	20000426 	beq	r4,zero,22508 <__cxa_allocate_dependent_exception+0x70>
   224f8:	10800044 	addi	r2,r2,1
   224fc:	1806d07a 	srli	r3,r3,1
   22500:	117ffb1e 	bne	r2,r5,224f0 <__alt_data_end+0xf40224f0>
   22504:	0021cc40 	call	21cc4 <_ZSt9terminatev>
   22508:	00c00044 	movi	r3,1
   2250c:	1886983a 	sll	r3,r3,r2
   22510:	100491ba 	slli	r2,r2,6
   22514:	04020034 	movhi	r16,2048
   22518:	198cb03a 	or	r6,r3,r6
   2251c:	84047504 	addi	r16,r16,4564
   22520:	39800015 	stw	r6,0(r7)
   22524:	1421883a 	add	r16,r2,r16
   22528:	003fe206 	br	224b4 <__alt_data_end+0xf40224b4>

0002252c <__cxa_free_dependent_exception>:
   2252c:	00820034 	movhi	r2,2048
   22530:	10847504 	addi	r2,r2,4564
   22534:	20800236 	bltu	r4,r2,22540 <__cxa_free_dependent_exception+0x14>
   22538:	10c04004 	addi	r3,r2,256
   2253c:	20c00136 	bltu	r4,r3,22544 <__cxa_free_dependent_exception+0x18>
   22540:	0022b581 	jmpi	22b58 <free>
   22544:	2089c83a 	sub	r4,r4,r2
   22548:	2008d1ba 	srli	r4,r4,6
   2254c:	01420034 	movhi	r5,2048
   22550:	2943de04 	addi	r5,r5,3960
   22554:	00ffff84 	movi	r3,-2
   22558:	28800017 	ldw	r2,0(r5)
   2255c:	1908183a 	rol	r4,r3,r4
   22560:	2088703a 	and	r4,r4,r2
   22564:	29000015 	stw	r4,0(r5)
   22568:	f800283a 	ret

0002256c <_ZNSt9exceptionD1Ev>:
   2256c:	f800283a 	ret

00022570 <_ZNSt13bad_exceptionD1Ev>:
   22570:	f800283a 	ret

00022574 <_ZNKSt9exception4whatEv>:
   22574:	00820034 	movhi	r2,2048
   22578:	10810404 	addi	r2,r2,1040
   2257c:	f800283a 	ret

00022580 <_ZNKSt13bad_exception4whatEv>:
   22580:	00820034 	movhi	r2,2048
   22584:	10810804 	addi	r2,r2,1056
   22588:	f800283a 	ret

0002258c <_ZNSt9exceptionD0Ev>:
   2258c:	0021c001 	jmpi	21c00 <_ZdlPv>

00022590 <_ZNSt13bad_exceptionD0Ev>:
   22590:	0021c001 	jmpi	21c00 <_ZdlPv>

00022594 <_ZN10__cxxabiv115__forced_unwindD1Ev>:
   22594:	f800283a 	ret

00022598 <_ZN10__cxxabiv115__forced_unwindD0Ev>:
   22598:	0021c001 	jmpi	21c00 <_ZdlPv>

0002259c <_ZN10__cxxabiv119__foreign_exceptionD1Ev>:
   2259c:	f800283a 	ret

000225a0 <_ZN10__cxxabiv119__foreign_exceptionD0Ev>:
   225a0:	0021c001 	jmpi	21c00 <_ZdlPv>

000225a4 <__cxa_pure_virtual>:
   225a4:	01420034 	movhi	r5,2048
   225a8:	deffff04 	addi	sp,sp,-4
   225ac:	29413e04 	addi	r5,r5,1272
   225b0:	01000084 	movi	r4,2
   225b4:	018006c4 	movi	r6,27
   225b8:	dfc00015 	stw	ra,0(sp)
   225bc:	0024a380 	call	24a38 <write>
   225c0:	0021cc40 	call	21cc4 <_ZSt9terminatev>

000225c4 <__cxa_deleted_virtual>:
   225c4:	01420034 	movhi	r5,2048
   225c8:	deffff04 	addi	sp,sp,-4
   225cc:	29414504 	addi	r5,r5,1300
   225d0:	01000084 	movi	r4,2
   225d4:	01800784 	movi	r6,30
   225d8:	dfc00015 	stw	ra,0(sp)
   225dc:	0024a380 	call	24a38 <write>
   225e0:	0021cc40 	call	21cc4 <_ZSt9terminatev>

000225e4 <__mulsi3>:
   225e4:	0005883a 	mov	r2,zero
   225e8:	20000726 	beq	r4,zero,22608 <__mulsi3+0x24>
   225ec:	20c0004c 	andi	r3,r4,1
   225f0:	2008d07a 	srli	r4,r4,1
   225f4:	18000126 	beq	r3,zero,225fc <__mulsi3+0x18>
   225f8:	1145883a 	add	r2,r2,r5
   225fc:	294b883a 	add	r5,r5,r5
   22600:	203ffa1e 	bne	r4,zero,225ec <__alt_data_end+0xf40225ec>
   22604:	f800283a 	ret
   22608:	f800283a 	ret

0002260c <_Unwind_ForcedUnwind_Phase2>:
   2260c:	defff404 	addi	sp,sp,-48
   22610:	dd800915 	stw	r22,36(sp)
   22614:	05820034 	movhi	r22,2048
   22618:	ddc00a15 	stw	r23,40(sp)
   2261c:	dd400815 	stw	r21,32(sp)
   22620:	dd000715 	stw	r20,28(sp)
   22624:	dcc00615 	stw	r19,24(sp)
   22628:	dc400415 	stw	r17,16(sp)
   2262c:	dc000315 	stw	r16,12(sp)
   22630:	dfc00b15 	stw	ra,44(sp)
   22634:	dc800515 	stw	r18,20(sp)
   22638:	2021883a 	mov	r16,r4
   2263c:	2823883a 	mov	r17,r5
   22640:	24c00317 	ldw	r19,12(r4)
   22644:	25000417 	ldw	r20,16(r4)
   22648:	28c00017 	ldw	r3,0(r5)
   2264c:	b583e004 	addi	r22,r22,3968
   22650:	054001c4 	movi	r21,7
   22654:	05c00204 	movi	r23,8
   22658:	00001606 	br	226b4 <_Unwind_ForcedUnwind_Phase2+0xa8>
   2265c:	81800017 	ldw	r6,0(r16)
   22660:	81c00117 	ldw	r7,4(r16)
   22664:	1c800617 	ldw	r18,24(r3)
   22668:	dc000015 	stw	r16,0(sp)
   2266c:	dc400115 	stw	r17,4(sp)
   22670:	dd000215 	stw	r20,8(sp)
   22674:	983ee83a 	callr	r19
   22678:	01000044 	movi	r4,1
   2267c:	01400284 	movi	r5,10
   22680:	1000241e 	bne	r2,zero,22714 <_Unwind_ForcedUnwind_Phase2+0x108>
   22684:	90000726 	beq	r18,zero,226a4 <_Unwind_ForcedUnwind_Phase2+0x98>
   22688:	81800017 	ldw	r6,0(r16)
   2268c:	81c00117 	ldw	r7,4(r16)
   22690:	dc000015 	stw	r16,0(sp)
   22694:	dc400115 	stw	r17,4(sp)
   22698:	903ee83a 	callr	r18
   2269c:	15401f26 	beq	r2,r21,2271c <_Unwind_ForcedUnwind_Phase2+0x110>
   226a0:	15c01c1e 	bne	r2,r23,22714 <_Unwind_ForcedUnwind_Phase2+0x108>
   226a4:	88800017 	ldw	r2,0(r17)
   226a8:	10c00017 	ldw	r3,0(r2)
   226ac:	b0c00015 	stw	r3,0(r22)
   226b0:	88c00015 	stw	r3,0(r17)
   226b4:	01000044 	movi	r4,1
   226b8:	01400284 	movi	r5,10
   226bc:	183fe71e 	bne	r3,zero,2265c <__alt_data_end+0xf402265c>
   226c0:	81800017 	ldw	r6,0(r16)
   226c4:	81c00117 	ldw	r7,4(r16)
   226c8:	01000044 	movi	r4,1
   226cc:	dc000015 	stw	r16,0(sp)
   226d0:	dc400115 	stw	r17,4(sp)
   226d4:	dd000215 	stw	r20,8(sp)
   226d8:	01400684 	movi	r5,26
   226dc:	983ee83a 	callr	r19
   226e0:	10000c1e 	bne	r2,zero,22714 <_Unwind_ForcedUnwind_Phase2+0x108>
   226e4:	00800144 	movi	r2,5
   226e8:	dfc00b17 	ldw	ra,44(sp)
   226ec:	ddc00a17 	ldw	r23,40(sp)
   226f0:	dd800917 	ldw	r22,36(sp)
   226f4:	dd400817 	ldw	r21,32(sp)
   226f8:	dd000717 	ldw	r20,28(sp)
   226fc:	dcc00617 	ldw	r19,24(sp)
   22700:	dc800517 	ldw	r18,20(sp)
   22704:	dc400417 	ldw	r17,16(sp)
   22708:	dc000317 	ldw	r16,12(sp)
   2270c:	dec00c04 	addi	sp,sp,48
   22710:	f800283a 	ret
   22714:	00800084 	movi	r2,2
   22718:	003ff306 	br	226e8 <__alt_data_end+0xf40226e8>
   2271c:	a805883a 	mov	r2,r21
   22720:	003ff106 	br	226e8 <__alt_data_end+0xf40226e8>

00022724 <_Unwind_RaiseException_Phase2>:
   22724:	28c00017 	ldw	r3,0(r5)
   22728:	defff804 	addi	sp,sp,-32
   2272c:	dcc00515 	stw	r19,20(sp)
   22730:	dc800415 	stw	r18,16(sp)
   22734:	dc400315 	stw	r17,12(sp)
   22738:	dc000215 	stw	r16,8(sp)
   2273c:	dfc00715 	stw	ra,28(sp)
   22740:	dd000615 	stw	r20,24(sp)
   22744:	2823883a 	mov	r17,r5
   22748:	2021883a 	mov	r16,r4
   2274c:	048001c4 	movi	r18,7
   22750:	04c00204 	movi	r19,8
   22754:	18001326 	beq	r3,zero,227a4 <_Unwind_RaiseException_Phase2+0x80>
   22758:	81000417 	ldw	r4,16(r16)
   2275c:	1a000617 	ldw	r8,24(r3)
   22760:	19001c26 	beq	r3,r4,227d4 <_Unwind_RaiseException_Phase2+0xb0>
   22764:	40000b26 	beq	r8,zero,22794 <_Unwind_RaiseException_Phase2+0x70>
   22768:	01400084 	movi	r5,2
   2276c:	0029883a 	mov	r20,zero
   22770:	81800017 	ldw	r6,0(r16)
   22774:	81c00117 	ldw	r7,4(r16)
   22778:	01000044 	movi	r4,1
   2277c:	dc000015 	stw	r16,0(sp)
   22780:	dc400115 	stw	r17,4(sp)
   22784:	403ee83a 	callr	r8
   22788:	14800f26 	beq	r2,r18,227c8 <_Unwind_RaiseException_Phase2+0xa4>
   2278c:	14c0051e 	bne	r2,r19,227a4 <_Unwind_RaiseException_Phase2+0x80>
   22790:	a0000f1e 	bne	r20,zero,227d0 <_Unwind_RaiseException_Phase2+0xac>
   22794:	88c00017 	ldw	r3,0(r17)
   22798:	18c00017 	ldw	r3,0(r3)
   2279c:	88c00015 	stw	r3,0(r17)
   227a0:	183fed1e 	bne	r3,zero,22758 <__alt_data_end+0xf4022758>
   227a4:	00800084 	movi	r2,2
   227a8:	dfc00717 	ldw	ra,28(sp)
   227ac:	dd000617 	ldw	r20,24(sp)
   227b0:	dcc00517 	ldw	r19,20(sp)
   227b4:	dc800417 	ldw	r18,16(sp)
   227b8:	dc400317 	ldw	r17,12(sp)
   227bc:	dc000217 	ldw	r16,8(sp)
   227c0:	dec00804 	addi	sp,sp,32
   227c4:	f800283a 	ret
   227c8:	9005883a 	mov	r2,r18
   227cc:	003ff606 	br	227a8 <__alt_data_end+0xf40227a8>
   227d0:	0022b2c0 	call	22b2c <abort>
   227d4:	403ffe26 	beq	r8,zero,227d0 <__alt_data_end+0xf40227d0>
   227d8:	01400184 	movi	r5,6
   227dc:	05000104 	movi	r20,4
   227e0:	003fe306 	br	22770 <__alt_data_end+0xf4022770>

000227e4 <uw_install_context.isra.1>:
   227e4:	20c00017 	ldw	r3,0(r4)
   227e8:	deffff04 	addi	sp,sp,-4
   227ec:	01420034 	movhi	r5,2048
   227f0:	19000917 	ldw	r4,36(r3)
   227f4:	df000015 	stw	fp,0(sp)
   227f8:	18800804 	addi	r2,r3,32
   227fc:	d839883a 	mov	fp,sp
   22800:	2943e004 	addi	r5,r5,3968
   22804:	28c00015 	stw	r3,0(r5)
   22808:	17000017 	ldw	fp,0(r2)
   2280c:	1ec00a17 	ldw	sp,40(r3)
   22810:	2000683a 	jmp	r4

00022814 <_Unwind_SjLj_Register>:
   22814:	00820034 	movhi	r2,2048
   22818:	1083e004 	addi	r2,r2,3968
   2281c:	10c00017 	ldw	r3,0(r2)
   22820:	11000015 	stw	r4,0(r2)
   22824:	20c00015 	stw	r3,0(r4)
   22828:	f800283a 	ret

0002282c <_Unwind_SjLj_Unregister>:
   2282c:	20c00017 	ldw	r3,0(r4)
   22830:	00820034 	movhi	r2,2048
   22834:	1083e004 	addi	r2,r2,3968
   22838:	10c00015 	stw	r3,0(r2)
   2283c:	f800283a 	ret

00022840 <_Unwind_GetGR>:
   22840:	20800017 	ldw	r2,0(r4)
   22844:	29400084 	addi	r5,r5,2
   22848:	294b883a 	add	r5,r5,r5
   2284c:	294b883a 	add	r5,r5,r5
   22850:	114b883a 	add	r5,r2,r5
   22854:	28800017 	ldw	r2,0(r5)
   22858:	f800283a 	ret

0002285c <_Unwind_GetCFA>:
   2285c:	20800017 	ldw	r2,0(r4)
   22860:	10000226 	beq	r2,zero,2286c <_Unwind_GetCFA+0x10>
   22864:	10800a17 	ldw	r2,40(r2)
   22868:	f800283a 	ret
   2286c:	0005883a 	mov	r2,zero
   22870:	f800283a 	ret

00022874 <_Unwind_SetGR>:
   22874:	20800017 	ldw	r2,0(r4)
   22878:	29400084 	addi	r5,r5,2
   2287c:	294b883a 	add	r5,r5,r5
   22880:	294b883a 	add	r5,r5,r5
   22884:	114b883a 	add	r5,r2,r5
   22888:	29800015 	stw	r6,0(r5)
   2288c:	f800283a 	ret

00022890 <_Unwind_GetIP>:
   22890:	20800017 	ldw	r2,0(r4)
   22894:	10800117 	ldw	r2,4(r2)
   22898:	10800044 	addi	r2,r2,1
   2289c:	f800283a 	ret

000228a0 <_Unwind_GetIPInfo>:
   228a0:	20800017 	ldw	r2,0(r4)
   228a4:	28000015 	stw	zero,0(r5)
   228a8:	10000326 	beq	r2,zero,228b8 <_Unwind_GetIPInfo+0x18>
   228ac:	10800117 	ldw	r2,4(r2)
   228b0:	10800044 	addi	r2,r2,1
   228b4:	f800283a 	ret
   228b8:	0005883a 	mov	r2,zero
   228bc:	f800283a 	ret

000228c0 <_Unwind_SetIP>:
   228c0:	20800017 	ldw	r2,0(r4)
   228c4:	297fffc4 	addi	r5,r5,-1
   228c8:	11400115 	stw	r5,4(r2)
   228cc:	f800283a 	ret

000228d0 <_Unwind_GetLanguageSpecificData>:
   228d0:	20800017 	ldw	r2,0(r4)
   228d4:	10800717 	ldw	r2,28(r2)
   228d8:	f800283a 	ret

000228dc <_Unwind_GetRegionStart>:
   228dc:	0005883a 	mov	r2,zero
   228e0:	f800283a 	ret

000228e4 <_Unwind_FindEnclosingFunction>:
   228e4:	0005883a 	mov	r2,zero
   228e8:	f800283a 	ret

000228ec <_Unwind_GetDataRelBase>:
   228ec:	0005883a 	mov	r2,zero
   228f0:	f800283a 	ret

000228f4 <_Unwind_GetTextRelBase>:
   228f4:	0005883a 	mov	r2,zero
   228f8:	f800283a 	ret

000228fc <_Unwind_SjLj_RaiseException>:
   228fc:	00820034 	movhi	r2,2048
   22900:	defff804 	addi	sp,sp,-32
   22904:	1083e004 	addi	r2,r2,3968
   22908:	dc800515 	stw	r18,20(sp)
   2290c:	14800017 	ldw	r18,0(r2)
   22910:	dfc00715 	stw	ra,28(sp)
   22914:	dcc00615 	stw	r19,24(sp)
   22918:	dc400415 	stw	r17,16(sp)
   2291c:	dc000315 	stw	r16,12(sp)
   22920:	dc800215 	stw	r18,8(sp)
   22924:	90001426 	beq	r18,zero,22978 <_Unwind_SjLj_RaiseException+0x7c>
   22928:	2021883a 	mov	r16,r4
   2292c:	9005883a 	mov	r2,r18
   22930:	04400184 	movi	r17,6
   22934:	04c00204 	movi	r19,8
   22938:	10800617 	ldw	r2,24(r2)
   2293c:	10000a26 	beq	r2,zero,22968 <_Unwind_SjLj_RaiseException+0x6c>
   22940:	81800017 	ldw	r6,0(r16)
   22944:	81c00117 	ldw	r7,4(r16)
   22948:	01000044 	movi	r4,1
   2294c:	d8c00204 	addi	r3,sp,8
   22950:	dc000015 	stw	r16,0(sp)
   22954:	d8c00115 	stw	r3,4(sp)
   22958:	200b883a 	mov	r5,r4
   2295c:	103ee83a 	callr	r2
   22960:	14400d26 	beq	r2,r17,22998 <_Unwind_SjLj_RaiseException+0x9c>
   22964:	14c0171e 	bne	r2,r19,229c4 <_Unwind_SjLj_RaiseException+0xc8>
   22968:	d8800217 	ldw	r2,8(sp)
   2296c:	10800017 	ldw	r2,0(r2)
   22970:	d8800215 	stw	r2,8(sp)
   22974:	103ff01e 	bne	r2,zero,22938 <__alt_data_end+0xf4022938>
   22978:	00800144 	movi	r2,5
   2297c:	dfc00717 	ldw	ra,28(sp)
   22980:	dcc00617 	ldw	r19,24(sp)
   22984:	dc800517 	ldw	r18,20(sp)
   22988:	dc400417 	ldw	r17,16(sp)
   2298c:	dc000317 	ldw	r16,12(sp)
   22990:	dec00804 	addi	sp,sp,32
   22994:	f800283a 	ret
   22998:	d8800217 	ldw	r2,8(sp)
   2299c:	80000315 	stw	zero,12(r16)
   229a0:	8009883a 	mov	r4,r16
   229a4:	80800415 	stw	r2,16(r16)
   229a8:	d9400204 	addi	r5,sp,8
   229ac:	dc800215 	stw	r18,8(sp)
   229b0:	00227240 	call	22724 <_Unwind_RaiseException_Phase2>
   229b4:	00c001c4 	movi	r3,7
   229b8:	10fff01e 	bne	r2,r3,2297c <__alt_data_end+0xf402297c>
   229bc:	d9000204 	addi	r4,sp,8
   229c0:	00227e40 	call	227e4 <uw_install_context.isra.1>
   229c4:	008000c4 	movi	r2,3
   229c8:	003fec06 	br	2297c <__alt_data_end+0xf402297c>

000229cc <_Unwind_SjLj_ForcedUnwind>:
   229cc:	00c20034 	movhi	r3,2048
   229d0:	18c3e004 	addi	r3,r3,3968
   229d4:	defffe04 	addi	sp,sp,-8
   229d8:	18c00017 	ldw	r3,0(r3)
   229dc:	dfc00115 	stw	ra,4(sp)
   229e0:	21400315 	stw	r5,12(r4)
   229e4:	21800415 	stw	r6,16(r4)
   229e8:	d80b883a 	mov	r5,sp
   229ec:	d8c00015 	stw	r3,0(sp)
   229f0:	002260c0 	call	2260c <_Unwind_ForcedUnwind_Phase2>
   229f4:	00c001c4 	movi	r3,7
   229f8:	10c00326 	beq	r2,r3,22a08 <_Unwind_SjLj_ForcedUnwind+0x3c>
   229fc:	dfc00117 	ldw	ra,4(sp)
   22a00:	dec00204 	addi	sp,sp,8
   22a04:	f800283a 	ret
   22a08:	d809883a 	mov	r4,sp
   22a0c:	00227e40 	call	227e4 <uw_install_context.isra.1>

00022a10 <_Unwind_SjLj_Resume>:
   22a10:	00c20034 	movhi	r3,2048
   22a14:	18c3e004 	addi	r3,r3,3968
   22a18:	18c00017 	ldw	r3,0(r3)
   22a1c:	20800317 	ldw	r2,12(r4)
   22a20:	defffe04 	addi	sp,sp,-8
   22a24:	dfc00115 	stw	ra,4(sp)
   22a28:	d8c00015 	stw	r3,0(sp)
   22a2c:	d80b883a 	mov	r5,sp
   22a30:	1000041e 	bne	r2,zero,22a44 <_Unwind_SjLj_Resume+0x34>
   22a34:	00227240 	call	22724 <_Unwind_RaiseException_Phase2>
   22a38:	00c001c4 	movi	r3,7
   22a3c:	10c00326 	beq	r2,r3,22a4c <_Unwind_SjLj_Resume+0x3c>
   22a40:	0022b2c0 	call	22b2c <abort>
   22a44:	002260c0 	call	2260c <_Unwind_ForcedUnwind_Phase2>
   22a48:	003ffb06 	br	22a38 <__alt_data_end+0xf4022a38>
   22a4c:	d809883a 	mov	r4,sp
   22a50:	00227e40 	call	227e4 <uw_install_context.isra.1>

00022a54 <_Unwind_SjLj_Resume_or_Rethrow>:
   22a54:	20800317 	ldw	r2,12(r4)
   22a58:	defffe04 	addi	sp,sp,-8
   22a5c:	dfc00115 	stw	ra,4(sp)
   22a60:	1000041e 	bne	r2,zero,22a74 <_Unwind_SjLj_Resume_or_Rethrow+0x20>
   22a64:	00228fc0 	call	228fc <_Unwind_SjLj_RaiseException>
   22a68:	dfc00117 	ldw	ra,4(sp)
   22a6c:	dec00204 	addi	sp,sp,8
   22a70:	f800283a 	ret
   22a74:	00820034 	movhi	r2,2048
   22a78:	1083e004 	addi	r2,r2,3968
   22a7c:	10800017 	ldw	r2,0(r2)
   22a80:	d80b883a 	mov	r5,sp
   22a84:	d8800015 	stw	r2,0(sp)
   22a88:	002260c0 	call	2260c <_Unwind_ForcedUnwind_Phase2>
   22a8c:	00c001c4 	movi	r3,7
   22a90:	10c00126 	beq	r2,r3,22a98 <_Unwind_SjLj_Resume_or_Rethrow+0x44>
   22a94:	0022b2c0 	call	22b2c <abort>
   22a98:	d809883a 	mov	r4,sp
   22a9c:	00227e40 	call	227e4 <uw_install_context.isra.1>

00022aa0 <_Unwind_DeleteException>:
   22aa0:	20800217 	ldw	r2,8(r4)
   22aa4:	200b883a 	mov	r5,r4
   22aa8:	10000226 	beq	r2,zero,22ab4 <_Unwind_DeleteException+0x14>
   22aac:	01000044 	movi	r4,1
   22ab0:	1000683a 	jmp	r2
   22ab4:	f800283a 	ret

00022ab8 <_Unwind_Backtrace>:
   22ab8:	00820034 	movhi	r2,2048
   22abc:	1083e004 	addi	r2,r2,3968
   22ac0:	10800017 	ldw	r2,0(r2)
   22ac4:	defffc04 	addi	sp,sp,-16
   22ac8:	dc400215 	stw	r17,8(sp)
   22acc:	dc000115 	stw	r16,4(sp)
   22ad0:	dfc00315 	stw	ra,12(sp)
   22ad4:	2023883a 	mov	r17,r4
   22ad8:	2821883a 	mov	r16,r5
   22adc:	d8800015 	stw	r2,0(sp)
   22ae0:	00000506 	br	22af8 <_Unwind_Backtrace+0x40>
   22ae4:	883ee83a 	callr	r17
   22ae8:	10000e1e 	bne	r2,zero,22b24 <_Unwind_Backtrace+0x6c>
   22aec:	d8800017 	ldw	r2,0(sp)
   22af0:	10800017 	ldw	r2,0(r2)
   22af4:	d8800015 	stw	r2,0(sp)
   22af8:	d809883a 	mov	r4,sp
   22afc:	800b883a 	mov	r5,r16
   22b00:	103ff81e 	bne	r2,zero,22ae4 <__alt_data_end+0xf4022ae4>
   22b04:	883ee83a 	callr	r17
   22b08:	1000061e 	bne	r2,zero,22b24 <_Unwind_Backtrace+0x6c>
   22b0c:	00800144 	movi	r2,5
   22b10:	dfc00317 	ldw	ra,12(sp)
   22b14:	dc400217 	ldw	r17,8(sp)
   22b18:	dc000117 	ldw	r16,4(sp)
   22b1c:	dec00404 	addi	sp,sp,16
   22b20:	f800283a 	ret
   22b24:	008000c4 	movi	r2,3
   22b28:	003ff906 	br	22b10 <__alt_data_end+0xf4022b10>

00022b2c <abort>:
   22b2c:	deffff04 	addi	sp,sp,-4
   22b30:	01000184 	movi	r4,6
   22b34:	dfc00015 	stw	ra,0(sp)
   22b38:	00235d80 	call	235d8 <raise>
   22b3c:	01000044 	movi	r4,1
   22b40:	002435c0 	call	2435c <_exit>

00022b44 <malloc>:
   22b44:	00820034 	movhi	r2,2048
   22b48:	1083cf04 	addi	r2,r2,3900
   22b4c:	200b883a 	mov	r5,r4
   22b50:	11000017 	ldw	r4,0(r2)
   22b54:	0022b6c1 	jmpi	22b6c <_malloc_r>

00022b58 <free>:
   22b58:	00820034 	movhi	r2,2048
   22b5c:	1083cf04 	addi	r2,r2,3900
   22b60:	200b883a 	mov	r5,r4
   22b64:	11000017 	ldw	r4,0(r2)
   22b68:	0023df81 	jmpi	23df8 <_free_r>

00022b6c <_malloc_r>:
   22b6c:	defff604 	addi	sp,sp,-40
   22b70:	dfc00915 	stw	ra,36(sp)
   22b74:	df000815 	stw	fp,32(sp)
   22b78:	ddc00715 	stw	r23,28(sp)
   22b7c:	dd800615 	stw	r22,24(sp)
   22b80:	dd400515 	stw	r21,20(sp)
   22b84:	dd000415 	stw	r20,16(sp)
   22b88:	dcc00315 	stw	r19,12(sp)
   22b8c:	dc800215 	stw	r18,8(sp)
   22b90:	dc400115 	stw	r17,4(sp)
   22b94:	dc000015 	stw	r16,0(sp)
   22b98:	288002c4 	addi	r2,r5,11
   22b9c:	00c00584 	movi	r3,22
   22ba0:	1880042e 	bgeu	r3,r2,22bb4 <_malloc_r+0x48>
   22ba4:	047ffe04 	movi	r17,-8
   22ba8:	1462703a 	and	r17,r2,r17
   22bac:	8800020e 	bge	r17,zero,22bb8 <_malloc_r+0x4c>
   22bb0:	00000206 	br	22bbc <_malloc_r+0x50>
   22bb4:	04400404 	movi	r17,16
   22bb8:	8940032e 	bgeu	r17,r5,22bc8 <_malloc_r+0x5c>
   22bbc:	00800304 	movi	r2,12
   22bc0:	20800015 	stw	r2,0(r4)
   22bc4:	00017206 	br	23190 <_malloc_r+0x624>
   22bc8:	2027883a 	mov	r19,r4
   22bcc:	002468c0 	call	2468c <__malloc_lock>
   22bd0:	04820034 	movhi	r18,2048
   22bd4:	00807dc4 	movi	r2,503
   22bd8:	9481ea04 	addi	r18,r18,1960
   22bdc:	14401536 	bltu	r2,r17,22c34 <_malloc_r+0xc8>
   22be0:	8804d0fa 	srli	r2,r17,3
   22be4:	1087883a 	add	r3,r2,r2
   22be8:	18c7883a 	add	r3,r3,r3
   22bec:	18c7883a 	add	r3,r3,r3
   22bf0:	90c7883a 	add	r3,r18,r3
   22bf4:	1c000317 	ldw	r16,12(r3)
   22bf8:	80c0031e 	bne	r16,r3,22c08 <_malloc_r+0x9c>
   22bfc:	80c00204 	addi	r3,r16,8
   22c00:	84000517 	ldw	r16,20(r16)
   22c04:	80c00926 	beq	r16,r3,22c2c <_malloc_r+0xc0>
   22c08:	80c00117 	ldw	r3,4(r16)
   22c0c:	00bfff04 	movi	r2,-4
   22c10:	81000217 	ldw	r4,8(r16)
   22c14:	1884703a 	and	r2,r3,r2
   22c18:	80c00317 	ldw	r3,12(r16)
   22c1c:	8085883a 	add	r2,r16,r2
   22c20:	20c00315 	stw	r3,12(r4)
   22c24:	19000215 	stw	r4,8(r3)
   22c28:	00002d06 	br	22ce0 <_malloc_r+0x174>
   22c2c:	10800084 	addi	r2,r2,2
   22c30:	00003506 	br	22d08 <_malloc_r+0x19c>
   22c34:	8804d27a 	srli	r2,r17,9
   22c38:	10001826 	beq	r2,zero,22c9c <_malloc_r+0x130>
   22c3c:	00c00104 	movi	r3,4
   22c40:	18800336 	bltu	r3,r2,22c50 <_malloc_r+0xe4>
   22c44:	8804d1ba 	srli	r2,r17,6
   22c48:	10800e04 	addi	r2,r2,56
   22c4c:	00001606 	br	22ca8 <_malloc_r+0x13c>
   22c50:	00c00504 	movi	r3,20
   22c54:	18800236 	bltu	r3,r2,22c60 <_malloc_r+0xf4>
   22c58:	108016c4 	addi	r2,r2,91
   22c5c:	00001206 	br	22ca8 <_malloc_r+0x13c>
   22c60:	00c01504 	movi	r3,84
   22c64:	18800336 	bltu	r3,r2,22c74 <_malloc_r+0x108>
   22c68:	8804d33a 	srli	r2,r17,12
   22c6c:	10801b84 	addi	r2,r2,110
   22c70:	00000d06 	br	22ca8 <_malloc_r+0x13c>
   22c74:	00c05504 	movi	r3,340
   22c78:	18800336 	bltu	r3,r2,22c88 <_malloc_r+0x11c>
   22c7c:	8804d3fa 	srli	r2,r17,15
   22c80:	10801dc4 	addi	r2,r2,119
   22c84:	00000806 	br	22ca8 <_malloc_r+0x13c>
   22c88:	00c15504 	movi	r3,1364
   22c8c:	18800536 	bltu	r3,r2,22ca4 <_malloc_r+0x138>
   22c90:	8804d4ba 	srli	r2,r17,18
   22c94:	10801f04 	addi	r2,r2,124
   22c98:	00000306 	br	22ca8 <_malloc_r+0x13c>
   22c9c:	00800fc4 	movi	r2,63
   22ca0:	00000106 	br	22ca8 <_malloc_r+0x13c>
   22ca4:	00801f84 	movi	r2,126
   22ca8:	1087883a 	add	r3,r2,r2
   22cac:	18c7883a 	add	r3,r3,r3
   22cb0:	18c7883a 	add	r3,r3,r3
   22cb4:	90c7883a 	add	r3,r18,r3
   22cb8:	1c000317 	ldw	r16,12(r3)
   22cbc:	01bfff04 	movi	r6,-4
   22cc0:	01c003c4 	movi	r7,15
   22cc4:	00000906 	br	22cec <_malloc_r+0x180>
   22cc8:	28000716 	blt	r5,zero,22ce8 <_malloc_r+0x17c>
   22ccc:	80800317 	ldw	r2,12(r16)
   22cd0:	80c00217 	ldw	r3,8(r16)
   22cd4:	18800315 	stw	r2,12(r3)
   22cd8:	10c00215 	stw	r3,8(r2)
   22cdc:	8105883a 	add	r2,r16,r4
   22ce0:	10c00117 	ldw	r3,4(r2)
   22ce4:	00013106 	br	231ac <_malloc_r+0x640>
   22ce8:	84000317 	ldw	r16,12(r16)
   22cec:	80c00526 	beq	r16,r3,22d04 <_malloc_r+0x198>
   22cf0:	81000117 	ldw	r4,4(r16)
   22cf4:	2188703a 	and	r4,r4,r6
   22cf8:	244bc83a 	sub	r5,r4,r17
   22cfc:	397ff20e 	bge	r7,r5,22cc8 <__alt_data_end+0xf4022cc8>
   22d00:	10bfffc4 	addi	r2,r2,-1
   22d04:	10800044 	addi	r2,r2,1
   22d08:	01020034 	movhi	r4,2048
   22d0c:	94000417 	ldw	r16,16(r18)
   22d10:	2101ea04 	addi	r4,r4,1960
   22d14:	21800204 	addi	r6,r4,8
   22d18:	81805c26 	beq	r16,r6,22e8c <_malloc_r+0x320>
   22d1c:	81400117 	ldw	r5,4(r16)
   22d20:	00ffff04 	movi	r3,-4
   22d24:	01c003c4 	movi	r7,15
   22d28:	28c6703a 	and	r3,r5,r3
   22d2c:	1c4bc83a 	sub	r5,r3,r17
   22d30:	3940060e 	bge	r7,r5,22d4c <_malloc_r+0x1e0>
   22d34:	88800054 	ori	r2,r17,1
   22d38:	8447883a 	add	r3,r16,r17
   22d3c:	80800115 	stw	r2,4(r16)
   22d40:	20c00515 	stw	r3,20(r4)
   22d44:	20c00415 	stw	r3,16(r4)
   22d48:	00007706 	br	22f28 <_malloc_r+0x3bc>
   22d4c:	21800515 	stw	r6,20(r4)
   22d50:	21800415 	stw	r6,16(r4)
   22d54:	28000516 	blt	r5,zero,22d6c <_malloc_r+0x200>
   22d58:	80c7883a 	add	r3,r16,r3
   22d5c:	18800117 	ldw	r2,4(r3)
   22d60:	10800054 	ori	r2,r2,1
   22d64:	18800115 	stw	r2,4(r3)
   22d68:	00011206 	br	231b4 <_malloc_r+0x648>
   22d6c:	01407fc4 	movi	r5,511
   22d70:	28c01136 	bltu	r5,r3,22db8 <_malloc_r+0x24c>
   22d74:	1806d0fa 	srli	r3,r3,3
   22d78:	01400044 	movi	r5,1
   22d7c:	180fd0ba 	srai	r7,r3,2
   22d80:	18c7883a 	add	r3,r3,r3
   22d84:	18c7883a 	add	r3,r3,r3
   22d88:	29ce983a 	sll	r7,r5,r7
   22d8c:	21400117 	ldw	r5,4(r4)
   22d90:	18c7883a 	add	r3,r3,r3
   22d94:	394ab03a 	or	r5,r7,r5
   22d98:	21400115 	stw	r5,4(r4)
   22d9c:	1909883a 	add	r4,r3,r4
   22da0:	20c00217 	ldw	r3,8(r4)
   22da4:	81000315 	stw	r4,12(r16)
   22da8:	80c00215 	stw	r3,8(r16)
   22dac:	24000215 	stw	r16,8(r4)
   22db0:	1c000315 	stw	r16,12(r3)
   22db4:	00003506 	br	22e8c <_malloc_r+0x320>
   22db8:	180ad27a 	srli	r5,r3,9
   22dbc:	01000104 	movi	r4,4
   22dc0:	21400336 	bltu	r4,r5,22dd0 <_malloc_r+0x264>
   22dc4:	180ad1ba 	srli	r5,r3,6
   22dc8:	29400e04 	addi	r5,r5,56
   22dcc:	00001406 	br	22e20 <_malloc_r+0x2b4>
   22dd0:	01000504 	movi	r4,20
   22dd4:	21400236 	bltu	r4,r5,22de0 <_malloc_r+0x274>
   22dd8:	294016c4 	addi	r5,r5,91
   22ddc:	00001006 	br	22e20 <_malloc_r+0x2b4>
   22de0:	01001504 	movi	r4,84
   22de4:	21400336 	bltu	r4,r5,22df4 <_malloc_r+0x288>
   22de8:	180ad33a 	srli	r5,r3,12
   22dec:	29401b84 	addi	r5,r5,110
   22df0:	00000b06 	br	22e20 <_malloc_r+0x2b4>
   22df4:	01005504 	movi	r4,340
   22df8:	21400336 	bltu	r4,r5,22e08 <_malloc_r+0x29c>
   22dfc:	180ad3fa 	srli	r5,r3,15
   22e00:	29401dc4 	addi	r5,r5,119
   22e04:	00000606 	br	22e20 <_malloc_r+0x2b4>
   22e08:	01015504 	movi	r4,1364
   22e0c:	21400336 	bltu	r4,r5,22e1c <_malloc_r+0x2b0>
   22e10:	180ad4ba 	srli	r5,r3,18
   22e14:	29401f04 	addi	r5,r5,124
   22e18:	00000106 	br	22e20 <_malloc_r+0x2b4>
   22e1c:	01401f84 	movi	r5,126
   22e20:	2949883a 	add	r4,r5,r5
   22e24:	2109883a 	add	r4,r4,r4
   22e28:	2109883a 	add	r4,r4,r4
   22e2c:	9109883a 	add	r4,r18,r4
   22e30:	21c00217 	ldw	r7,8(r4)
   22e34:	02020034 	movhi	r8,2048
   22e38:	4201ea04 	addi	r8,r8,1960
   22e3c:	3900081e 	bne	r7,r4,22e60 <_malloc_r+0x2f4>
   22e40:	280bd0ba 	srai	r5,r5,2
   22e44:	00c00044 	movi	r3,1
   22e48:	194a983a 	sll	r5,r3,r5
   22e4c:	40c00117 	ldw	r3,4(r8)
   22e50:	28cab03a 	or	r5,r5,r3
   22e54:	41400115 	stw	r5,4(r8)
   22e58:	3807883a 	mov	r3,r7
   22e5c:	00000706 	br	22e7c <_malloc_r+0x310>
   22e60:	023fff04 	movi	r8,-4
   22e64:	39400117 	ldw	r5,4(r7)
   22e68:	2a0a703a 	and	r5,r5,r8
   22e6c:	1940022e 	bgeu	r3,r5,22e78 <_malloc_r+0x30c>
   22e70:	39c00217 	ldw	r7,8(r7)
   22e74:	393ffb1e 	bne	r7,r4,22e64 <__alt_data_end+0xf4022e64>
   22e78:	38c00317 	ldw	r3,12(r7)
   22e7c:	80c00315 	stw	r3,12(r16)
   22e80:	81c00215 	stw	r7,8(r16)
   22e84:	1c000215 	stw	r16,8(r3)
   22e88:	3c000315 	stw	r16,12(r7)
   22e8c:	1007d0ba 	srai	r3,r2,2
   22e90:	02000044 	movi	r8,1
   22e94:	40d0983a 	sll	r8,r8,r3
   22e98:	90c00117 	ldw	r3,4(r18)
   22e9c:	1a004d36 	bltu	r3,r8,22fd4 <_malloc_r+0x468>
   22ea0:	40c8703a 	and	r4,r8,r3
   22ea4:	2000061e 	bne	r4,zero,22ec0 <_malloc_r+0x354>
   22ea8:	013fff04 	movi	r4,-4
   22eac:	1104703a 	and	r2,r2,r4
   22eb0:	4211883a 	add	r8,r8,r8
   22eb4:	40c8703a 	and	r4,r8,r3
   22eb8:	10800104 	addi	r2,r2,4
   22ebc:	203ffc26 	beq	r4,zero,22eb0 <__alt_data_end+0xf4022eb0>
   22ec0:	02bfff04 	movi	r10,-4
   22ec4:	02c003c4 	movi	r11,15
   22ec8:	1087883a 	add	r3,r2,r2
   22ecc:	18c7883a 	add	r3,r3,r3
   22ed0:	18c7883a 	add	r3,r3,r3
   22ed4:	90c7883a 	add	r3,r18,r3
   22ed8:	19c00304 	addi	r7,r3,12
   22edc:	1013883a 	mov	r9,r2
   22ee0:	3b3ffd04 	addi	r12,r7,-12
   22ee4:	3c000017 	ldw	r16,0(r7)
   22ee8:	00000106 	br	22ef0 <_malloc_r+0x384>
   22eec:	84000317 	ldw	r16,12(r16)
   22ef0:	83001e26 	beq	r16,r12,22f6c <_malloc_r+0x400>
   22ef4:	81000117 	ldw	r4,4(r16)
   22ef8:	2288703a 	and	r4,r4,r10
   22efc:	244bc83a 	sub	r5,r4,r17
   22f00:	5940100e 	bge	r11,r5,22f44 <_malloc_r+0x3d8>
   22f04:	88800054 	ori	r2,r17,1
   22f08:	80800115 	stw	r2,4(r16)
   22f0c:	81000217 	ldw	r4,8(r16)
   22f10:	80800317 	ldw	r2,12(r16)
   22f14:	8447883a 	add	r3,r16,r17
   22f18:	20800315 	stw	r2,12(r4)
   22f1c:	11000215 	stw	r4,8(r2)
   22f20:	90c00515 	stw	r3,20(r18)
   22f24:	90c00415 	stw	r3,16(r18)
   22f28:	28800054 	ori	r2,r5,1
   22f2c:	19800315 	stw	r6,12(r3)
   22f30:	19800215 	stw	r6,8(r3)
   22f34:	18800115 	stw	r2,4(r3)
   22f38:	1947883a 	add	r3,r3,r5
   22f3c:	19400015 	stw	r5,0(r3)
   22f40:	00009c06 	br	231b4 <_malloc_r+0x648>
   22f44:	283fe916 	blt	r5,zero,22eec <__alt_data_end+0xf4022eec>
   22f48:	8105883a 	add	r2,r16,r4
   22f4c:	10c00117 	ldw	r3,4(r2)
   22f50:	18c00054 	ori	r3,r3,1
   22f54:	10c00115 	stw	r3,4(r2)
   22f58:	80800317 	ldw	r2,12(r16)
   22f5c:	80c00217 	ldw	r3,8(r16)
   22f60:	18800315 	stw	r2,12(r3)
   22f64:	10c00215 	stw	r3,8(r2)
   22f68:	00009206 	br	231b4 <_malloc_r+0x648>
   22f6c:	4a400044 	addi	r9,r9,1
   22f70:	490000cc 	andi	r4,r9,3
   22f74:	39c00204 	addi	r7,r7,8
   22f78:	203fd91e 	bne	r4,zero,22ee0 <__alt_data_end+0xf4022ee0>
   22f7c:	110000cc 	andi	r4,r2,3
   22f80:	2000051e 	bne	r4,zero,22f98 <_malloc_r+0x42c>
   22f84:	90c00117 	ldw	r3,4(r18)
   22f88:	0204303a 	nor	r2,zero,r8
   22f8c:	10c4703a 	and	r2,r2,r3
   22f90:	90800115 	stw	r2,4(r18)
   22f94:	00000406 	br	22fa8 <_malloc_r+0x43c>
   22f98:	193ffe04 	addi	r4,r3,-8
   22f9c:	18c00017 	ldw	r3,0(r3)
   22fa0:	10bfffc4 	addi	r2,r2,-1
   22fa4:	193ff526 	beq	r3,r4,22f7c <__alt_data_end+0xf4022f7c>
   22fa8:	90800117 	ldw	r2,4(r18)
   22fac:	4211883a 	add	r8,r8,r8
   22fb0:	12000836 	bltu	r2,r8,22fd4 <_malloc_r+0x468>
   22fb4:	40000726 	beq	r8,zero,22fd4 <_malloc_r+0x468>
   22fb8:	4086703a 	and	r3,r8,r2
   22fbc:	1800031e 	bne	r3,zero,22fcc <_malloc_r+0x460>
   22fc0:	4a400104 	addi	r9,r9,4
   22fc4:	4211883a 	add	r8,r8,r8
   22fc8:	003ffb06 	br	22fb8 <__alt_data_end+0xf4022fb8>
   22fcc:	4805883a 	mov	r2,r9
   22fd0:	003fbd06 	br	22ec8 <__alt_data_end+0xf4022ec8>
   22fd4:	95c00217 	ldw	r23,8(r18)
   22fd8:	00bfff04 	movi	r2,-4
   22fdc:	bd400117 	ldw	r21,4(r23)
   22fe0:	a8aa703a 	and	r21,r21,r2
   22fe4:	ac400336 	bltu	r21,r17,22ff4 <_malloc_r+0x488>
   22fe8:	ac47c83a 	sub	r3,r21,r17
   22fec:	008003c4 	movi	r2,15
   22ff0:	10c06916 	blt	r2,r3,23198 <_malloc_r+0x62c>
   22ff4:	d0a02917 	ldw	r2,-32604(gp)
   22ff8:	d0e01217 	ldw	r3,-32696(gp)
   22ffc:	05bfffc4 	movi	r22,-1
   23000:	bd61883a 	add	r16,r23,r21
   23004:	8885883a 	add	r2,r17,r2
   23008:	1d80021e 	bne	r3,r22,23014 <_malloc_r+0x4a8>
   2300c:	17000404 	addi	fp,r2,16
   23010:	00000306 	br	23020 <_malloc_r+0x4b4>
   23014:	108023c4 	addi	r2,r2,143
   23018:	073fe004 	movi	fp,-128
   2301c:	1738703a 	and	fp,r2,fp
   23020:	9809883a 	mov	r4,r19
   23024:	e00b883a 	mov	r5,fp
   23028:	002334c0 	call	2334c <_sbrk_r>
   2302c:	1029883a 	mov	r20,r2
   23030:	15804d26 	beq	r2,r22,23168 <_malloc_r+0x5fc>
   23034:	1400012e 	bgeu	r2,r16,2303c <_malloc_r+0x4d0>
   23038:	bc804b1e 	bne	r23,r18,23168 <_malloc_r+0x5fc>
   2303c:	05820034 	movhi	r22,2048
   23040:	b586b504 	addi	r22,r22,6868
   23044:	b1000017 	ldw	r4,0(r22)
   23048:	e109883a 	add	r4,fp,r4
   2304c:	b1000015 	stw	r4,0(r22)
   23050:	a400071e 	bne	r20,r16,23070 <_malloc_r+0x504>
   23054:	a0801fcc 	andi	r2,r20,127
   23058:	1000051e 	bne	r2,zero,23070 <_malloc_r+0x504>
   2305c:	90c00217 	ldw	r3,8(r18)
   23060:	e545883a 	add	r2,fp,r21
   23064:	10800054 	ori	r2,r2,1
   23068:	18800115 	stw	r2,4(r3)
   2306c:	00003706 	br	2314c <_malloc_r+0x5e0>
   23070:	d0e01217 	ldw	r3,-32696(gp)
   23074:	00bfffc4 	movi	r2,-1
   23078:	1880021e 	bne	r3,r2,23084 <_malloc_r+0x518>
   2307c:	d5201215 	stw	r20,-32696(gp)
   23080:	00000306 	br	23090 <_malloc_r+0x524>
   23084:	a407c83a 	sub	r3,r20,r16
   23088:	20c7883a 	add	r3,r4,r3
   2308c:	b0c00015 	stw	r3,0(r22)
   23090:	a40001cc 	andi	r16,r20,7
   23094:	80000426 	beq	r16,zero,230a8 <_malloc_r+0x53c>
   23098:	00c00204 	movi	r3,8
   2309c:	1c21c83a 	sub	r16,r3,r16
   230a0:	a429883a 	add	r20,r20,r16
   230a4:	00000106 	br	230ac <_malloc_r+0x540>
   230a8:	0021883a 	mov	r16,zero
   230ac:	a705883a 	add	r2,r20,fp
   230b0:	10801fcc 	andi	r2,r2,127
   230b4:	84002004 	addi	r16,r16,128
   230b8:	80a1c83a 	sub	r16,r16,r2
   230bc:	9809883a 	mov	r4,r19
   230c0:	800b883a 	mov	r5,r16
   230c4:	002334c0 	call	2334c <_sbrk_r>
   230c8:	00ffffc4 	movi	r3,-1
   230cc:	10c0021e 	bne	r2,r3,230d8 <_malloc_r+0x56c>
   230d0:	a005883a 	mov	r2,r20
   230d4:	0021883a 	mov	r16,zero
   230d8:	b0c00017 	ldw	r3,0(r22)
   230dc:	1505c83a 	sub	r2,r2,r20
   230e0:	95000215 	stw	r20,8(r18)
   230e4:	80c7883a 	add	r3,r16,r3
   230e8:	1421883a 	add	r16,r2,r16
   230ec:	84000054 	ori	r16,r16,1
   230f0:	b0c00015 	stw	r3,0(r22)
   230f4:	a4000115 	stw	r16,4(r20)
   230f8:	bc801426 	beq	r23,r18,2314c <_malloc_r+0x5e0>
   230fc:	00c003c4 	movi	r3,15
   23100:	1d400336 	bltu	r3,r21,23110 <_malloc_r+0x5a4>
   23104:	00800044 	movi	r2,1
   23108:	a0800115 	stw	r2,4(r20)
   2310c:	00001606 	br	23168 <_malloc_r+0x5fc>
   23110:	00bffe04 	movi	r2,-8
   23114:	ad7ffd04 	addi	r21,r21,-12
   23118:	a8aa703a 	and	r21,r21,r2
   2311c:	b8800117 	ldw	r2,4(r23)
   23120:	01000144 	movi	r4,5
   23124:	1080004c 	andi	r2,r2,1
   23128:	a884b03a 	or	r2,r21,r2
   2312c:	b8800115 	stw	r2,4(r23)
   23130:	bd45883a 	add	r2,r23,r21
   23134:	11000115 	stw	r4,4(r2)
   23138:	11000215 	stw	r4,8(r2)
   2313c:	1d40032e 	bgeu	r3,r21,2314c <_malloc_r+0x5e0>
   23140:	9809883a 	mov	r4,r19
   23144:	b9400204 	addi	r5,r23,8
   23148:	0023df80 	call	23df8 <_free_r>
   2314c:	b0800017 	ldw	r2,0(r22)
   23150:	d0e02817 	ldw	r3,-32608(gp)
   23154:	1880012e 	bgeu	r3,r2,2315c <_malloc_r+0x5f0>
   23158:	d0a02815 	stw	r2,-32608(gp)
   2315c:	d0e02717 	ldw	r3,-32612(gp)
   23160:	1880012e 	bgeu	r3,r2,23168 <_malloc_r+0x5fc>
   23164:	d0a02715 	stw	r2,-32612(gp)
   23168:	90800217 	ldw	r2,8(r18)
   2316c:	10c00117 	ldw	r3,4(r2)
   23170:	00bfff04 	movi	r2,-4
   23174:	1884703a 	and	r2,r3,r2
   23178:	1447c83a 	sub	r3,r2,r17
   2317c:	14400236 	bltu	r2,r17,23188 <_malloc_r+0x61c>
   23180:	008003c4 	movi	r2,15
   23184:	10c00416 	blt	r2,r3,23198 <_malloc_r+0x62c>
   23188:	9809883a 	mov	r4,r19
   2318c:	00246ac0 	call	246ac <__malloc_unlock>
   23190:	0005883a 	mov	r2,zero
   23194:	00000a06 	br	231c0 <_malloc_r+0x654>
   23198:	94000217 	ldw	r16,8(r18)
   2319c:	88800054 	ori	r2,r17,1
   231a0:	80800115 	stw	r2,4(r16)
   231a4:	8445883a 	add	r2,r16,r17
   231a8:	90800215 	stw	r2,8(r18)
   231ac:	18c00054 	ori	r3,r3,1
   231b0:	10c00115 	stw	r3,4(r2)
   231b4:	9809883a 	mov	r4,r19
   231b8:	00246ac0 	call	246ac <__malloc_unlock>
   231bc:	80800204 	addi	r2,r16,8
   231c0:	dfc00917 	ldw	ra,36(sp)
   231c4:	df000817 	ldw	fp,32(sp)
   231c8:	ddc00717 	ldw	r23,28(sp)
   231cc:	dd800617 	ldw	r22,24(sp)
   231d0:	dd400517 	ldw	r21,20(sp)
   231d4:	dd000417 	ldw	r20,16(sp)
   231d8:	dcc00317 	ldw	r19,12(sp)
   231dc:	dc800217 	ldw	r18,8(sp)
   231e0:	dc400117 	ldw	r17,4(sp)
   231e4:	dc000017 	ldw	r16,0(sp)
   231e8:	dec00a04 	addi	sp,sp,40
   231ec:	f800283a 	ret

000231f0 <memset>:
   231f0:	2005883a 	mov	r2,r4
   231f4:	2007883a 	mov	r3,r4
   231f8:	218d883a 	add	r6,r4,r6
   231fc:	19800326 	beq	r3,r6,2320c <memset+0x1c>
   23200:	19400005 	stb	r5,0(r3)
   23204:	18c00044 	addi	r3,r3,1
   23208:	003ffc06 	br	231fc <__alt_data_end+0xf40231fc>
   2320c:	f800283a 	ret

00023210 <_printf_r>:
   23210:	defffd04 	addi	sp,sp,-12
   23214:	dfc00015 	stw	ra,0(sp)
   23218:	d9800115 	stw	r6,4(sp)
   2321c:	d9c00215 	stw	r7,8(sp)
   23220:	20c00217 	ldw	r3,8(r4)
   23224:	280d883a 	mov	r6,r5
   23228:	014000b4 	movhi	r5,2
   2322c:	29502004 	addi	r5,r5,16512
   23230:	19400115 	stw	r5,4(r3)
   23234:	21400217 	ldw	r5,8(r4)
   23238:	d9c00104 	addi	r7,sp,4
   2323c:	00237440 	call	23744 <___vfprintf_internal_r>
   23240:	dfc00017 	ldw	ra,0(sp)
   23244:	dec00304 	addi	sp,sp,12
   23248:	f800283a 	ret

0002324c <printf>:
   2324c:	defffc04 	addi	sp,sp,-16
   23250:	dfc00015 	stw	ra,0(sp)
   23254:	d9400115 	stw	r5,4(sp)
   23258:	d9800215 	stw	r6,8(sp)
   2325c:	d9c00315 	stw	r7,12(sp)
   23260:	00820034 	movhi	r2,2048
   23264:	1083cf04 	addi	r2,r2,3900
   23268:	10800017 	ldw	r2,0(r2)
   2326c:	200b883a 	mov	r5,r4
   23270:	010000b4 	movhi	r4,2
   23274:	10c00217 	ldw	r3,8(r2)
   23278:	21102004 	addi	r4,r4,16512
   2327c:	d9800104 	addi	r6,sp,4
   23280:	19000115 	stw	r4,4(r3)
   23284:	11000217 	ldw	r4,8(r2)
   23288:	0023cb00 	call	23cb0 <__vfprintf_internal>
   2328c:	dfc00017 	ldw	ra,0(sp)
   23290:	dec00404 	addi	sp,sp,16
   23294:	f800283a 	ret

00023298 <_putchar_r>:
   23298:	21800217 	ldw	r6,8(r4)
   2329c:	00241801 	jmpi	24180 <_putc_r>

000232a0 <putchar>:
   232a0:	00820034 	movhi	r2,2048
   232a4:	1083cf04 	addi	r2,r2,3900
   232a8:	200b883a 	mov	r5,r4
   232ac:	11000017 	ldw	r4,0(r2)
   232b0:	21800217 	ldw	r6,8(r4)
   232b4:	00241801 	jmpi	24180 <_putc_r>

000232b8 <_puts_r>:
   232b8:	defffd04 	addi	sp,sp,-12
   232bc:	dc000015 	stw	r16,0(sp)
   232c0:	2021883a 	mov	r16,r4
   232c4:	2809883a 	mov	r4,r5
   232c8:	dfc00215 	stw	ra,8(sp)
   232cc:	dc400115 	stw	r17,4(sp)
   232d0:	2823883a 	mov	r17,r5
   232d4:	00236bc0 	call	236bc <strlen>
   232d8:	81400217 	ldw	r5,8(r16)
   232dc:	00c000b4 	movhi	r3,2
   232e0:	18d02004 	addi	r3,r3,16512
   232e4:	28c00115 	stw	r3,4(r5)
   232e8:	8009883a 	mov	r4,r16
   232ec:	880d883a 	mov	r6,r17
   232f0:	100f883a 	mov	r7,r2
   232f4:	00240800 	call	24080 <__sfvwrite_small_dev>
   232f8:	00ffffc4 	movi	r3,-1
   232fc:	10c00926 	beq	r2,r3,23324 <_puts_r+0x6c>
   23300:	81400217 	ldw	r5,8(r16)
   23304:	01820034 	movhi	r6,2048
   23308:	8009883a 	mov	r4,r16
   2330c:	28800117 	ldw	r2,4(r5)
   23310:	31814d04 	addi	r6,r6,1332
   23314:	01c00044 	movi	r7,1
   23318:	103ee83a 	callr	r2
   2331c:	10bfffe0 	cmpeqi	r2,r2,-1
   23320:	0085c83a 	sub	r2,zero,r2
   23324:	dfc00217 	ldw	ra,8(sp)
   23328:	dc400117 	ldw	r17,4(sp)
   2332c:	dc000017 	ldw	r16,0(sp)
   23330:	dec00304 	addi	sp,sp,12
   23334:	f800283a 	ret

00023338 <puts>:
   23338:	00820034 	movhi	r2,2048
   2333c:	1083cf04 	addi	r2,r2,3900
   23340:	200b883a 	mov	r5,r4
   23344:	11000017 	ldw	r4,0(r2)
   23348:	00232b81 	jmpi	232b8 <_puts_r>

0002334c <_sbrk_r>:
   2334c:	defffd04 	addi	sp,sp,-12
   23350:	dc000015 	stw	r16,0(sp)
   23354:	04020034 	movhi	r16,2048
   23358:	dc400115 	stw	r17,4(sp)
   2335c:	8403e404 	addi	r16,r16,3984
   23360:	2023883a 	mov	r17,r4
   23364:	2809883a 	mov	r4,r5
   23368:	dfc00215 	stw	ra,8(sp)
   2336c:	80000015 	stw	zero,0(r16)
   23370:	00249380 	call	24938 <sbrk>
   23374:	00ffffc4 	movi	r3,-1
   23378:	10c0031e 	bne	r2,r3,23388 <_sbrk_r+0x3c>
   2337c:	80c00017 	ldw	r3,0(r16)
   23380:	18000126 	beq	r3,zero,23388 <_sbrk_r+0x3c>
   23384:	88c00015 	stw	r3,0(r17)
   23388:	dfc00217 	ldw	ra,8(sp)
   2338c:	dc400117 	ldw	r17,4(sp)
   23390:	dc000017 	ldw	r16,0(sp)
   23394:	dec00304 	addi	sp,sp,12
   23398:	f800283a 	ret

0002339c <_init_signal_r>:
   2339c:	20800b17 	ldw	r2,44(r4)
   233a0:	defffe04 	addi	sp,sp,-8
   233a4:	dc000015 	stw	r16,0(sp)
   233a8:	dfc00115 	stw	ra,4(sp)
   233ac:	2021883a 	mov	r16,r4
   233b0:	10000226 	beq	r2,zero,233bc <_init_signal_r+0x20>
   233b4:	0005883a 	mov	r2,zero
   233b8:	00000d06 	br	233f0 <_init_signal_r+0x54>
   233bc:	01402004 	movi	r5,128
   233c0:	0022b6c0 	call	22b6c <_malloc_r>
   233c4:	80800b15 	stw	r2,44(r16)
   233c8:	10000826 	beq	r2,zero,233ec <_init_signal_r+0x50>
   233cc:	0005883a 	mov	r2,zero
   233d0:	01002004 	movi	r4,128
   233d4:	80c00b17 	ldw	r3,44(r16)
   233d8:	1887883a 	add	r3,r3,r2
   233dc:	18000015 	stw	zero,0(r3)
   233e0:	10800104 	addi	r2,r2,4
   233e4:	113ffb1e 	bne	r2,r4,233d4 <__alt_data_end+0xf40233d4>
   233e8:	003ff206 	br	233b4 <__alt_data_end+0xf40233b4>
   233ec:	00bfffc4 	movi	r2,-1
   233f0:	dfc00117 	ldw	ra,4(sp)
   233f4:	dc000017 	ldw	r16,0(sp)
   233f8:	dec00204 	addi	sp,sp,8
   233fc:	f800283a 	ret

00023400 <_signal_r>:
   23400:	defffc04 	addi	sp,sp,-16
   23404:	dc400115 	stw	r17,4(sp)
   23408:	dfc00315 	stw	ra,12(sp)
   2340c:	dc800215 	stw	r18,8(sp)
   23410:	dc000015 	stw	r16,0(sp)
   23414:	008007c4 	movi	r2,31
   23418:	2023883a 	mov	r17,r4
   2341c:	1140032e 	bgeu	r2,r5,2342c <_signal_r+0x2c>
   23420:	00800584 	movi	r2,22
   23424:	20800015 	stw	r2,0(r4)
   23428:	00000d06 	br	23460 <_signal_r+0x60>
   2342c:	20800b17 	ldw	r2,44(r4)
   23430:	3025883a 	mov	r18,r6
   23434:	2821883a 	mov	r16,r5
   23438:	10000726 	beq	r2,zero,23458 <_signal_r+0x58>
   2343c:	88800b17 	ldw	r2,44(r17)
   23440:	8421883a 	add	r16,r16,r16
   23444:	8421883a 	add	r16,r16,r16
   23448:	1421883a 	add	r16,r2,r16
   2344c:	80800017 	ldw	r2,0(r16)
   23450:	84800015 	stw	r18,0(r16)
   23454:	00000306 	br	23464 <_signal_r+0x64>
   23458:	002339c0 	call	2339c <_init_signal_r>
   2345c:	103ff726 	beq	r2,zero,2343c <__alt_data_end+0xf402343c>
   23460:	00bfffc4 	movi	r2,-1
   23464:	dfc00317 	ldw	ra,12(sp)
   23468:	dc800217 	ldw	r18,8(sp)
   2346c:	dc400117 	ldw	r17,4(sp)
   23470:	dc000017 	ldw	r16,0(sp)
   23474:	dec00404 	addi	sp,sp,16
   23478:	f800283a 	ret

0002347c <_raise_r>:
   2347c:	008007c4 	movi	r2,31
   23480:	1140042e 	bgeu	r2,r5,23494 <_raise_r+0x18>
   23484:	00800584 	movi	r2,22
   23488:	20800015 	stw	r2,0(r4)
   2348c:	00bfffc4 	movi	r2,-1
   23490:	f800283a 	ret
   23494:	20c00b17 	ldw	r3,44(r4)
   23498:	defffd04 	addi	sp,sp,-12
   2349c:	dc400115 	stw	r17,4(sp)
   234a0:	dc000015 	stw	r16,0(sp)
   234a4:	dfc00215 	stw	ra,8(sp)
   234a8:	2821883a 	mov	r16,r5
   234ac:	2023883a 	mov	r17,r4
   234b0:	18000526 	beq	r3,zero,234c8 <_raise_r+0x4c>
   234b4:	2945883a 	add	r2,r5,r5
   234b8:	1085883a 	add	r2,r2,r2
   234bc:	1887883a 	add	r3,r3,r2
   234c0:	19400017 	ldw	r5,0(r3)
   234c4:	28000a1e 	bne	r5,zero,234f0 <_raise_r+0x74>
   234c8:	8809883a 	mov	r4,r17
   234cc:	00236800 	call	23680 <_getpid_r>
   234d0:	8809883a 	mov	r4,r17
   234d4:	100b883a 	mov	r5,r2
   234d8:	800d883a 	mov	r6,r16
   234dc:	dfc00217 	ldw	ra,8(sp)
   234e0:	dc400117 	ldw	r17,4(sp)
   234e4:	dc000017 	ldw	r16,0(sp)
   234e8:	dec00304 	addi	sp,sp,12
   234ec:	002362c1 	jmpi	2362c <_kill_r>
   234f0:	00800044 	movi	r2,1
   234f4:	28800826 	beq	r5,r2,23518 <_raise_r+0x9c>
   234f8:	013fffc4 	movi	r4,-1
   234fc:	2900031e 	bne	r5,r4,2350c <_raise_r+0x90>
   23500:	00c00584 	movi	r3,22
   23504:	88c00015 	stw	r3,0(r17)
   23508:	00000406 	br	2351c <_raise_r+0xa0>
   2350c:	18000015 	stw	zero,0(r3)
   23510:	8009883a 	mov	r4,r16
   23514:	283ee83a 	callr	r5
   23518:	0005883a 	mov	r2,zero
   2351c:	dfc00217 	ldw	ra,8(sp)
   23520:	dc400117 	ldw	r17,4(sp)
   23524:	dc000017 	ldw	r16,0(sp)
   23528:	dec00304 	addi	sp,sp,12
   2352c:	f800283a 	ret

00023530 <__sigtramp_r>:
   23530:	008007c4 	movi	r2,31
   23534:	11402636 	bltu	r2,r5,235d0 <__sigtramp_r+0xa0>
   23538:	20800b17 	ldw	r2,44(r4)
   2353c:	defffd04 	addi	sp,sp,-12
   23540:	dc400115 	stw	r17,4(sp)
   23544:	dc000015 	stw	r16,0(sp)
   23548:	dfc00215 	stw	ra,8(sp)
   2354c:	2023883a 	mov	r17,r4
   23550:	2821883a 	mov	r16,r5
   23554:	10000726 	beq	r2,zero,23574 <__sigtramp_r+0x44>
   23558:	88c00b17 	ldw	r3,44(r17)
   2355c:	8405883a 	add	r2,r16,r16
   23560:	1085883a 	add	r2,r2,r2
   23564:	1885883a 	add	r2,r3,r2
   23568:	10c00017 	ldw	r3,0(r2)
   2356c:	1800051e 	bne	r3,zero,23584 <__sigtramp_r+0x54>
   23570:	00000d06 	br	235a8 <__sigtramp_r+0x78>
   23574:	002339c0 	call	2339c <_init_signal_r>
   23578:	103ff726 	beq	r2,zero,23558 <__alt_data_end+0xf4023558>
   2357c:	00bfffc4 	movi	r2,-1
   23580:	00000e06 	br	235bc <__sigtramp_r+0x8c>
   23584:	013fffc4 	movi	r4,-1
   23588:	19000926 	beq	r3,r4,235b0 <__sigtramp_r+0x80>
   2358c:	01000044 	movi	r4,1
   23590:	19000926 	beq	r3,r4,235b8 <__sigtramp_r+0x88>
   23594:	10000015 	stw	zero,0(r2)
   23598:	8009883a 	mov	r4,r16
   2359c:	183ee83a 	callr	r3
   235a0:	0005883a 	mov	r2,zero
   235a4:	00000506 	br	235bc <__sigtramp_r+0x8c>
   235a8:	00800044 	movi	r2,1
   235ac:	00000306 	br	235bc <__sigtramp_r+0x8c>
   235b0:	00800084 	movi	r2,2
   235b4:	00000106 	br	235bc <__sigtramp_r+0x8c>
   235b8:	008000c4 	movi	r2,3
   235bc:	dfc00217 	ldw	ra,8(sp)
   235c0:	dc400117 	ldw	r17,4(sp)
   235c4:	dc000017 	ldw	r16,0(sp)
   235c8:	dec00304 	addi	sp,sp,12
   235cc:	f800283a 	ret
   235d0:	00bfffc4 	movi	r2,-1
   235d4:	f800283a 	ret

000235d8 <raise>:
   235d8:	00820034 	movhi	r2,2048
   235dc:	1083cf04 	addi	r2,r2,3900
   235e0:	200b883a 	mov	r5,r4
   235e4:	11000017 	ldw	r4,0(r2)
   235e8:	002347c1 	jmpi	2347c <_raise_r>

000235ec <signal>:
   235ec:	00c20034 	movhi	r3,2048
   235f0:	18c3cf04 	addi	r3,r3,3900
   235f4:	2005883a 	mov	r2,r4
   235f8:	19000017 	ldw	r4,0(r3)
   235fc:	280d883a 	mov	r6,r5
   23600:	100b883a 	mov	r5,r2
   23604:	00234001 	jmpi	23400 <_signal_r>

00023608 <_init_signal>:
   23608:	00820034 	movhi	r2,2048
   2360c:	1083cf04 	addi	r2,r2,3900
   23610:	11000017 	ldw	r4,0(r2)
   23614:	002339c1 	jmpi	2339c <_init_signal_r>

00023618 <__sigtramp>:
   23618:	00820034 	movhi	r2,2048
   2361c:	1083cf04 	addi	r2,r2,3900
   23620:	200b883a 	mov	r5,r4
   23624:	11000017 	ldw	r4,0(r2)
   23628:	00235301 	jmpi	23530 <__sigtramp_r>

0002362c <_kill_r>:
   2362c:	defffd04 	addi	sp,sp,-12
   23630:	dc000015 	stw	r16,0(sp)
   23634:	04020034 	movhi	r16,2048
   23638:	dc400115 	stw	r17,4(sp)
   2363c:	8403e404 	addi	r16,r16,3984
   23640:	2023883a 	mov	r17,r4
   23644:	2809883a 	mov	r4,r5
   23648:	300b883a 	mov	r5,r6
   2364c:	dfc00215 	stw	ra,8(sp)
   23650:	80000015 	stw	zero,0(r16)
   23654:	00244000 	call	24400 <kill>
   23658:	00ffffc4 	movi	r3,-1
   2365c:	10c0031e 	bne	r2,r3,2366c <_kill_r+0x40>
   23660:	80c00017 	ldw	r3,0(r16)
   23664:	18000126 	beq	r3,zero,2366c <_kill_r+0x40>
   23668:	88c00015 	stw	r3,0(r17)
   2366c:	dfc00217 	ldw	ra,8(sp)
   23670:	dc400117 	ldw	r17,4(sp)
   23674:	dc000017 	ldw	r16,0(sp)
   23678:	dec00304 	addi	sp,sp,12
   2367c:	f800283a 	ret

00023680 <_getpid_r>:
   23680:	00243901 	jmpi	24390 <getpid>

00023684 <strcmp>:
   23684:	20800003 	ldbu	r2,0(r4)
   23688:	10c03fcc 	andi	r3,r2,255
   2368c:	18c0201c 	xori	r3,r3,128
   23690:	18ffe004 	addi	r3,r3,-128
   23694:	18000526 	beq	r3,zero,236ac <strcmp+0x28>
   23698:	29800007 	ldb	r6,0(r5)
   2369c:	1980031e 	bne	r3,r6,236ac <strcmp+0x28>
   236a0:	21000044 	addi	r4,r4,1
   236a4:	29400044 	addi	r5,r5,1
   236a8:	003ff606 	br	23684 <__alt_data_end+0xf4023684>
   236ac:	28c00003 	ldbu	r3,0(r5)
   236b0:	10803fcc 	andi	r2,r2,255
   236b4:	10c5c83a 	sub	r2,r2,r3
   236b8:	f800283a 	ret

000236bc <strlen>:
   236bc:	2005883a 	mov	r2,r4
   236c0:	10c00007 	ldb	r3,0(r2)
   236c4:	18000226 	beq	r3,zero,236d0 <strlen+0x14>
   236c8:	10800044 	addi	r2,r2,1
   236cc:	003ffc06 	br	236c0 <__alt_data_end+0xf40236c0>
   236d0:	1105c83a 	sub	r2,r2,r4
   236d4:	f800283a 	ret

000236d8 <print_repeat>:
   236d8:	defffb04 	addi	sp,sp,-20
   236dc:	dc800315 	stw	r18,12(sp)
   236e0:	dc400215 	stw	r17,8(sp)
   236e4:	dc000115 	stw	r16,4(sp)
   236e8:	dfc00415 	stw	ra,16(sp)
   236ec:	2025883a 	mov	r18,r4
   236f0:	2823883a 	mov	r17,r5
   236f4:	d9800005 	stb	r6,0(sp)
   236f8:	3821883a 	mov	r16,r7
   236fc:	04000a0e 	bge	zero,r16,23728 <print_repeat+0x50>
   23700:	88800117 	ldw	r2,4(r17)
   23704:	9009883a 	mov	r4,r18
   23708:	880b883a 	mov	r5,r17
   2370c:	d80d883a 	mov	r6,sp
   23710:	01c00044 	movi	r7,1
   23714:	103ee83a 	callr	r2
   23718:	843fffc4 	addi	r16,r16,-1
   2371c:	103ff726 	beq	r2,zero,236fc <__alt_data_end+0xf40236fc>
   23720:	00bfffc4 	movi	r2,-1
   23724:	00000106 	br	2372c <print_repeat+0x54>
   23728:	0005883a 	mov	r2,zero
   2372c:	dfc00417 	ldw	ra,16(sp)
   23730:	dc800317 	ldw	r18,12(sp)
   23734:	dc400217 	ldw	r17,8(sp)
   23738:	dc000117 	ldw	r16,4(sp)
   2373c:	dec00504 	addi	sp,sp,20
   23740:	f800283a 	ret

00023744 <___vfprintf_internal_r>:
   23744:	deffe304 	addi	sp,sp,-116
   23748:	d8c00804 	addi	r3,sp,32
   2374c:	df001b15 	stw	fp,108(sp)
   23750:	ddc01a15 	stw	r23,104(sp)
   23754:	dd801915 	stw	r22,100(sp)
   23758:	dd401815 	stw	r21,96(sp)
   2375c:	dd001715 	stw	r20,92(sp)
   23760:	dcc01615 	stw	r19,88(sp)
   23764:	dc801515 	stw	r18,84(sp)
   23768:	dc401415 	stw	r17,80(sp)
   2376c:	dc001315 	stw	r16,76(sp)
   23770:	dfc01c15 	stw	ra,112(sp)
   23774:	2029883a 	mov	r20,r4
   23778:	2823883a 	mov	r17,r5
   2377c:	3839883a 	mov	fp,r7
   23780:	d9800f15 	stw	r6,60(sp)
   23784:	0021883a 	mov	r16,zero
   23788:	d8000e15 	stw	zero,56(sp)
   2378c:	002f883a 	mov	r23,zero
   23790:	002b883a 	mov	r21,zero
   23794:	0027883a 	mov	r19,zero
   23798:	0025883a 	mov	r18,zero
   2379c:	d8000c15 	stw	zero,48(sp)
   237a0:	d8000b15 	stw	zero,44(sp)
   237a4:	002d883a 	mov	r22,zero
   237a8:	d8c00915 	stw	r3,36(sp)
   237ac:	d8c00f17 	ldw	r3,60(sp)
   237b0:	19000003 	ldbu	r4,0(r3)
   237b4:	20803fcc 	andi	r2,r4,255
   237b8:	1080201c 	xori	r2,r2,128
   237bc:	10bfe004 	addi	r2,r2,-128
   237c0:	10012e26 	beq	r2,zero,23c7c <___vfprintf_internal_r+0x538>
   237c4:	01400044 	movi	r5,1
   237c8:	b1401426 	beq	r22,r5,2381c <___vfprintf_internal_r+0xd8>
   237cc:	2d800216 	blt	r5,r22,237d8 <___vfprintf_internal_r+0x94>
   237d0:	b0000626 	beq	r22,zero,237ec <___vfprintf_internal_r+0xa8>
   237d4:	00012506 	br	23c6c <___vfprintf_internal_r+0x528>
   237d8:	01400084 	movi	r5,2
   237dc:	b1401d26 	beq	r22,r5,23854 <___vfprintf_internal_r+0x110>
   237e0:	014000c4 	movi	r5,3
   237e4:	b1402b26 	beq	r22,r5,23894 <___vfprintf_internal_r+0x150>
   237e8:	00012006 	br	23c6c <___vfprintf_internal_r+0x528>
   237ec:	01400944 	movi	r5,37
   237f0:	11410d26 	beq	r2,r5,23c28 <___vfprintf_internal_r+0x4e4>
   237f4:	88800117 	ldw	r2,4(r17)
   237f8:	d9000005 	stb	r4,0(sp)
   237fc:	880b883a 	mov	r5,r17
   23800:	a009883a 	mov	r4,r20
   23804:	d80d883a 	mov	r6,sp
   23808:	01c00044 	movi	r7,1
   2380c:	103ee83a 	callr	r2
   23810:	1000e81e 	bne	r2,zero,23bb4 <___vfprintf_internal_r+0x470>
   23814:	84000044 	addi	r16,r16,1
   23818:	00011406 	br	23c6c <___vfprintf_internal_r+0x528>
   2381c:	01400c04 	movi	r5,48
   23820:	11410a26 	beq	r2,r5,23c4c <___vfprintf_internal_r+0x508>
   23824:	01400944 	movi	r5,37
   23828:	11400a1e 	bne	r2,r5,23854 <___vfprintf_internal_r+0x110>
   2382c:	d8800005 	stb	r2,0(sp)
   23830:	88800117 	ldw	r2,4(r17)
   23834:	a009883a 	mov	r4,r20
   23838:	880b883a 	mov	r5,r17
   2383c:	d80d883a 	mov	r6,sp
   23840:	b00f883a 	mov	r7,r22
   23844:	103ee83a 	callr	r2
   23848:	1000da1e 	bne	r2,zero,23bb4 <___vfprintf_internal_r+0x470>
   2384c:	84000044 	addi	r16,r16,1
   23850:	00010506 	br	23c68 <___vfprintf_internal_r+0x524>
   23854:	25bff404 	addi	r22,r4,-48
   23858:	b5803fcc 	andi	r22,r22,255
   2385c:	00c00244 	movi	r3,9
   23860:	1d800936 	bltu	r3,r22,23888 <___vfprintf_internal_r+0x144>
   23864:	00bfffc4 	movi	r2,-1
   23868:	90800426 	beq	r18,r2,2387c <___vfprintf_internal_r+0x138>
   2386c:	9009883a 	mov	r4,r18
   23870:	01400284 	movi	r5,10
   23874:	00225e40 	call	225e4 <__mulsi3>
   23878:	00000106 	br	23880 <___vfprintf_internal_r+0x13c>
   2387c:	0005883a 	mov	r2,zero
   23880:	15a5883a 	add	r18,r2,r22
   23884:	0000f206 	br	23c50 <___vfprintf_internal_r+0x50c>
   23888:	01400b84 	movi	r5,46
   2388c:	1140f426 	beq	r2,r5,23c60 <___vfprintf_internal_r+0x51c>
   23890:	05800084 	movi	r22,2
   23894:	213ff404 	addi	r4,r4,-48
   23898:	20c03fcc 	andi	r3,r4,255
   2389c:	01000244 	movi	r4,9
   238a0:	20c00b36 	bltu	r4,r3,238d0 <___vfprintf_internal_r+0x18c>
   238a4:	00bfffc4 	movi	r2,-1
   238a8:	98800626 	beq	r19,r2,238c4 <___vfprintf_internal_r+0x180>
   238ac:	9809883a 	mov	r4,r19
   238b0:	01400284 	movi	r5,10
   238b4:	d8c01115 	stw	r3,68(sp)
   238b8:	00225e40 	call	225e4 <__mulsi3>
   238bc:	d8c01117 	ldw	r3,68(sp)
   238c0:	00000106 	br	238c8 <___vfprintf_internal_r+0x184>
   238c4:	0005883a 	mov	r2,zero
   238c8:	10e7883a 	add	r19,r2,r3
   238cc:	0000e706 	br	23c6c <___vfprintf_internal_r+0x528>
   238d0:	01401b04 	movi	r5,108
   238d4:	1140e026 	beq	r2,r5,23c58 <___vfprintf_internal_r+0x514>
   238d8:	013fffc4 	movi	r4,-1
   238dc:	99000226 	beq	r19,r4,238e8 <___vfprintf_internal_r+0x1a4>
   238e0:	d8000b15 	stw	zero,44(sp)
   238e4:	00000106 	br	238ec <___vfprintf_internal_r+0x1a8>
   238e8:	04c00044 	movi	r19,1
   238ec:	01001a44 	movi	r4,105
   238f0:	11001626 	beq	r2,r4,2394c <___vfprintf_internal_r+0x208>
   238f4:	20800916 	blt	r4,r2,2391c <___vfprintf_internal_r+0x1d8>
   238f8:	010018c4 	movi	r4,99
   238fc:	11009626 	beq	r2,r4,23b58 <___vfprintf_internal_r+0x414>
   23900:	01001904 	movi	r4,100
   23904:	11001126 	beq	r2,r4,2394c <___vfprintf_internal_r+0x208>
   23908:	01001604 	movi	r4,88
   2390c:	1100d61e 	bne	r2,r4,23c68 <___vfprintf_internal_r+0x524>
   23910:	00c00044 	movi	r3,1
   23914:	d8c00e15 	stw	r3,56(sp)
   23918:	00001406 	br	2396c <___vfprintf_internal_r+0x228>
   2391c:	01001cc4 	movi	r4,115
   23920:	1100a626 	beq	r2,r4,23bbc <___vfprintf_internal_r+0x478>
   23924:	20800416 	blt	r4,r2,23938 <___vfprintf_internal_r+0x1f4>
   23928:	01001bc4 	movi	r4,111
   2392c:	1100ce1e 	bne	r2,r4,23c68 <___vfprintf_internal_r+0x524>
   23930:	05400204 	movi	r21,8
   23934:	00000e06 	br	23970 <___vfprintf_internal_r+0x22c>
   23938:	01001d44 	movi	r4,117
   2393c:	11000c26 	beq	r2,r4,23970 <___vfprintf_internal_r+0x22c>
   23940:	01001e04 	movi	r4,120
   23944:	11000926 	beq	r2,r4,2396c <___vfprintf_internal_r+0x228>
   23948:	0000c706 	br	23c68 <___vfprintf_internal_r+0x524>
   2394c:	e0800104 	addi	r2,fp,4
   23950:	b8000726 	beq	r23,zero,23970 <___vfprintf_internal_r+0x22c>
   23954:	d8800d15 	stw	r2,52(sp)
   23958:	e7000017 	ldw	fp,0(fp)
   2395c:	e000080e 	bge	fp,zero,23980 <___vfprintf_internal_r+0x23c>
   23960:	0739c83a 	sub	fp,zero,fp
   23964:	02000044 	movi	r8,1
   23968:	00000606 	br	23984 <___vfprintf_internal_r+0x240>
   2396c:	05400404 	movi	r21,16
   23970:	e0c00104 	addi	r3,fp,4
   23974:	d8c00d15 	stw	r3,52(sp)
   23978:	e7000017 	ldw	fp,0(fp)
   2397c:	002f883a 	mov	r23,zero
   23980:	0011883a 	mov	r8,zero
   23984:	002d883a 	mov	r22,zero
   23988:	dd87883a 	add	r3,sp,r22
   2398c:	e0001a26 	beq	fp,zero,239f8 <___vfprintf_internal_r+0x2b4>
   23990:	e009883a 	mov	r4,fp
   23994:	a80b883a 	mov	r5,r21
   23998:	d8c01115 	stw	r3,68(sp)
   2399c:	da001215 	stw	r8,72(sp)
   239a0:	002434c0 	call	2434c <__udivsi3>
   239a4:	a809883a 	mov	r4,r21
   239a8:	100b883a 	mov	r5,r2
   239ac:	d8801015 	stw	r2,64(sp)
   239b0:	00225e40 	call	225e4 <__mulsi3>
   239b4:	e085c83a 	sub	r2,fp,r2
   239b8:	01000244 	movi	r4,9
   239bc:	d8c01117 	ldw	r3,68(sp)
   239c0:	d9801017 	ldw	r6,64(sp)
   239c4:	da001217 	ldw	r8,72(sp)
   239c8:	20800216 	blt	r4,r2,239d4 <___vfprintf_internal_r+0x290>
   239cc:	17000c04 	addi	fp,r2,48
   239d0:	00000506 	br	239e8 <___vfprintf_internal_r+0x2a4>
   239d4:	d9400e17 	ldw	r5,56(sp)
   239d8:	28000226 	beq	r5,zero,239e4 <___vfprintf_internal_r+0x2a0>
   239dc:	17000dc4 	addi	fp,r2,55
   239e0:	00000106 	br	239e8 <___vfprintf_internal_r+0x2a4>
   239e4:	170015c4 	addi	fp,r2,87
   239e8:	1f000005 	stb	fp,0(r3)
   239ec:	b5800044 	addi	r22,r22,1
   239f0:	3039883a 	mov	fp,r6
   239f4:	003fe406 	br	23988 <__alt_data_end+0xf4023988>
   239f8:	1ec5c83a 	sub	r2,r3,sp
   239fc:	d8800a15 	stw	r2,40(sp)
   23a00:	9885c83a 	sub	r2,r19,r2
   23a04:	1839883a 	mov	fp,r3
   23a08:	00800e0e 	bge	zero,r2,23a44 <___vfprintf_internal_r+0x300>
   23a0c:	182d883a 	mov	r22,r3
   23a10:	1885883a 	add	r2,r3,r2
   23a14:	01000c04 	movi	r4,48
   23a18:	d9400917 	ldw	r5,36(sp)
   23a1c:	b007883a 	mov	r3,r22
   23a20:	b140052e 	bgeu	r22,r5,23a38 <___vfprintf_internal_r+0x2f4>
   23a24:	b5800044 	addi	r22,r22,1
   23a28:	19000005 	stb	r4,0(r3)
   23a2c:	b039883a 	mov	fp,r22
   23a30:	b0bff91e 	bne	r22,r2,23a18 <__alt_data_end+0xf4023a18>
   23a34:	00000106 	br	23a3c <___vfprintf_internal_r+0x2f8>
   23a38:	b039883a 	mov	fp,r22
   23a3c:	b6edc83a 	sub	r22,r22,sp
   23a40:	dd800a15 	stw	r22,40(sp)
   23a44:	d8800a17 	ldw	r2,40(sp)
   23a48:	1207883a 	add	r3,r2,r8
   23a4c:	90edc83a 	sub	r22,r18,r3
   23a50:	d8c00b17 	ldw	r3,44(sp)
   23a54:	18001726 	beq	r3,zero,23ab4 <___vfprintf_internal_r+0x370>
   23a58:	40000a26 	beq	r8,zero,23a84 <___vfprintf_internal_r+0x340>
   23a5c:	00800b44 	movi	r2,45
   23a60:	d8800805 	stb	r2,32(sp)
   23a64:	88800117 	ldw	r2,4(r17)
   23a68:	a009883a 	mov	r4,r20
   23a6c:	880b883a 	mov	r5,r17
   23a70:	d9800804 	addi	r6,sp,32
   23a74:	01c00044 	movi	r7,1
   23a78:	103ee83a 	callr	r2
   23a7c:	10004d1e 	bne	r2,zero,23bb4 <___vfprintf_internal_r+0x470>
   23a80:	84000044 	addi	r16,r16,1
   23a84:	0580070e 	bge	zero,r22,23aa4 <___vfprintf_internal_r+0x360>
   23a88:	a009883a 	mov	r4,r20
   23a8c:	880b883a 	mov	r5,r17
   23a90:	01800c04 	movi	r6,48
   23a94:	b00f883a 	mov	r7,r22
   23a98:	00236d80 	call	236d8 <print_repeat>
   23a9c:	1000451e 	bne	r2,zero,23bb4 <___vfprintf_internal_r+0x470>
   23aa0:	85a1883a 	add	r16,r16,r22
   23aa4:	d9000a17 	ldw	r4,40(sp)
   23aa8:	e007883a 	mov	r3,fp
   23aac:	272dc83a 	sub	r22,r4,fp
   23ab0:	00002206 	br	23b3c <___vfprintf_internal_r+0x3f8>
   23ab4:	0580090e 	bge	zero,r22,23adc <___vfprintf_internal_r+0x398>
   23ab8:	a009883a 	mov	r4,r20
   23abc:	880b883a 	mov	r5,r17
   23ac0:	01800804 	movi	r6,32
   23ac4:	b00f883a 	mov	r7,r22
   23ac8:	da001215 	stw	r8,72(sp)
   23acc:	00236d80 	call	236d8 <print_repeat>
   23ad0:	da001217 	ldw	r8,72(sp)
   23ad4:	1000371e 	bne	r2,zero,23bb4 <___vfprintf_internal_r+0x470>
   23ad8:	85a1883a 	add	r16,r16,r22
   23adc:	403ff126 	beq	r8,zero,23aa4 <__alt_data_end+0xf4023aa4>
   23ae0:	00800b44 	movi	r2,45
   23ae4:	d8800805 	stb	r2,32(sp)
   23ae8:	88800117 	ldw	r2,4(r17)
   23aec:	a009883a 	mov	r4,r20
   23af0:	880b883a 	mov	r5,r17
   23af4:	d9800804 	addi	r6,sp,32
   23af8:	01c00044 	movi	r7,1
   23afc:	103ee83a 	callr	r2
   23b00:	10002c1e 	bne	r2,zero,23bb4 <___vfprintf_internal_r+0x470>
   23b04:	84000044 	addi	r16,r16,1
   23b08:	003fe606 	br	23aa4 <__alt_data_end+0xf4023aa4>
   23b0c:	18ffffc4 	addi	r3,r3,-1
   23b10:	18800003 	ldbu	r2,0(r3)
   23b14:	a009883a 	mov	r4,r20
   23b18:	d8c01115 	stw	r3,68(sp)
   23b1c:	d8800805 	stb	r2,32(sp)
   23b20:	88800117 	ldw	r2,4(r17)
   23b24:	880b883a 	mov	r5,r17
   23b28:	d9800804 	addi	r6,sp,32
   23b2c:	01c00044 	movi	r7,1
   23b30:	103ee83a 	callr	r2
   23b34:	d8c01117 	ldw	r3,68(sp)
   23b38:	10001e1e 	bne	r2,zero,23bb4 <___vfprintf_internal_r+0x470>
   23b3c:	80c5c83a 	sub	r2,r16,r3
   23b40:	1d89883a 	add	r4,r3,r22
   23b44:	e085883a 	add	r2,fp,r2
   23b48:	013ff016 	blt	zero,r4,23b0c <__alt_data_end+0xf4023b0c>
   23b4c:	1021883a 	mov	r16,r2
   23b50:	df000d17 	ldw	fp,52(sp)
   23b54:	00004406 	br	23c68 <___vfprintf_internal_r+0x524>
   23b58:	01000044 	movi	r4,1
   23b5c:	2480080e 	bge	r4,r18,23b80 <___vfprintf_internal_r+0x43c>
   23b60:	95bfffc4 	addi	r22,r18,-1
   23b64:	a009883a 	mov	r4,r20
   23b68:	880b883a 	mov	r5,r17
   23b6c:	01800804 	movi	r6,32
   23b70:	b00f883a 	mov	r7,r22
   23b74:	00236d80 	call	236d8 <print_repeat>
   23b78:	10000e1e 	bne	r2,zero,23bb4 <___vfprintf_internal_r+0x470>
   23b7c:	85a1883a 	add	r16,r16,r22
   23b80:	e0800017 	ldw	r2,0(fp)
   23b84:	a009883a 	mov	r4,r20
   23b88:	880b883a 	mov	r5,r17
   23b8c:	d8800005 	stb	r2,0(sp)
   23b90:	88800117 	ldw	r2,4(r17)
   23b94:	d80d883a 	mov	r6,sp
   23b98:	01c00044 	movi	r7,1
   23b9c:	e5800104 	addi	r22,fp,4
   23ba0:	103ee83a 	callr	r2
   23ba4:	1000031e 	bne	r2,zero,23bb4 <___vfprintf_internal_r+0x470>
   23ba8:	84000044 	addi	r16,r16,1
   23bac:	b039883a 	mov	fp,r22
   23bb0:	00002d06 	br	23c68 <___vfprintf_internal_r+0x524>
   23bb4:	00bfffc4 	movi	r2,-1
   23bb8:	00003106 	br	23c80 <___vfprintf_internal_r+0x53c>
   23bbc:	e5800017 	ldw	r22,0(fp)
   23bc0:	e0c00104 	addi	r3,fp,4
   23bc4:	d8c00a15 	stw	r3,40(sp)
   23bc8:	b009883a 	mov	r4,r22
   23bcc:	00236bc0 	call	236bc <strlen>
   23bd0:	9091c83a 	sub	r8,r18,r2
   23bd4:	1039883a 	mov	fp,r2
   23bd8:	0200090e 	bge	zero,r8,23c00 <___vfprintf_internal_r+0x4bc>
   23bdc:	400f883a 	mov	r7,r8
   23be0:	a009883a 	mov	r4,r20
   23be4:	880b883a 	mov	r5,r17
   23be8:	01800804 	movi	r6,32
   23bec:	da001215 	stw	r8,72(sp)
   23bf0:	00236d80 	call	236d8 <print_repeat>
   23bf4:	da001217 	ldw	r8,72(sp)
   23bf8:	103fee1e 	bne	r2,zero,23bb4 <__alt_data_end+0xf4023bb4>
   23bfc:	8221883a 	add	r16,r16,r8
   23c00:	88800117 	ldw	r2,4(r17)
   23c04:	a009883a 	mov	r4,r20
   23c08:	880b883a 	mov	r5,r17
   23c0c:	b00d883a 	mov	r6,r22
   23c10:	e00f883a 	mov	r7,fp
   23c14:	103ee83a 	callr	r2
   23c18:	103fe61e 	bne	r2,zero,23bb4 <__alt_data_end+0xf4023bb4>
   23c1c:	8721883a 	add	r16,r16,fp
   23c20:	df000a17 	ldw	fp,40(sp)
   23c24:	00001006 	br	23c68 <___vfprintf_internal_r+0x524>
   23c28:	05c00044 	movi	r23,1
   23c2c:	04ffffc4 	movi	r19,-1
   23c30:	d8000e15 	stw	zero,56(sp)
   23c34:	05400284 	movi	r21,10
   23c38:	9825883a 	mov	r18,r19
   23c3c:	d8000c15 	stw	zero,48(sp)
   23c40:	d8000b15 	stw	zero,44(sp)
   23c44:	b82d883a 	mov	r22,r23
   23c48:	00000806 	br	23c6c <___vfprintf_internal_r+0x528>
   23c4c:	dd800b15 	stw	r22,44(sp)
   23c50:	05800084 	movi	r22,2
   23c54:	00000506 	br	23c6c <___vfprintf_internal_r+0x528>
   23c58:	00c00044 	movi	r3,1
   23c5c:	d8c00c15 	stw	r3,48(sp)
   23c60:	058000c4 	movi	r22,3
   23c64:	00000106 	br	23c6c <___vfprintf_internal_r+0x528>
   23c68:	002d883a 	mov	r22,zero
   23c6c:	d8c00f17 	ldw	r3,60(sp)
   23c70:	18c00044 	addi	r3,r3,1
   23c74:	d8c00f15 	stw	r3,60(sp)
   23c78:	003ecc06 	br	237ac <__alt_data_end+0xf40237ac>
   23c7c:	8005883a 	mov	r2,r16
   23c80:	dfc01c17 	ldw	ra,112(sp)
   23c84:	df001b17 	ldw	fp,108(sp)
   23c88:	ddc01a17 	ldw	r23,104(sp)
   23c8c:	dd801917 	ldw	r22,100(sp)
   23c90:	dd401817 	ldw	r21,96(sp)
   23c94:	dd001717 	ldw	r20,92(sp)
   23c98:	dcc01617 	ldw	r19,88(sp)
   23c9c:	dc801517 	ldw	r18,84(sp)
   23ca0:	dc401417 	ldw	r17,80(sp)
   23ca4:	dc001317 	ldw	r16,76(sp)
   23ca8:	dec01d04 	addi	sp,sp,116
   23cac:	f800283a 	ret

00023cb0 <__vfprintf_internal>:
   23cb0:	2007883a 	mov	r3,r4
   23cb4:	01020034 	movhi	r4,2048
   23cb8:	2103cf04 	addi	r4,r4,3900
   23cbc:	21000017 	ldw	r4,0(r4)
   23cc0:	2805883a 	mov	r2,r5
   23cc4:	300f883a 	mov	r7,r6
   23cc8:	180b883a 	mov	r5,r3
   23ccc:	100d883a 	mov	r6,r2
   23cd0:	00237441 	jmpi	23744 <___vfprintf_internal_r>

00023cd4 <_malloc_trim_r>:
   23cd4:	defffb04 	addi	sp,sp,-20
   23cd8:	dcc00315 	stw	r19,12(sp)
   23cdc:	04c20034 	movhi	r19,2048
   23ce0:	dc800215 	stw	r18,8(sp)
   23ce4:	dc400115 	stw	r17,4(sp)
   23ce8:	dc000015 	stw	r16,0(sp)
   23cec:	dfc00415 	stw	ra,16(sp)
   23cf0:	2821883a 	mov	r16,r5
   23cf4:	2025883a 	mov	r18,r4
   23cf8:	9cc1ea04 	addi	r19,r19,1960
   23cfc:	002468c0 	call	2468c <__malloc_lock>
   23d00:	98800217 	ldw	r2,8(r19)
   23d04:	14400117 	ldw	r17,4(r2)
   23d08:	00bfff04 	movi	r2,-4
   23d0c:	88a2703a 	and	r17,r17,r2
   23d10:	8c21c83a 	sub	r16,r17,r16
   23d14:	84001bc4 	addi	r16,r16,111
   23d18:	8020d1fa 	srli	r16,r16,7
   23d1c:	00801fc4 	movi	r2,127
   23d20:	843fffc4 	addi	r16,r16,-1
   23d24:	802091fa 	slli	r16,r16,7
   23d28:	14000416 	blt	r2,r16,23d3c <_malloc_trim_r+0x68>
   23d2c:	9009883a 	mov	r4,r18
   23d30:	00246ac0 	call	246ac <__malloc_unlock>
   23d34:	0005883a 	mov	r2,zero
   23d38:	00002806 	br	23ddc <_malloc_trim_r+0x108>
   23d3c:	9009883a 	mov	r4,r18
   23d40:	000b883a 	mov	r5,zero
   23d44:	002334c0 	call	2334c <_sbrk_r>
   23d48:	98c00217 	ldw	r3,8(r19)
   23d4c:	1c47883a 	add	r3,r3,r17
   23d50:	10fff61e 	bne	r2,r3,23d2c <__alt_data_end+0xf4023d2c>
   23d54:	9009883a 	mov	r4,r18
   23d58:	040bc83a 	sub	r5,zero,r16
   23d5c:	002334c0 	call	2334c <_sbrk_r>
   23d60:	00ffffc4 	movi	r3,-1
   23d64:	10c0111e 	bne	r2,r3,23dac <_malloc_trim_r+0xd8>
   23d68:	9009883a 	mov	r4,r18
   23d6c:	000b883a 	mov	r5,zero
   23d70:	002334c0 	call	2334c <_sbrk_r>
   23d74:	99000217 	ldw	r4,8(r19)
   23d78:	014003c4 	movi	r5,15
   23d7c:	1107c83a 	sub	r3,r2,r4
   23d80:	28ffea0e 	bge	r5,r3,23d2c <__alt_data_end+0xf4023d2c>
   23d84:	01420034 	movhi	r5,2048
   23d88:	2943cc04 	addi	r5,r5,3888
   23d8c:	29400017 	ldw	r5,0(r5)
   23d90:	18c00054 	ori	r3,r3,1
   23d94:	20c00115 	stw	r3,4(r4)
   23d98:	1145c83a 	sub	r2,r2,r5
   23d9c:	01420034 	movhi	r5,2048
   23da0:	2946b504 	addi	r5,r5,6868
   23da4:	28800015 	stw	r2,0(r5)
   23da8:	003fe006 	br	23d2c <__alt_data_end+0xf4023d2c>
   23dac:	98800217 	ldw	r2,8(r19)
   23db0:	8c23c83a 	sub	r17,r17,r16
   23db4:	00c20034 	movhi	r3,2048
   23db8:	18c6b504 	addi	r3,r3,6868
   23dbc:	8c400054 	ori	r17,r17,1
   23dc0:	14400115 	stw	r17,4(r2)
   23dc4:	18800017 	ldw	r2,0(r3)
   23dc8:	9009883a 	mov	r4,r18
   23dcc:	1421c83a 	sub	r16,r2,r16
   23dd0:	1c000015 	stw	r16,0(r3)
   23dd4:	00246ac0 	call	246ac <__malloc_unlock>
   23dd8:	00800044 	movi	r2,1
   23ddc:	dfc00417 	ldw	ra,16(sp)
   23de0:	dcc00317 	ldw	r19,12(sp)
   23de4:	dc800217 	ldw	r18,8(sp)
   23de8:	dc400117 	ldw	r17,4(sp)
   23dec:	dc000017 	ldw	r16,0(sp)
   23df0:	dec00504 	addi	sp,sp,20
   23df4:	f800283a 	ret

00023df8 <_free_r>:
   23df8:	2800a026 	beq	r5,zero,2407c <_free_r+0x284>
   23dfc:	defffd04 	addi	sp,sp,-12
   23e00:	dc400115 	stw	r17,4(sp)
   23e04:	dc000015 	stw	r16,0(sp)
   23e08:	2823883a 	mov	r17,r5
   23e0c:	2021883a 	mov	r16,r4
   23e10:	dfc00215 	stw	ra,8(sp)
   23e14:	002468c0 	call	2468c <__malloc_lock>
   23e18:	8a3fff17 	ldw	r8,-4(r17)
   23e1c:	00bfff84 	movi	r2,-2
   23e20:	893ffe04 	addi	r4,r17,-8
   23e24:	4084703a 	and	r2,r8,r2
   23e28:	208d883a 	add	r6,r4,r2
   23e2c:	31400117 	ldw	r5,4(r6)
   23e30:	00ffff04 	movi	r3,-4
   23e34:	28c6703a 	and	r3,r5,r3
   23e38:	01420034 	movhi	r5,2048
   23e3c:	2941ea04 	addi	r5,r5,1960
   23e40:	2a400217 	ldw	r9,8(r5)
   23e44:	280f883a 	mov	r7,r5
   23e48:	4140004c 	andi	r5,r8,1
   23e4c:	32401b1e 	bne	r6,r9,23ebc <_free_r+0xc4>
   23e50:	1885883a 	add	r2,r3,r2
   23e54:	2800071e 	bne	r5,zero,23e74 <_free_r+0x7c>
   23e58:	88fffe17 	ldw	r3,-8(r17)
   23e5c:	20c9c83a 	sub	r4,r4,r3
   23e60:	21400217 	ldw	r5,8(r4)
   23e64:	10c5883a 	add	r2,r2,r3
   23e68:	20c00317 	ldw	r3,12(r4)
   23e6c:	28c00315 	stw	r3,12(r5)
   23e70:	19400215 	stw	r5,8(r3)
   23e74:	10c00054 	ori	r3,r2,1
   23e78:	20c00115 	stw	r3,4(r4)
   23e7c:	00c20034 	movhi	r3,2048
   23e80:	18c3cd04 	addi	r3,r3,3892
   23e84:	18c00017 	ldw	r3,0(r3)
   23e88:	39000215 	stw	r4,8(r7)
   23e8c:	10c00536 	bltu	r2,r3,23ea4 <_free_r+0xac>
   23e90:	00820034 	movhi	r2,2048
   23e94:	1083e304 	addi	r2,r2,3980
   23e98:	11400017 	ldw	r5,0(r2)
   23e9c:	8009883a 	mov	r4,r16
   23ea0:	0023cd40 	call	23cd4 <_malloc_trim_r>
   23ea4:	8009883a 	mov	r4,r16
   23ea8:	dfc00217 	ldw	ra,8(sp)
   23eac:	dc400117 	ldw	r17,4(sp)
   23eb0:	dc000017 	ldw	r16,0(sp)
   23eb4:	dec00304 	addi	sp,sp,12
   23eb8:	00246ac1 	jmpi	246ac <__malloc_unlock>
   23ebc:	30c00115 	stw	r3,4(r6)
   23ec0:	2800091e 	bne	r5,zero,23ee8 <_free_r+0xf0>
   23ec4:	897ffe17 	ldw	r5,-8(r17)
   23ec8:	3a000204 	addi	r8,r7,8
   23ecc:	2149c83a 	sub	r4,r4,r5
   23ed0:	1145883a 	add	r2,r2,r5
   23ed4:	21400217 	ldw	r5,8(r4)
   23ed8:	2a000526 	beq	r5,r8,23ef0 <_free_r+0xf8>
   23edc:	22000317 	ldw	r8,12(r4)
   23ee0:	2a000315 	stw	r8,12(r5)
   23ee4:	41400215 	stw	r5,8(r8)
   23ee8:	000b883a 	mov	r5,zero
   23eec:	00000106 	br	23ef4 <_free_r+0xfc>
   23ef0:	01400044 	movi	r5,1
   23ef4:	30d1883a 	add	r8,r6,r3
   23ef8:	42000117 	ldw	r8,4(r8)
   23efc:	4200004c 	andi	r8,r8,1
   23f00:	4000101e 	bne	r8,zero,23f44 <_free_r+0x14c>
   23f04:	10c5883a 	add	r2,r2,r3
   23f08:	28000a1e 	bne	r5,zero,23f34 <_free_r+0x13c>
   23f0c:	30c00217 	ldw	r3,8(r6)
   23f10:	02020034 	movhi	r8,2048
   23f14:	4201ec04 	addi	r8,r8,1968
   23f18:	1a00061e 	bne	r3,r8,23f34 <_free_r+0x13c>
   23f1c:	39000515 	stw	r4,20(r7)
   23f20:	39000415 	stw	r4,16(r7)
   23f24:	20c00315 	stw	r3,12(r4)
   23f28:	20c00215 	stw	r3,8(r4)
   23f2c:	01400044 	movi	r5,1
   23f30:	00000406 	br	23f44 <_free_r+0x14c>
   23f34:	30c00317 	ldw	r3,12(r6)
   23f38:	31800217 	ldw	r6,8(r6)
   23f3c:	30c00315 	stw	r3,12(r6)
   23f40:	19800215 	stw	r6,8(r3)
   23f44:	10c00054 	ori	r3,r2,1
   23f48:	20c00115 	stw	r3,4(r4)
   23f4c:	2087883a 	add	r3,r4,r2
   23f50:	18800015 	stw	r2,0(r3)
   23f54:	283fd31e 	bne	r5,zero,23ea4 <__alt_data_end+0xf4023ea4>
   23f58:	00c07fc4 	movi	r3,511
   23f5c:	18801036 	bltu	r3,r2,23fa0 <_free_r+0x1a8>
   23f60:	1006d0fa 	srli	r3,r2,3
   23f64:	00800044 	movi	r2,1
   23f68:	180bd0ba 	srai	r5,r3,2
   23f6c:	18c7883a 	add	r3,r3,r3
   23f70:	18c7883a 	add	r3,r3,r3
   23f74:	114a983a 	sll	r5,r2,r5
   23f78:	38800117 	ldw	r2,4(r7)
   23f7c:	18c7883a 	add	r3,r3,r3
   23f80:	2884b03a 	or	r2,r5,r2
   23f84:	38800115 	stw	r2,4(r7)
   23f88:	38c5883a 	add	r2,r7,r3
   23f8c:	10c00217 	ldw	r3,8(r2)
   23f90:	20800315 	stw	r2,12(r4)
   23f94:	20c00215 	stw	r3,8(r4)
   23f98:	11000215 	stw	r4,8(r2)
   23f9c:	00003506 	br	24074 <_free_r+0x27c>
   23fa0:	1006d27a 	srli	r3,r2,9
   23fa4:	01400104 	movi	r5,4
   23fa8:	28c00336 	bltu	r5,r3,23fb8 <_free_r+0x1c0>
   23fac:	1006d1ba 	srli	r3,r2,6
   23fb0:	18c00e04 	addi	r3,r3,56
   23fb4:	00001406 	br	24008 <_free_r+0x210>
   23fb8:	01400504 	movi	r5,20
   23fbc:	28c00236 	bltu	r5,r3,23fc8 <_free_r+0x1d0>
   23fc0:	18c016c4 	addi	r3,r3,91
   23fc4:	00001006 	br	24008 <_free_r+0x210>
   23fc8:	01401504 	movi	r5,84
   23fcc:	28c00336 	bltu	r5,r3,23fdc <_free_r+0x1e4>
   23fd0:	1006d33a 	srli	r3,r2,12
   23fd4:	18c01b84 	addi	r3,r3,110
   23fd8:	00000b06 	br	24008 <_free_r+0x210>
   23fdc:	01405504 	movi	r5,340
   23fe0:	28c00336 	bltu	r5,r3,23ff0 <_free_r+0x1f8>
   23fe4:	1006d3fa 	srli	r3,r2,15
   23fe8:	18c01dc4 	addi	r3,r3,119
   23fec:	00000606 	br	24008 <_free_r+0x210>
   23ff0:	01415504 	movi	r5,1364
   23ff4:	28c00336 	bltu	r5,r3,24004 <_free_r+0x20c>
   23ff8:	1006d4ba 	srli	r3,r2,18
   23ffc:	18c01f04 	addi	r3,r3,124
   24000:	00000106 	br	24008 <_free_r+0x210>
   24004:	00c01f84 	movi	r3,126
   24008:	18cd883a 	add	r6,r3,r3
   2400c:	318d883a 	add	r6,r6,r6
   24010:	318d883a 	add	r6,r6,r6
   24014:	398b883a 	add	r5,r7,r6
   24018:	29800217 	ldw	r6,8(r5)
   2401c:	02020034 	movhi	r8,2048
   24020:	4201ea04 	addi	r8,r8,1960
   24024:	3140081e 	bne	r6,r5,24048 <_free_r+0x250>
   24028:	1807d0ba 	srai	r3,r3,2
   2402c:	00800044 	movi	r2,1
   24030:	10c6983a 	sll	r3,r2,r3
   24034:	40800117 	ldw	r2,4(r8)
   24038:	1886b03a 	or	r3,r3,r2
   2403c:	40c00115 	stw	r3,4(r8)
   24040:	3007883a 	mov	r3,r6
   24044:	00000806 	br	24068 <_free_r+0x270>
   24048:	3007883a 	mov	r3,r6
   2404c:	01ffff04 	movi	r7,-4
   24050:	19800117 	ldw	r6,4(r3)
   24054:	31cc703a 	and	r6,r6,r7
   24058:	1180022e 	bgeu	r2,r6,24064 <_free_r+0x26c>
   2405c:	18c00217 	ldw	r3,8(r3)
   24060:	197ffb1e 	bne	r3,r5,24050 <__alt_data_end+0xf4024050>
   24064:	19800317 	ldw	r6,12(r3)
   24068:	21800315 	stw	r6,12(r4)
   2406c:	20c00215 	stw	r3,8(r4)
   24070:	31000215 	stw	r4,8(r6)
   24074:	19000315 	stw	r4,12(r3)
   24078:	003f8a06 	br	23ea4 <__alt_data_end+0xf4023ea4>
   2407c:	f800283a 	ret

00024080 <__sfvwrite_small_dev>:
   24080:	2880000b 	ldhu	r2,0(r5)
   24084:	defffa04 	addi	sp,sp,-24
   24088:	dc000015 	stw	r16,0(sp)
   2408c:	dfc00515 	stw	ra,20(sp)
   24090:	dd000415 	stw	r20,16(sp)
   24094:	dcc00315 	stw	r19,12(sp)
   24098:	dc800215 	stw	r18,8(sp)
   2409c:	dc400115 	stw	r17,4(sp)
   240a0:	1080020c 	andi	r2,r2,8
   240a4:	2821883a 	mov	r16,r5
   240a8:	10001726 	beq	r2,zero,24108 <__sfvwrite_small_dev+0x88>
   240ac:	2880008f 	ldh	r2,2(r5)
   240b0:	10001216 	blt	r2,zero,240fc <__sfvwrite_small_dev+0x7c>
   240b4:	2027883a 	mov	r19,r4
   240b8:	3025883a 	mov	r18,r6
   240bc:	3823883a 	mov	r17,r7
   240c0:	05010004 	movi	r20,1024
   240c4:	04400b0e 	bge	zero,r17,240f4 <__sfvwrite_small_dev+0x74>
   240c8:	8140008f 	ldh	r5,2(r16)
   240cc:	880f883a 	mov	r7,r17
   240d0:	a440010e 	bge	r20,r17,240d8 <__sfvwrite_small_dev+0x58>
   240d4:	01c10004 	movi	r7,1024
   240d8:	9809883a 	mov	r4,r19
   240dc:	900d883a 	mov	r6,r18
   240e0:	00241d80 	call	241d8 <_write_r>
   240e4:	0080050e 	bge	zero,r2,240fc <__sfvwrite_small_dev+0x7c>
   240e8:	88a3c83a 	sub	r17,r17,r2
   240ec:	90a5883a 	add	r18,r18,r2
   240f0:	003ff406 	br	240c4 <__alt_data_end+0xf40240c4>
   240f4:	0005883a 	mov	r2,zero
   240f8:	00000406 	br	2410c <__sfvwrite_small_dev+0x8c>
   240fc:	8080000b 	ldhu	r2,0(r16)
   24100:	10801014 	ori	r2,r2,64
   24104:	8080000d 	sth	r2,0(r16)
   24108:	00bfffc4 	movi	r2,-1
   2410c:	dfc00517 	ldw	ra,20(sp)
   24110:	dd000417 	ldw	r20,16(sp)
   24114:	dcc00317 	ldw	r19,12(sp)
   24118:	dc800217 	ldw	r18,8(sp)
   2411c:	dc400117 	ldw	r17,4(sp)
   24120:	dc000017 	ldw	r16,0(sp)
   24124:	dec00604 	addi	sp,sp,24
   24128:	f800283a 	ret

0002412c <putc>:
   2412c:	defffd04 	addi	sp,sp,-12
   24130:	008000b4 	movhi	r2,2
   24134:	dc000115 	stw	r16,4(sp)
   24138:	dfc00215 	stw	ra,8(sp)
   2413c:	10902004 	addi	r2,r2,16512
   24140:	28800115 	stw	r2,4(r5)
   24144:	00820034 	movhi	r2,2048
   24148:	1083cf04 	addi	r2,r2,3900
   2414c:	d9000005 	stb	r4,0(sp)
   24150:	2021883a 	mov	r16,r4
   24154:	11000017 	ldw	r4,0(r2)
   24158:	d80d883a 	mov	r6,sp
   2415c:	01c00044 	movi	r7,1
   24160:	00240800 	call	24080 <__sfvwrite_small_dev>
   24164:	00ffffc4 	movi	r3,-1
   24168:	10c00126 	beq	r2,r3,24170 <putc+0x44>
   2416c:	8005883a 	mov	r2,r16
   24170:	dfc00217 	ldw	ra,8(sp)
   24174:	dc000117 	ldw	r16,4(sp)
   24178:	dec00304 	addi	sp,sp,12
   2417c:	f800283a 	ret

00024180 <_putc_r>:
   24180:	defffd04 	addi	sp,sp,-12
   24184:	008000b4 	movhi	r2,2
   24188:	dc000115 	stw	r16,4(sp)
   2418c:	dfc00215 	stw	ra,8(sp)
   24190:	10902004 	addi	r2,r2,16512
   24194:	30800115 	stw	r2,4(r6)
   24198:	00820034 	movhi	r2,2048
   2419c:	1083cf04 	addi	r2,r2,3900
   241a0:	11000017 	ldw	r4,0(r2)
   241a4:	2821883a 	mov	r16,r5
   241a8:	01c00044 	movi	r7,1
   241ac:	300b883a 	mov	r5,r6
   241b0:	d80d883a 	mov	r6,sp
   241b4:	dc000005 	stb	r16,0(sp)
   241b8:	00240800 	call	24080 <__sfvwrite_small_dev>
   241bc:	00ffffc4 	movi	r3,-1
   241c0:	10c00126 	beq	r2,r3,241c8 <_putc_r+0x48>
   241c4:	8005883a 	mov	r2,r16
   241c8:	dfc00217 	ldw	ra,8(sp)
   241cc:	dc000117 	ldw	r16,4(sp)
   241d0:	dec00304 	addi	sp,sp,12
   241d4:	f800283a 	ret

000241d8 <_write_r>:
   241d8:	defffd04 	addi	sp,sp,-12
   241dc:	dc000015 	stw	r16,0(sp)
   241e0:	04020034 	movhi	r16,2048
   241e4:	dc400115 	stw	r17,4(sp)
   241e8:	8403e404 	addi	r16,r16,3984
   241ec:	2023883a 	mov	r17,r4
   241f0:	2809883a 	mov	r4,r5
   241f4:	300b883a 	mov	r5,r6
   241f8:	380d883a 	mov	r6,r7
   241fc:	dfc00215 	stw	ra,8(sp)
   24200:	80000015 	stw	zero,0(r16)
   24204:	0024a380 	call	24a38 <write>
   24208:	00ffffc4 	movi	r3,-1
   2420c:	10c0031e 	bne	r2,r3,2421c <_write_r+0x44>
   24210:	80c00017 	ldw	r3,0(r16)
   24214:	18000126 	beq	r3,zero,2421c <_write_r+0x44>
   24218:	88c00015 	stw	r3,0(r17)
   2421c:	dfc00217 	ldw	ra,8(sp)
   24220:	dc400117 	ldw	r17,4(sp)
   24224:	dc000017 	ldw	r16,0(sp)
   24228:	dec00304 	addi	sp,sp,12
   2422c:	f800283a 	ret

00024230 <udivmodsi4>:
   24230:	2900182e 	bgeu	r5,r4,24294 <udivmodsi4+0x64>
   24234:	28001716 	blt	r5,zero,24294 <udivmodsi4+0x64>
   24238:	00800804 	movi	r2,32
   2423c:	00c00044 	movi	r3,1
   24240:	00000206 	br	2424c <udivmodsi4+0x1c>
   24244:	10001126 	beq	r2,zero,2428c <udivmodsi4+0x5c>
   24248:	28000516 	blt	r5,zero,24260 <udivmodsi4+0x30>
   2424c:	294b883a 	add	r5,r5,r5
   24250:	10bfffc4 	addi	r2,r2,-1
   24254:	18c7883a 	add	r3,r3,r3
   24258:	293ffa36 	bltu	r5,r4,24244 <__alt_data_end+0xf4024244>
   2425c:	18000b26 	beq	r3,zero,2428c <udivmodsi4+0x5c>
   24260:	0005883a 	mov	r2,zero
   24264:	21400236 	bltu	r4,r5,24270 <udivmodsi4+0x40>
   24268:	2149c83a 	sub	r4,r4,r5
   2426c:	10c4b03a 	or	r2,r2,r3
   24270:	1806d07a 	srli	r3,r3,1
   24274:	280ad07a 	srli	r5,r5,1
   24278:	183ffa1e 	bne	r3,zero,24264 <__alt_data_end+0xf4024264>
   2427c:	3000011e 	bne	r6,zero,24284 <udivmodsi4+0x54>
   24280:	f800283a 	ret
   24284:	2005883a 	mov	r2,r4
   24288:	f800283a 	ret
   2428c:	0005883a 	mov	r2,zero
   24290:	003ffa06 	br	2427c <__alt_data_end+0xf402427c>
   24294:	00c00044 	movi	r3,1
   24298:	003ff106 	br	24260 <__alt_data_end+0xf4024260>

0002429c <__divsi3>:
   2429c:	defffe04 	addi	sp,sp,-8
   242a0:	dfc00115 	stw	ra,4(sp)
   242a4:	dc000015 	stw	r16,0(sp)
   242a8:	20000b16 	blt	r4,zero,242d8 <__divsi3+0x3c>
   242ac:	0021883a 	mov	r16,zero
   242b0:	28000c16 	blt	r5,zero,242e4 <__divsi3+0x48>
   242b4:	000d883a 	mov	r6,zero
   242b8:	00242300 	call	24230 <udivmodsi4>
   242bc:	0407c83a 	sub	r3,zero,r16
   242c0:	1884f03a 	xor	r2,r3,r2
   242c4:	1405883a 	add	r2,r2,r16
   242c8:	dfc00117 	ldw	ra,4(sp)
   242cc:	dc000017 	ldw	r16,0(sp)
   242d0:	dec00204 	addi	sp,sp,8
   242d4:	f800283a 	ret
   242d8:	0109c83a 	sub	r4,zero,r4
   242dc:	04000044 	movi	r16,1
   242e0:	283ff40e 	bge	r5,zero,242b4 <__alt_data_end+0xf40242b4>
   242e4:	014bc83a 	sub	r5,zero,r5
   242e8:	8400005c 	xori	r16,r16,1
   242ec:	003ff106 	br	242b4 <__alt_data_end+0xf40242b4>

000242f0 <__modsi3>:
   242f0:	defffd04 	addi	sp,sp,-12
   242f4:	dfc00215 	stw	ra,8(sp)
   242f8:	dc400115 	stw	r17,4(sp)
   242fc:	dc000015 	stw	r16,0(sp)
   24300:	20000c16 	blt	r4,zero,24334 <__modsi3+0x44>
   24304:	0023883a 	mov	r17,zero
   24308:	0021883a 	mov	r16,zero
   2430c:	28000d16 	blt	r5,zero,24344 <__modsi3+0x54>
   24310:	01800044 	movi	r6,1
   24314:	00242300 	call	24230 <udivmodsi4>
   24318:	1404f03a 	xor	r2,r2,r16
   2431c:	8885883a 	add	r2,r17,r2
   24320:	dfc00217 	ldw	ra,8(sp)
   24324:	dc400117 	ldw	r17,4(sp)
   24328:	dc000017 	ldw	r16,0(sp)
   2432c:	dec00304 	addi	sp,sp,12
   24330:	f800283a 	ret
   24334:	0109c83a 	sub	r4,zero,r4
   24338:	04400044 	movi	r17,1
   2433c:	043fffc4 	movi	r16,-1
   24340:	283ff30e 	bge	r5,zero,24310 <__alt_data_end+0xf4024310>
   24344:	014bc83a 	sub	r5,zero,r5
   24348:	003ff106 	br	24310 <__alt_data_end+0xf4024310>

0002434c <__udivsi3>:
   2434c:	000d883a 	mov	r6,zero
   24350:	00242301 	jmpi	24230 <udivmodsi4>

00024354 <__umodsi3>:
   24354:	01800044 	movi	r6,1
   24358:	00242301 	jmpi	24230 <udivmodsi4>

0002435c <_exit>:
 *
 * ALT_EXIT is mapped onto the _exit() system call in alt_syscall.h
 */

void ALT_EXIT (int exit_code)
{
   2435c:	defffd04 	addi	sp,sp,-12
   24360:	df000215 	stw	fp,8(sp)
   24364:	df000204 	addi	fp,sp,8
   24368:	e13fff15 	stw	r4,-4(fp)
  ALT_LOG_PRINT_BOOT("[alt_exit.c] Entering _exit() function.\r\n");
  ALT_LOG_PRINT_BOOT("[alt_exit.c] Exit code from main was %d.\r\n",exit_code);
  /* Stop all other threads */

  ALT_LOG_PRINT_BOOT("[alt_exit.c] Calling ALT_OS_STOP().\r\n");
  ALT_OS_STOP();
   2436c:	0001883a 	nop
   24370:	e0bfff17 	ldw	r2,-4(fp)
   24374:	e0bffe15 	stw	r2,-8(fp)
/*
 * Routine called on exit.
 */
static ALT_INLINE ALT_ALWAYS_INLINE void alt_sim_halt(int exit_code)
{
  register int r2 asm ("r2") = exit_code;
   24378:	e0bffe17 	ldw	r2,-8(fp)
  __asm__ volatile ("\n0:\n\taddi %0,%0, -1\n\tbgt %0,zero,0b" : : "r" (ALT_CPU_FREQ/100) ); /* Delay for >30ms */

  __asm__ volatile ("break 2" : : "r"(r2), "r"(r3) ALT_GMON_DATA );

#else /* !DEBUG_STUB */
  if (r2) {
   2437c:	10000226 	beq	r2,zero,24388 <_exit+0x2c>
    ALT_SIM_FAIL();
   24380:	002af070 	cmpltui	zero,zero,43969
   24384:	00000106 	br	2438c <_exit+0x30>
  } else {
    ALT_SIM_PASS();
   24388:	002af0b0 	cmpltui	zero,zero,43970
  ALT_SIM_HALT(exit_code);

  /* spin forever, since there's no where to go back to */

  ALT_LOG_PRINT_BOOT("[alt_exit.c] Spinning forever.\r\n");
  while (1);
   2438c:	003fff06 	br	2438c <__alt_data_end+0xf402438c>

00024390 <getpid>:
 *
 * ALT_GETPID is mapped onto the getpid() system call in alt_syscall.h
 */
 
int ALT_GETPID (void)
{
   24390:	deffff04 	addi	sp,sp,-4
   24394:	df000015 	stw	fp,0(sp)
   24398:	d839883a 	mov	fp,sp
  return 0;
   2439c:	0005883a 	mov	r2,zero
}
   243a0:	e037883a 	mov	sp,fp
   243a4:	df000017 	ldw	fp,0(sp)
   243a8:	dec00104 	addi	sp,sp,4
   243ac:	f800283a 	ret

000243b0 <alt_get_errno>:
#undef errno

extern int errno;

static ALT_INLINE int* alt_get_errno(void)
{
   243b0:	defffe04 	addi	sp,sp,-8
   243b4:	dfc00115 	stw	ra,4(sp)
   243b8:	df000015 	stw	fp,0(sp)
   243bc:	d839883a 	mov	fp,sp
  return ((alt_errno) ? alt_errno() : &errno);
   243c0:	00820034 	movhi	r2,2048
   243c4:	1083d604 	addi	r2,r2,3928
   243c8:	10800017 	ldw	r2,0(r2)
   243cc:	10000526 	beq	r2,zero,243e4 <alt_get_errno+0x34>
   243d0:	00820034 	movhi	r2,2048
   243d4:	1083d604 	addi	r2,r2,3928
   243d8:	10800017 	ldw	r2,0(r2)
   243dc:	103ee83a 	callr	r2
   243e0:	00000206 	br	243ec <alt_get_errno+0x3c>
   243e4:	00820034 	movhi	r2,2048
   243e8:	1083e404 	addi	r2,r2,3984
}
   243ec:	e037883a 	mov	sp,fp
   243f0:	dfc00117 	ldw	ra,4(sp)
   243f4:	df000017 	ldw	fp,0(sp)
   243f8:	dec00204 	addi	sp,sp,8
   243fc:	f800283a 	ret

00024400 <kill>:
 *
 * ALT_KILL is mapped onto the kill() system call in alt_syscall.h
 */

int ALT_KILL (int pid, int sig)
{
   24400:	defffb04 	addi	sp,sp,-20
   24404:	dfc00415 	stw	ra,16(sp)
   24408:	df000315 	stw	fp,12(sp)
   2440c:	df000304 	addi	fp,sp,12
   24410:	e13ffe15 	stw	r4,-8(fp)
   24414:	e17fff15 	stw	r5,-4(fp)
  int status = 0;
   24418:	e03ffd15 	stw	zero,-12(fp)

  if (pid <= 0)
   2441c:	e0bffe17 	ldw	r2,-8(fp)
   24420:	00803116 	blt	zero,r2,244e8 <kill+0xe8>
  {
    switch (sig)
   24424:	e0bfff17 	ldw	r2,-4(fp)
   24428:	10800828 	cmpgeui	r2,r2,32
   2442c:	1000291e 	bne	r2,zero,244d4 <kill+0xd4>
   24430:	e0bfff17 	ldw	r2,-4(fp)
   24434:	100690ba 	slli	r3,r2,2
   24438:	008000b4 	movhi	r2,2
   2443c:	10911304 	addi	r2,r2,17484
   24440:	1885883a 	add	r2,r3,r2
   24444:	10800017 	ldw	r2,0(r2)
   24448:	1000683a 	jmp	r2
   2444c:	000244e0 	cmpeqi	zero,zero,2323
   24450:	000244d4 	movui	zero,2323
   24454:	000244d4 	movui	zero,2323
   24458:	000244cc 	andi	zero,zero,2323
   2445c:	000244cc 	andi	zero,zero,2323
   24460:	000244cc 	andi	zero,zero,2323
   24464:	000244cc 	andi	zero,zero,2323
   24468:	000244d4 	movui	zero,2323
   2446c:	000244cc 	andi	zero,zero,2323
   24470:	000244cc 	andi	zero,zero,2323
   24474:	000244cc 	andi	zero,zero,2323
   24478:	000244cc 	andi	zero,zero,2323
   2447c:	000244cc 	andi	zero,zero,2323
   24480:	000244cc 	andi	zero,zero,2323
   24484:	000244cc 	andi	zero,zero,2323
   24488:	000244cc 	andi	zero,zero,2323
   2448c:	000244e0 	cmpeqi	zero,zero,2323
   24490:	000244d4 	movui	zero,2323
   24494:	000244d4 	movui	zero,2323
   24498:	000244d4 	movui	zero,2323
   2449c:	000244e0 	cmpeqi	zero,zero,2323
   244a0:	000244d4 	movui	zero,2323
   244a4:	000244d4 	movui	zero,2323
   244a8:	000244cc 	andi	zero,zero,2323
   244ac:	000244cc 	andi	zero,zero,2323
   244b0:	000244cc 	andi	zero,zero,2323
   244b4:	000244cc 	andi	zero,zero,2323
   244b8:	000244cc 	andi	zero,zero,2323
   244bc:	000244d4 	movui	zero,2323
   244c0:	000244d4 	movui	zero,2323
   244c4:	000244cc 	andi	zero,zero,2323
   244c8:	000244cc 	andi	zero,zero,2323
       * The Posix standard defines the default behaviour for all these signals 
       * as being eqivalent to a call to _exit(). No mechanism is provided to 
       * change this behaviour.
       */

      _exit(0);
   244cc:	0009883a 	mov	r4,zero
   244d0:	002435c0 	call	2435c <_exit>
      break;
    default:

      /* Tried to send an unsupported signal */

      status = EINVAL;
   244d4:	00800584 	movi	r2,22
   244d8:	e0bffd15 	stw	r2,-12(fp)
   244dc:	00000606 	br	244f8 <kill+0xf8>
    {
    case 0:

      /* The null signal is used to check that a pid is valid. */

      break;
   244e0:	0001883a 	nop
   244e4:	00000406 	br	244f8 <kill+0xf8>

      status = EINVAL;
    }
  }

  else if (pid > 0)
   244e8:	e0bffe17 	ldw	r2,-8(fp)
   244ec:	0080020e 	bge	zero,r2,244f8 <kill+0xf8>
  {
    /* Attempted to signal a non-existant process */

    status = ESRCH;
   244f0:	008000c4 	movi	r2,3
   244f4:	e0bffd15 	stw	r2,-12(fp)
  }

  if (status)
   244f8:	e0bffd17 	ldw	r2,-12(fp)
   244fc:	10000626 	beq	r2,zero,24518 <kill+0x118>
  {
    ALT_ERRNO = status;
   24500:	00243b00 	call	243b0 <alt_get_errno>
   24504:	1007883a 	mov	r3,r2
   24508:	e0bffd17 	ldw	r2,-12(fp)
   2450c:	18800015 	stw	r2,0(r3)
    return -1;
   24510:	00bfffc4 	movi	r2,-1
   24514:	00000106 	br	2451c <kill+0x11c>
  }

  return 0;
   24518:	0005883a 	mov	r2,zero
}
   2451c:	e037883a 	mov	sp,fp
   24520:	dfc00117 	ldw	ra,4(sp)
   24524:	df000017 	ldw	fp,0(sp)
   24528:	dec00204 	addi	sp,sp,8
   2452c:	f800283a 	ret

00024530 <alt_load_section>:
 */

static void ALT_INLINE alt_load_section (alt_u32* from, 
                                         alt_u32* to, 
                                         alt_u32* end)
{
   24530:	defffc04 	addi	sp,sp,-16
   24534:	df000315 	stw	fp,12(sp)
   24538:	df000304 	addi	fp,sp,12
   2453c:	e13ffd15 	stw	r4,-12(fp)
   24540:	e17ffe15 	stw	r5,-8(fp)
   24544:	e1bfff15 	stw	r6,-4(fp)
  if (to != from)
   24548:	e0fffe17 	ldw	r3,-8(fp)
   2454c:	e0bffd17 	ldw	r2,-12(fp)
   24550:	18800c26 	beq	r3,r2,24584 <alt_load_section+0x54>
  {
    while( to != end )
   24554:	00000806 	br	24578 <alt_load_section+0x48>
    {
      *to++ = *from++;
   24558:	e0bffe17 	ldw	r2,-8(fp)
   2455c:	10c00104 	addi	r3,r2,4
   24560:	e0fffe15 	stw	r3,-8(fp)
   24564:	e0fffd17 	ldw	r3,-12(fp)
   24568:	19000104 	addi	r4,r3,4
   2456c:	e13ffd15 	stw	r4,-12(fp)
   24570:	18c00017 	ldw	r3,0(r3)
   24574:	10c00015 	stw	r3,0(r2)
                                         alt_u32* to, 
                                         alt_u32* end)
{
  if (to != from)
  {
    while( to != end )
   24578:	e0fffe17 	ldw	r3,-8(fp)
   2457c:	e0bfff17 	ldw	r2,-4(fp)
   24580:	18bff51e 	bne	r3,r2,24558 <__alt_data_end+0xf4024558>
    {
      *to++ = *from++;
    }
  }
}
   24584:	e037883a 	mov	sp,fp
   24588:	df000017 	ldw	fp,0(sp)
   2458c:	dec00104 	addi	sp,sp,4
   24590:	f800283a 	ret

00024594 <alt_load>:
 * there is no bootloader, so this application is responsible for loading to
 * RAM any sections that are required.
 */  

void alt_load (void)
{
   24594:	defffe04 	addi	sp,sp,-8
   24598:	dfc00115 	stw	ra,4(sp)
   2459c:	df000015 	stw	fp,0(sp)
   245a0:	d839883a 	mov	fp,sp
  /* 
   * Copy the .rwdata section. 
   */

  alt_load_section (&__flash_rwdata_start, 
   245a4:	010000f4 	movhi	r4,3
   245a8:	212a2c04 	addi	r4,r4,-22352
   245ac:	01420034 	movhi	r5,2048
   245b0:	29416a04 	addi	r5,r5,1448
   245b4:	01820034 	movhi	r6,2048
   245b8:	3183d704 	addi	r6,r6,3932
   245bc:	00245300 	call	24530 <alt_load_section>

  /*
   * Copy the exception handler.
   */

  alt_load_section (&__flash_exceptions_start, 
   245c0:	010000b4 	movhi	r4,2
   245c4:	21000804 	addi	r4,r4,32
   245c8:	014000b4 	movhi	r5,2
   245cc:	29400804 	addi	r5,r5,32
   245d0:	018000b4 	movhi	r6,2
   245d4:	31800804 	addi	r6,r6,32
   245d8:	00245300 	call	24530 <alt_load_section>

  /*
   * Copy the .rodata section.
   */

  alt_load_section (&__flash_rodata_start, 
   245dc:	010000f4 	movhi	r4,3
   245e0:	2128c204 	addi	r4,r4,-23800
   245e4:	01420034 	movhi	r5,2048
   245e8:	29400004 	addi	r5,r5,0
   245ec:	01820034 	movhi	r6,2048
   245f0:	31816a04 	addi	r6,r6,1448
   245f4:	00245300 	call	24530 <alt_load_section>
  
  /*
   * Now ensure that the caches are in synch.
   */
  
  alt_dcache_flush_all();
   245f8:	00296600 	call	29660 <alt_dcache_flush_all>
  alt_icache_flush_all();
   245fc:	00298e40 	call	298e4 <alt_icache_flush_all>
}
   24600:	e037883a 	mov	sp,fp
   24604:	dfc00117 	ldw	ra,4(sp)
   24608:	df000017 	ldw	fp,0(sp)
   2460c:	dec00204 	addi	sp,sp,8
   24610:	f800283a 	ret

00024614 <alt_main>:
 * devices/filesystems/components in the system; and call the entry point for
 * the users application, i.e. main().
 */

void alt_main (void)
{
   24614:	defffd04 	addi	sp,sp,-12
   24618:	dfc00215 	stw	ra,8(sp)
   2461c:	df000115 	stw	fp,4(sp)
   24620:	df000104 	addi	fp,sp,4
#endif

  /* ALT LOG - please see HAL/sys/alt_log_printf.h for details */
  ALT_LOG_PRINT_BOOT("[alt_main.c] Entering alt_main, calling alt_irq_init.\r\n");
  /* Initialize the interrupt controller. */
  alt_irq_init (NULL);
   24624:	0009883a 	mov	r4,zero
   24628:	0024b700 	call	24b70 <alt_irq_init>

  /* Initialize the operating system */
  ALT_LOG_PRINT_BOOT("[alt_main.c] Done alt_irq_init, calling alt_os_init.\r\n");
  ALT_OS_INIT();
   2462c:	0001883a 	nop
  ALT_LOG_PRINT_BOOT("[alt_main.c] Done OS Init, calling alt_sem_create.\r\n");
  ALT_SEM_CREATE (&alt_fd_list_lock, 1);

  /* Initialize the device drivers/software components. */
  ALT_LOG_PRINT_BOOT("[alt_main.c] Calling alt_sys_init.\r\n");
  alt_sys_init();
   24630:	0024ba40 	call	24ba4 <alt_sys_init>
   * devices be present (not equal to /dev/null) and if direct drivers
   * aren't being used.
   */

    ALT_LOG_PRINT_BOOT("[alt_main.c] Redirecting IO.\r\n");
    alt_io_redirect(ALT_STDOUT, ALT_STDIN, ALT_STDERR);
   24634:	01020034 	movhi	r4,2048
   24638:	21014e04 	addi	r4,r4,1336
   2463c:	01420034 	movhi	r5,2048
   24640:	29414e04 	addi	r5,r5,1336
   24644:	01820034 	movhi	r6,2048
   24648:	31814e04 	addi	r6,r6,1336
   2464c:	00299e00 	call	299e0 <alt_io_redirect>
  /* 
   * Call the C++ constructors 
   */

  ALT_LOG_PRINT_BOOT("[alt_main.c] Calling C++ constructors.\r\n");
  _do_ctors ();
   24650:	002979c0 	call	2979c <_do_ctors>
   * redefined as _exit()). This is in the interest of reducing code footprint,
   * in that the atexit() overhead is removed when it's not needed.
   */

  ALT_LOG_PRINT_BOOT("[alt_main.c] Calling atexit.\r\n");
  atexit (_do_dtors);
   24654:	010000f4 	movhi	r4,3
   24658:	2125fe04 	addi	r4,r4,-26632
   2465c:	0029f840 	call	29f84 <atexit>
  ALT_LOG_PRINT_BOOT("[alt_main.c] Calling main.\r\n");

#ifdef ALT_NO_EXIT
  main (alt_argc, alt_argv, alt_envp);
#else
  result = main (alt_argc, alt_argv, alt_envp);
   24660:	d1202b17 	ldw	r4,-32596(gp)
   24664:	d0e02c17 	ldw	r3,-32592(gp)
   24668:	d0a02d17 	ldw	r2,-32588(gp)
   2466c:	180b883a 	mov	r5,r3
   24670:	100d883a 	mov	r6,r2
   24674:	00206800 	call	20680 <main>
   24678:	e0bfff15 	stw	r2,-4(fp)
  close(STDOUT_FILENO);
   2467c:	01000044 	movi	r4,1
   24680:	00295880 	call	29588 <close>
  exit (result);
   24684:	e13fff17 	ldw	r4,-4(fp)
   24688:	0029f980 	call	29f98 <exit>

0002468c <__malloc_lock>:
 * configuration is single threaded, so there is nothing to do here. Note that 
 * this requires that malloc is never called by an interrupt service routine.
 */

void __malloc_lock ( struct _reent *_r )
{
   2468c:	defffe04 	addi	sp,sp,-8
   24690:	df000115 	stw	fp,4(sp)
   24694:	df000104 	addi	fp,sp,4
   24698:	e13fff15 	stw	r4,-4(fp)
}
   2469c:	e037883a 	mov	sp,fp
   246a0:	df000017 	ldw	fp,0(sp)
   246a4:	dec00104 	addi	sp,sp,4
   246a8:	f800283a 	ret

000246ac <__malloc_unlock>:
/*
 *
 */

void __malloc_unlock ( struct _reent *_r )
{
   246ac:	defffe04 	addi	sp,sp,-8
   246b0:	df000115 	stw	fp,4(sp)
   246b4:	df000104 	addi	fp,sp,4
   246b8:	e13fff15 	stw	r4,-4(fp)
}
   246bc:	e037883a 	mov	sp,fp
   246c0:	df000017 	ldw	fp,0(sp)
   246c4:	dec00104 	addi	sp,sp,4
   246c8:	f800283a 	ret

000246cc <alt_printf>:
/* 
 * ALT printf function 
 */
void 
alt_printf(const char* fmt, ... )
{
   246cc:	defff204 	addi	sp,sp,-56
   246d0:	dfc00a15 	stw	ra,40(sp)
   246d4:	df000915 	stw	fp,36(sp)
   246d8:	df000904 	addi	fp,sp,36
   246dc:	e1400215 	stw	r5,8(fp)
   246e0:	e1800315 	stw	r6,12(fp)
   246e4:	e1c00415 	stw	r7,16(fp)
   246e8:	e13fff15 	stw	r4,-4(fp)
	va_list args;
	va_start(args, fmt);
   246ec:	e0800204 	addi	r2,fp,8
   246f0:	e0bffe15 	stw	r2,-8(fp)
    const char *w;
    char c;

    /* Process format string. */
    w = fmt;
   246f4:	e0bfff17 	ldw	r2,-4(fp)
   246f8:	e0bff715 	stw	r2,-36(fp)
    while ((c = *w++) != 0)
   246fc:	00007106 	br	248c4 <alt_printf+0x1f8>
    {
        /* If not a format escape character, just print  */
        /* character.  Otherwise, process format string. */
        if (c != '%')
   24700:	e0bff807 	ldb	r2,-32(fp)
   24704:	10800960 	cmpeqi	r2,r2,37
   24708:	1000041e 	bne	r2,zero,2471c <alt_printf+0x50>
        {
            alt_putchar(c);
   2470c:	e0bff807 	ldb	r2,-32(fp)
   24710:	1009883a 	mov	r4,r2
   24714:	00248f40 	call	248f4 <alt_putchar>
   24718:	00006a06 	br	248c4 <alt_printf+0x1f8>
        }
        else
        {
            /* Get format character.  If none     */
            /* available, processing is complete. */
            if ((c = *w++) != 0)
   2471c:	e0bff717 	ldw	r2,-36(fp)
   24720:	10c00044 	addi	r3,r2,1
   24724:	e0fff715 	stw	r3,-36(fp)
   24728:	10800003 	ldbu	r2,0(r2)
   2472c:	e0bff805 	stb	r2,-32(fp)
   24730:	e0bff807 	ldb	r2,-32(fp)
   24734:	10006226 	beq	r2,zero,248c0 <alt_printf+0x1f4>
            {
                if (c == '%')
   24738:	e0bff807 	ldb	r2,-32(fp)
   2473c:	10800958 	cmpnei	r2,r2,37
   24740:	1000041e 	bne	r2,zero,24754 <alt_printf+0x88>
                {
                    /* Process "%" escape sequence. */
                    alt_putchar(c);
   24744:	e0bff807 	ldb	r2,-32(fp)
   24748:	1009883a 	mov	r4,r2
   2474c:	00248f40 	call	248f4 <alt_putchar>
   24750:	00005c06 	br	248c4 <alt_printf+0x1f8>
                } 
                else if (c == 'c')
   24754:	e0bff807 	ldb	r2,-32(fp)
   24758:	108018d8 	cmpnei	r2,r2,99
   2475c:	1000081e 	bne	r2,zero,24780 <alt_printf+0xb4>
                {
                    int v = va_arg(args, int);
   24760:	e0bffe17 	ldw	r2,-8(fp)
   24764:	10c00104 	addi	r3,r2,4
   24768:	e0fffe15 	stw	r3,-8(fp)
   2476c:	10800017 	ldw	r2,0(r2)
   24770:	e0bffd15 	stw	r2,-12(fp)
                    alt_putchar(v);
   24774:	e13ffd17 	ldw	r4,-12(fp)
   24778:	00248f40 	call	248f4 <alt_putchar>
   2477c:	00005106 	br	248c4 <alt_printf+0x1f8>
                }
                else if (c == 'x')
   24780:	e0bff807 	ldb	r2,-32(fp)
   24784:	10801e18 	cmpnei	r2,r2,120
   24788:	1000341e 	bne	r2,zero,2485c <alt_printf+0x190>
                {
                    /* Process hexadecimal number format. */
                    unsigned long v = va_arg(args, unsigned long);
   2478c:	e0bffe17 	ldw	r2,-8(fp)
   24790:	10c00104 	addi	r3,r2,4
   24794:	e0fffe15 	stw	r3,-8(fp)
   24798:	10800017 	ldw	r2,0(r2)
   2479c:	e0bffb15 	stw	r2,-20(fp)
                    unsigned long digit;
                    int digit_shift;

                    /* If the number value is zero, just print and continue. */
                    if (v == 0)
   247a0:	e0bffb17 	ldw	r2,-20(fp)
   247a4:	1000031e 	bne	r2,zero,247b4 <alt_printf+0xe8>
                    {
                        alt_putchar('0');
   247a8:	01000c04 	movi	r4,48
   247ac:	00248f40 	call	248f4 <alt_putchar>
                        continue;
   247b0:	00004406 	br	248c4 <alt_printf+0x1f8>
                    }

                    /* Find first non-zero digit. */
                    digit_shift = 28;
   247b4:	00800704 	movi	r2,28
   247b8:	e0bff915 	stw	r2,-28(fp)
                    while (!(v & (0xF << digit_shift)))
   247bc:	00000306 	br	247cc <alt_printf+0x100>
                        digit_shift -= 4;
   247c0:	e0bff917 	ldw	r2,-28(fp)
   247c4:	10bfff04 	addi	r2,r2,-4
   247c8:	e0bff915 	stw	r2,-28(fp)
                        continue;
                    }

                    /* Find first non-zero digit. */
                    digit_shift = 28;
                    while (!(v & (0xF << digit_shift)))
   247cc:	00c003c4 	movi	r3,15
   247d0:	e0bff917 	ldw	r2,-28(fp)
   247d4:	1884983a 	sll	r2,r3,r2
   247d8:	1007883a 	mov	r3,r2
   247dc:	e0bffb17 	ldw	r2,-20(fp)
   247e0:	1884703a 	and	r2,r3,r2
   247e4:	103ff626 	beq	r2,zero,247c0 <__alt_data_end+0xf40247c0>
                        digit_shift -= 4;

                    /* Print digits. */
                    for (; digit_shift >= 0; digit_shift -= 4)
   247e8:	00001906 	br	24850 <alt_printf+0x184>
                    {
                        digit = (v & (0xF << digit_shift)) >> digit_shift;
   247ec:	00c003c4 	movi	r3,15
   247f0:	e0bff917 	ldw	r2,-28(fp)
   247f4:	1884983a 	sll	r2,r3,r2
   247f8:	1007883a 	mov	r3,r2
   247fc:	e0bffb17 	ldw	r2,-20(fp)
   24800:	1886703a 	and	r3,r3,r2
   24804:	e0bff917 	ldw	r2,-28(fp)
   24808:	1884d83a 	srl	r2,r3,r2
   2480c:	e0bffc15 	stw	r2,-16(fp)
                        if (digit <= 9)
   24810:	e0bffc17 	ldw	r2,-16(fp)
   24814:	108002a8 	cmpgeui	r2,r2,10
   24818:	1000041e 	bne	r2,zero,2482c <alt_printf+0x160>
                            c = '0' + digit;
   2481c:	e0bffc17 	ldw	r2,-16(fp)
   24820:	10800c04 	addi	r2,r2,48
   24824:	e0bff805 	stb	r2,-32(fp)
   24828:	00000306 	br	24838 <alt_printf+0x16c>
                        else
                            c = 'a' + digit - 10;
   2482c:	e0bffc17 	ldw	r2,-16(fp)
   24830:	108015c4 	addi	r2,r2,87
   24834:	e0bff805 	stb	r2,-32(fp)
                        alt_putchar(c);
   24838:	e0bff807 	ldb	r2,-32(fp)
   2483c:	1009883a 	mov	r4,r2
   24840:	00248f40 	call	248f4 <alt_putchar>
                    digit_shift = 28;
                    while (!(v & (0xF << digit_shift)))
                        digit_shift -= 4;

                    /* Print digits. */
                    for (; digit_shift >= 0; digit_shift -= 4)
   24844:	e0bff917 	ldw	r2,-28(fp)
   24848:	10bfff04 	addi	r2,r2,-4
   2484c:	e0bff915 	stw	r2,-28(fp)
   24850:	e0bff917 	ldw	r2,-28(fp)
   24854:	103fe50e 	bge	r2,zero,247ec <__alt_data_end+0xf40247ec>
   24858:	00001a06 	br	248c4 <alt_printf+0x1f8>
                        else
                            c = 'a' + digit - 10;
                        alt_putchar(c);
                    }
                }
                else if (c == 's')
   2485c:	e0bff807 	ldb	r2,-32(fp)
   24860:	10801cd8 	cmpnei	r2,r2,115
   24864:	1000151e 	bne	r2,zero,248bc <alt_printf+0x1f0>
                {
                    /* Process string format. */
                    char *s = va_arg(args, char *);
   24868:	e0bffe17 	ldw	r2,-8(fp)
   2486c:	10c00104 	addi	r3,r2,4
   24870:	e0fffe15 	stw	r3,-8(fp)
   24874:	10800017 	ldw	r2,0(r2)
   24878:	e0bffa15 	stw	r2,-24(fp)

                    while(*s)
   2487c:	00000906 	br	248a4 <alt_printf+0x1d8>
                      alt_putchar(*s++);
   24880:	e0bffa17 	ldw	r2,-24(fp)
   24884:	10c00044 	addi	r3,r2,1
   24888:	e0fffa15 	stw	r3,-24(fp)
   2488c:	10800003 	ldbu	r2,0(r2)
   24890:	10803fcc 	andi	r2,r2,255
   24894:	1080201c 	xori	r2,r2,128
   24898:	10bfe004 	addi	r2,r2,-128
   2489c:	1009883a 	mov	r4,r2
   248a0:	00248f40 	call	248f4 <alt_putchar>
                else if (c == 's')
                {
                    /* Process string format. */
                    char *s = va_arg(args, char *);

                    while(*s)
   248a4:	e0bffa17 	ldw	r2,-24(fp)
   248a8:	10800003 	ldbu	r2,0(r2)
   248ac:	10803fcc 	andi	r2,r2,255
   248b0:	1080201c 	xori	r2,r2,128
   248b4:	10bfe004 	addi	r2,r2,-128
   248b8:	103ff11e 	bne	r2,zero,24880 <__alt_data_end+0xf4024880>
   248bc:	00000106 	br	248c4 <alt_printf+0x1f8>
                      alt_putchar(*s++);
                }
            }
            else
            {
                break;
   248c0:	00000706 	br	248e0 <alt_printf+0x214>
    const char *w;
    char c;

    /* Process format string. */
    w = fmt;
    while ((c = *w++) != 0)
   248c4:	e0bff717 	ldw	r2,-36(fp)
   248c8:	10c00044 	addi	r3,r2,1
   248cc:	e0fff715 	stw	r3,-36(fp)
   248d0:	10800003 	ldbu	r2,0(r2)
   248d4:	e0bff805 	stb	r2,-32(fp)
   248d8:	e0bff807 	ldb	r2,-32(fp)
   248dc:	103f881e 	bne	r2,zero,24700 <__alt_data_end+0xf4024700>
            {
                break;
            }
        }
    }
}
   248e0:	e037883a 	mov	sp,fp
   248e4:	dfc00117 	ldw	ra,4(sp)
   248e8:	df000017 	ldw	fp,0(sp)
   248ec:	dec00504 	addi	sp,sp,20
   248f0:	f800283a 	ret

000248f4 <alt_putchar>:
 * Uses the ALT_DRIVER_WRITE() macro to call directly to driver if available.
 * Otherwise, uses newlib provided putchar() routine.
 */
int 
alt_putchar(int c)
{
   248f4:	defffd04 	addi	sp,sp,-12
   248f8:	dfc00215 	stw	ra,8(sp)
   248fc:	df000115 	stw	fp,4(sp)
   24900:	df000104 	addi	fp,sp,4
   24904:	e13fff15 	stw	r4,-4(fp)
    if (ALT_DRIVER_WRITE(ALT_STDOUT_DEV, &c1, 1, 0) == -1) {
        return -1;
    }
    return c;
#else
    return putchar(c);
   24908:	00820034 	movhi	r2,2048
   2490c:	1083cf04 	addi	r2,r2,3900
   24910:	10800017 	ldw	r2,0(r2)
   24914:	10800217 	ldw	r2,8(r2)
   24918:	e13fff17 	ldw	r4,-4(fp)
   2491c:	100b883a 	mov	r5,r2
   24920:	002412c0 	call	2412c <putc>
#endif
}
   24924:	e037883a 	mov	sp,fp
   24928:	dfc00117 	ldw	ra,4(sp)
   2492c:	df000017 	ldw	fp,0(sp)
   24930:	dec00204 	addi	sp,sp,8
   24934:	f800283a 	ret

00024938 <sbrk>:
#endif
 
caddr_t ALT_SBRK (int incr) __attribute__ ((no_instrument_function ));

caddr_t ALT_SBRK (int incr)
{ 
   24938:	defff904 	addi	sp,sp,-28
   2493c:	df000615 	stw	fp,24(sp)
   24940:	df000604 	addi	fp,sp,24
   24944:	e13fff15 	stw	r4,-4(fp)
static ALT_INLINE alt_irq_context ALT_ALWAYS_INLINE 
       alt_irq_disable_all (void)
{
  alt_irq_context context;

  NIOS2_READ_STATUS (context);
   24948:	0005303a 	rdctl	r2,status
   2494c:	e0bffc15 	stw	r2,-16(fp)

  NIOS2_WRITE_STATUS (context & ~NIOS2_STATUS_PIE_MSK);
   24950:	e0fffc17 	ldw	r3,-16(fp)
   24954:	00bfff84 	movi	r2,-2
   24958:	1884703a 	and	r2,r3,r2
   2495c:	1001703a 	wrctl	status,r2
  
  return context;
   24960:	e0bffc17 	ldw	r2,-16(fp)
  alt_irq_context context;
  char *prev_heap_end; 

  context = alt_irq_disable_all();
   24964:	e0bffa15 	stw	r2,-24(fp)

  /* Always return data aligned on a word boundary */
  heap_end = (char *)(((unsigned int)heap_end + 3) & ~3);
   24968:	d0a01617 	ldw	r2,-32680(gp)
   2496c:	10c000c4 	addi	r3,r2,3
   24970:	00bfff04 	movi	r2,-4
   24974:	1884703a 	and	r2,r3,r2
   24978:	d0a01615 	stw	r2,-32680(gp)
  if (((heap_end + incr) - __alt_heap_start) > ALT_MAX_HEAP_BYTES) {
    alt_irq_enable_all(context);
    return (caddr_t)-1;
  }
#else
  if ((heap_end + incr) > __alt_heap_limit) {
   2497c:	d0e01617 	ldw	r3,-32680(gp)
   24980:	e0bfff17 	ldw	r2,-4(fp)
   24984:	1887883a 	add	r3,r3,r2
   24988:	00830034 	movhi	r2,3072
   2498c:	10800004 	addi	r2,r2,0
   24990:	10c0062e 	bgeu	r2,r3,249ac <sbrk+0x74>
   24994:	e0bffa17 	ldw	r2,-24(fp)
   24998:	e0bffd15 	stw	r2,-12(fp)
  status &= ~NIOS2_STATUS_PIE_MSK;
  status |= (context & NIOS2_STATUS_PIE_MSK);
  
  NIOS2_WRITE_STATUS (status);
#else
  NIOS2_WRITE_STATUS (context);
   2499c:	e0bffd17 	ldw	r2,-12(fp)
   249a0:	1001703a 	wrctl	status,r2
    alt_irq_enable_all(context);
    return (caddr_t)-1;
   249a4:	00bfffc4 	movi	r2,-1
   249a8:	00000b06 	br	249d8 <sbrk+0xa0>
  }
#endif

  prev_heap_end = heap_end; 
   249ac:	d0a01617 	ldw	r2,-32680(gp)
   249b0:	e0bffb15 	stw	r2,-20(fp)
  heap_end += incr; 
   249b4:	d0e01617 	ldw	r3,-32680(gp)
   249b8:	e0bfff17 	ldw	r2,-4(fp)
   249bc:	1885883a 	add	r2,r3,r2
   249c0:	d0a01615 	stw	r2,-32680(gp)
   249c4:	e0bffa17 	ldw	r2,-24(fp)
   249c8:	e0bffe15 	stw	r2,-8(fp)
   249cc:	e0bffe17 	ldw	r2,-8(fp)
   249d0:	1001703a 	wrctl	status,r2

#endif

  alt_irq_enable_all(context);

  return (caddr_t) prev_heap_end; 
   249d4:	e0bffb17 	ldw	r2,-20(fp)
} 
   249d8:	e037883a 	mov	sp,fp
   249dc:	df000017 	ldw	fp,0(sp)
   249e0:	dec00104 	addi	sp,sp,4
   249e4:	f800283a 	ret

000249e8 <alt_get_errno>:
#undef errno

extern int errno;

static ALT_INLINE int* alt_get_errno(void)
{
   249e8:	defffe04 	addi	sp,sp,-8
   249ec:	dfc00115 	stw	ra,4(sp)
   249f0:	df000015 	stw	fp,0(sp)
   249f4:	d839883a 	mov	fp,sp
  return ((alt_errno) ? alt_errno() : &errno);
   249f8:	00820034 	movhi	r2,2048
   249fc:	1083d604 	addi	r2,r2,3928
   24a00:	10800017 	ldw	r2,0(r2)
   24a04:	10000526 	beq	r2,zero,24a1c <alt_get_errno+0x34>
   24a08:	00820034 	movhi	r2,2048
   24a0c:	1083d604 	addi	r2,r2,3928
   24a10:	10800017 	ldw	r2,0(r2)
   24a14:	103ee83a 	callr	r2
   24a18:	00000206 	br	24a24 <alt_get_errno+0x3c>
   24a1c:	00820034 	movhi	r2,2048
   24a20:	1083e404 	addi	r2,r2,3984
}
   24a24:	e037883a 	mov	sp,fp
   24a28:	dfc00117 	ldw	ra,4(sp)
   24a2c:	df000017 	ldw	fp,0(sp)
   24a30:	dec00204 	addi	sp,sp,8
   24a34:	f800283a 	ret

00024a38 <write>:
}

#else /* !ALT_USE_DIRECT_DRIVERS */

int ALT_WRITE (int file, const void *ptr, size_t len)
{
   24a38:	defff904 	addi	sp,sp,-28
   24a3c:	dfc00615 	stw	ra,24(sp)
   24a40:	df000515 	stw	fp,20(sp)
   24a44:	df000504 	addi	fp,sp,20
   24a48:	e13ffd15 	stw	r4,-12(fp)
   24a4c:	e17ffe15 	stw	r5,-8(fp)
   24a50:	e1bfff15 	stw	r6,-4(fp)
   * A common error case is that when the file descriptor was created, the call
   * to open() failed resulting in a negative file descriptor. This is trapped
   * below so that we don't try and process an invalid file descriptor.
   */

  fd = (file < 0) ? NULL : &alt_fd_list[file];
   24a54:	e0bffd17 	ldw	r2,-12(fp)
   24a58:	10000816 	blt	r2,zero,24a7c <write+0x44>
   24a5c:	e13ffd17 	ldw	r4,-12(fp)
   24a60:	01400304 	movi	r5,12
   24a64:	00225e40 	call	225e4 <__mulsi3>
   24a68:	1007883a 	mov	r3,r2
   24a6c:	00820034 	movhi	r2,2048
   24a70:	10835a04 	addi	r2,r2,3432
   24a74:	1885883a 	add	r2,r3,r2
   24a78:	00000106 	br	24a80 <write+0x48>
   24a7c:	0005883a 	mov	r2,zero
   24a80:	e0bffb15 	stw	r2,-20(fp)
  
  if (fd)
   24a84:	e0bffb17 	ldw	r2,-20(fp)
   24a88:	10002126 	beq	r2,zero,24b10 <write+0xd8>
     * If the file has not been opened with write access, or if the driver does
     * not provide an implementation of write(), generate an error. Otherwise
     * call the drivers write() function to process the request.
     */

    if (((fd->fd_flags & O_ACCMODE) != O_RDONLY) && fd->dev->write)
   24a8c:	e0bffb17 	ldw	r2,-20(fp)
   24a90:	10800217 	ldw	r2,8(r2)
   24a94:	108000cc 	andi	r2,r2,3
   24a98:	10001826 	beq	r2,zero,24afc <write+0xc4>
   24a9c:	e0bffb17 	ldw	r2,-20(fp)
   24aa0:	10800017 	ldw	r2,0(r2)
   24aa4:	10800617 	ldw	r2,24(r2)
   24aa8:	10001426 	beq	r2,zero,24afc <write+0xc4>
    {
      
      /* ALT_LOG - see altera_hal/HAL/inc/sys/alt_log_printf.h */
      ALT_LOG_WRITE_FUNCTION(ptr,len);

      if ((rval = fd->dev->write(fd, ptr, len)) < 0)
   24aac:	e0bffb17 	ldw	r2,-20(fp)
   24ab0:	10800017 	ldw	r2,0(r2)
   24ab4:	10800617 	ldw	r2,24(r2)
   24ab8:	e0ffff17 	ldw	r3,-4(fp)
   24abc:	e13ffb17 	ldw	r4,-20(fp)
   24ac0:	e17ffe17 	ldw	r5,-8(fp)
   24ac4:	180d883a 	mov	r6,r3
   24ac8:	103ee83a 	callr	r2
   24acc:	e0bffc15 	stw	r2,-16(fp)
   24ad0:	e0bffc17 	ldw	r2,-16(fp)
   24ad4:	1000070e 	bge	r2,zero,24af4 <write+0xbc>
      {
        ALT_ERRNO = -rval;
   24ad8:	00249e80 	call	249e8 <alt_get_errno>
   24adc:	1007883a 	mov	r3,r2
   24ae0:	e0bffc17 	ldw	r2,-16(fp)
   24ae4:	0085c83a 	sub	r2,zero,r2
   24ae8:	18800015 	stw	r2,0(r3)
        return -1;
   24aec:	00bfffc4 	movi	r2,-1
   24af0:	00000c06 	br	24b24 <write+0xec>
      }
      return rval;
   24af4:	e0bffc17 	ldw	r2,-16(fp)
   24af8:	00000a06 	br	24b24 <write+0xec>
    }
    else
    {
      ALT_ERRNO = EACCES;
   24afc:	00249e80 	call	249e8 <alt_get_errno>
   24b00:	1007883a 	mov	r3,r2
   24b04:	00800344 	movi	r2,13
   24b08:	18800015 	stw	r2,0(r3)
   24b0c:	00000406 	br	24b20 <write+0xe8>
    }
  }
  else  
  {
    ALT_ERRNO = EBADFD;
   24b10:	00249e80 	call	249e8 <alt_get_errno>
   24b14:	1007883a 	mov	r3,r2
   24b18:	00801444 	movi	r2,81
   24b1c:	18800015 	stw	r2,0(r3)
  }
  return -1;
   24b20:	00bfffc4 	movi	r2,-1
}
   24b24:	e037883a 	mov	sp,fp
   24b28:	dfc00117 	ldw	ra,4(sp)
   24b2c:	df000017 	ldw	fp,0(sp)
   24b30:	dec00204 	addi	sp,sp,8
   24b34:	f800283a 	ret

00024b38 <alt_dev_reg>:
 */

extern int alt_fs_reg  (alt_dev* dev); 

static ALT_INLINE int alt_dev_reg (alt_dev* dev)
{
   24b38:	defffd04 	addi	sp,sp,-12
   24b3c:	dfc00215 	stw	ra,8(sp)
   24b40:	df000115 	stw	fp,4(sp)
   24b44:	df000104 	addi	fp,sp,4
   24b48:	e13fff15 	stw	r4,-4(fp)
  extern alt_llist alt_dev_list;

  return alt_dev_llist_insert ((alt_dev_llist*) dev, &alt_dev_list);
   24b4c:	e13fff17 	ldw	r4,-4(fp)
   24b50:	01420034 	movhi	r5,2048
   24b54:	2943d304 	addi	r5,r5,3916
   24b58:	00296f80 	call	296f8 <alt_dev_llist_insert>
}
   24b5c:	e037883a 	mov	sp,fp
   24b60:	dfc00117 	ldw	ra,4(sp)
   24b64:	df000017 	ldw	fp,0(sp)
   24b68:	dec00204 	addi	sp,sp,8
   24b6c:	f800283a 	ret

00024b70 <alt_irq_init>:
 * The "base" parameter is ignored and only
 * present for backwards-compatibility.
 */

void alt_irq_init ( const void* base )
{
   24b70:	defffd04 	addi	sp,sp,-12
   24b74:	dfc00215 	stw	ra,8(sp)
   24b78:	df000115 	stw	fp,4(sp)
   24b7c:	df000104 	addi	fp,sp,4
   24b80:	e13fff15 	stw	r4,-4(fp)
    ALTERA_NIOS2_GEN2_IRQ_INIT ( NIOS2_GEN2_0, nios2_gen2_0);
   24b84:	0029d7c0 	call	29d7c <altera_nios2_gen2_irq_init>
 * alt_irq_cpu_enable_interrupts() enables the CPU to start taking interrupts.
 */
static ALT_INLINE void ALT_ALWAYS_INLINE 
       alt_irq_cpu_enable_interrupts (void)
{
    NIOS2_WRITE_STATUS(NIOS2_STATUS_PIE_MSK
   24b88:	00800044 	movi	r2,1
   24b8c:	1001703a 	wrctl	status,r2
    alt_irq_cpu_enable_interrupts();
}
   24b90:	e037883a 	mov	sp,fp
   24b94:	dfc00117 	ldw	ra,4(sp)
   24b98:	df000017 	ldw	fp,0(sp)
   24b9c:	dec00204 	addi	sp,sp,8
   24ba0:	f800283a 	ret

00024ba4 <alt_sys_init>:
 * Initialize the non-interrupt controller devices.
 * Called after alt_irq_init().
 */

void alt_sys_init( void )
{
   24ba4:	defffe04 	addi	sp,sp,-8
   24ba8:	dfc00115 	stw	ra,4(sp)
   24bac:	df000015 	stw	fp,0(sp)
   24bb0:	d839883a 	mov	fp,sp
    ALTERA_AVALON_JTAG_UART_INIT ( JTAG_UART_0, jtag_uart_0);
   24bb4:	01020034 	movhi	r4,2048
   24bb8:	21032404 	addi	r4,r4,3216
   24bbc:	0024b380 	call	24b38 <alt_dev_reg>
    ALTERA_UP_AVALON_RS232_INIT ( BT_RS232_UART, bt_rs232_uart);
   24bc0:	01020034 	movhi	r4,2048
   24bc4:	21032f04 	addi	r4,r4,3260
   24bc8:	0024b380 	call	24b38 <alt_dev_reg>
    ALTERA_UP_AVALON_RS232_INIT ( WIFI_RS232_UART, wifi_rs232_uart);
   24bcc:	01020034 	movhi	r4,2048
   24bd0:	21033a04 	addi	r4,r4,3304
   24bd4:	0024b380 	call	24b38 <alt_dev_reg>
    ALTERA_UP_SD_CARD_AVALON_INTERFACE_INIT ( SD_CARD_IC, sd_card_ic);
   24bd8:	01020034 	movhi	r4,2048
   24bdc:	21034504 	addi	r4,r4,3348
   24be0:	0024b380 	call	24b38 <alt_dev_reg>
}
   24be4:	e037883a 	mov	sp,fp
   24be8:	dfc00117 	ldw	ra,4(sp)
   24bec:	df000017 	ldw	fp,0(sp)
   24bf0:	dec00204 	addi	sp,sp,8
   24bf4:	f800283a 	ret

00024bf8 <Write_Sector_Data>:
///////////////////////////////////////////////////////////////////////////

        
bool Write_Sector_Data(int sector_index, int partition_offset)
// This function writes a sector at the specified address on the SD Card.
{
   24bf8:	defffa04 	addi	sp,sp,-24
   24bfc:	dfc00515 	stw	ra,20(sp)
   24c00:	df000415 	stw	fp,16(sp)
   24c04:	df000404 	addi	fp,sp,16
   24c08:	e13ffe15 	stw	r4,-8(fp)
   24c0c:	e17fff15 	stw	r5,-4(fp)
    bool result = false;
   24c10:	e03ffc15 	stw	zero,-16(fp)
    
    if (alt_up_sd_card_is_Present())
   24c14:	002797c0 	call	2797c <alt_up_sd_card_is_Present>
   24c18:	10001e26 	beq	r2,zero,24c94 <Write_Sector_Data+0x9c>
    {
        short int reg_state = 0xff;
   24c1c:	00803fc4 	movi	r2,255
   24c20:	e0bffd0d 	sth	r2,-12(fp)

		/* Multiply sector offset by sector size to get the address. Sector size is 512. Also,
         * the SD card reads data in 512 byte chunks, so the address must be a multiple of 512. */
        IOWR_32DIRECT(command_argument_register, 0, (sector_index + partition_offset)*512);
   24c24:	d0a03417 	ldw	r2,-32560(gp)
   24c28:	e13ffe17 	ldw	r4,-8(fp)
   24c2c:	e0ffff17 	ldw	r3,-4(fp)
   24c30:	20c7883a 	add	r3,r4,r3
   24c34:	1806927a 	slli	r3,r3,9
   24c38:	10c00035 	stwio	r3,0(r2)
        IOWR_16DIRECT(command_register, 0, CMD_WRITE_BLOCK);
   24c3c:	d0a03317 	ldw	r2,-32564(gp)
   24c40:	00c00604 	movi	r3,24
   24c44:	10c0002d 	sthio	r3,0(r2)
        do {
            reg_state = (short int) IORD_16DIRECT(aux_status_register,0);
   24c48:	d0a03017 	ldw	r2,-32576(gp)
   24c4c:	1080002b 	ldhuio	r2,0(r2)
   24c50:	10bfffcc 	andi	r2,r2,65535
   24c54:	e0bffd0d 	sth	r2,-12(fp)
        } while ((reg_state & 0x04)!=0);
   24c58:	e0bffd0b 	ldhu	r2,-12(fp)
   24c5c:	10bfffcc 	andi	r2,r2,65535
   24c60:	1080010c 	andi	r2,r2,4
   24c64:	103ff81e 	bne	r2,zero,24c48 <__alt_data_end+0xf4024c48>
        // Make sure the request did not time out.
        if ((reg_state & 0x10) == 0)
   24c68:	e0bffd0b 	ldhu	r2,-12(fp)
   24c6c:	10bfffcc 	andi	r2,r2,65535
   24c70:	1080040c 	andi	r2,r2,16
   24c74:	1000071e 	bne	r2,zero,24c94 <Write_Sector_Data+0x9c>
        {
            result = true;
   24c78:	00800044 	movi	r2,1
   24c7c:	e0bffc15 	stw	r2,-16(fp)
            current_sector_modified = false;
   24c80:	d0203915 	stw	zero,-32540(gp)
            current_sector_index = sector_index+partition_offset;
   24c84:	e0fffe17 	ldw	r3,-8(fp)
   24c88:	e0bfff17 	ldw	r2,-4(fp)
   24c8c:	1885883a 	add	r2,r3,r2
   24c90:	d0a03a15 	stw	r2,-32536(gp)
        }
    }
    return result;
   24c94:	e0bffc17 	ldw	r2,-16(fp)
}
   24c98:	e037883a 	mov	sp,fp
   24c9c:	dfc00117 	ldw	ra,4(sp)
   24ca0:	df000017 	ldw	fp,0(sp)
   24ca4:	dec00204 	addi	sp,sp,8
   24ca8:	f800283a 	ret

00024cac <Save_Modified_Sector>:


bool Save_Modified_Sector()
// If the sector has been modified, then save it to the SD Card.
{
   24cac:	defffd04 	addi	sp,sp,-12
   24cb0:	dfc00215 	stw	ra,8(sp)
   24cb4:	df000115 	stw	fp,4(sp)
   24cb8:	df000104 	addi	fp,sp,4
    bool result = true;
   24cbc:	00800044 	movi	r2,1
   24cc0:	e0bfff15 	stw	r2,-4(fp)
    if (current_sector_modified)
   24cc4:	d0a03917 	ldw	r2,-32540(gp)
   24cc8:	10000526 	beq	r2,zero,24ce0 <Save_Modified_Sector+0x34>
    {
        result = Write_Sector_Data(current_sector_index, 0);
   24ccc:	d0a03a17 	ldw	r2,-32536(gp)
   24cd0:	1009883a 	mov	r4,r2
   24cd4:	000b883a 	mov	r5,zero
   24cd8:	0024bf80 	call	24bf8 <Write_Sector_Data>
   24cdc:	e0bfff15 	stw	r2,-4(fp)
    }
    return result;
   24ce0:	e0bfff17 	ldw	r2,-4(fp)
}
   24ce4:	e037883a 	mov	sp,fp
   24ce8:	dfc00117 	ldw	ra,4(sp)
   24cec:	df000017 	ldw	fp,0(sp)
   24cf0:	dec00204 	addi	sp,sp,8
   24cf4:	f800283a 	ret

00024cf8 <Read_Sector_Data>:


bool Read_Sector_Data(int sector_index, int partition_offset)
// This function reads a sector at the specified address on the SD Card.
{
   24cf8:	defffa04 	addi	sp,sp,-24
   24cfc:	dfc00515 	stw	ra,20(sp)
   24d00:	df000415 	stw	fp,16(sp)
   24d04:	df000404 	addi	fp,sp,16
   24d08:	e13ffe15 	stw	r4,-8(fp)
   24d0c:	e17fff15 	stw	r5,-4(fp)
	bool result = false;
   24d10:	e03ffc15 	stw	zero,-16(fp)
    
	if (alt_up_sd_card_is_Present())
   24d14:	002797c0 	call	2797c <alt_up_sd_card_is_Present>
   24d18:	10002726 	beq	r2,zero,24db8 <Read_Sector_Data+0xc0>
	{
		short int reg_state = 0xff;
   24d1c:	00803fc4 	movi	r2,255
   24d20:	e0bffd0d 	sth	r2,-12(fp)
        
        /* Write data to the SD card if the current buffer is out of date. */
        if (current_sector_modified)
   24d24:	d0a03917 	ldw	r2,-32540(gp)
   24d28:	10000726 	beq	r2,zero,24d48 <Read_Sector_Data+0x50>
        {
            if (Write_Sector_Data(current_sector_index, 0) == false)
   24d2c:	d0a03a17 	ldw	r2,-32536(gp)
   24d30:	1009883a 	mov	r4,r2
   24d34:	000b883a 	mov	r5,zero
   24d38:	0024bf80 	call	24bf8 <Write_Sector_Data>
   24d3c:	1000021e 	bne	r2,zero,24d48 <Read_Sector_Data+0x50>
            {
                return false;
   24d40:	0005883a 	mov	r2,zero
   24d44:	00001d06 	br	24dbc <Read_Sector_Data+0xc4>
            }
        }
		/* Multiply sector offset by sector size to get the address. Sector size is 512. Also,
		 * the SD card reads data in 512 byte chunks, so the address must be a multiple of 512. */
        IOWR_32DIRECT(command_argument_register, 0, (sector_index + partition_offset)*512);
   24d48:	d0a03417 	ldw	r2,-32560(gp)
   24d4c:	e13ffe17 	ldw	r4,-8(fp)
   24d50:	e0ffff17 	ldw	r3,-4(fp)
   24d54:	20c7883a 	add	r3,r4,r3
   24d58:	1806927a 	slli	r3,r3,9
   24d5c:	10c00035 	stwio	r3,0(r2)
        IOWR_16DIRECT(command_register, 0, CMD_READ_BLOCK);
   24d60:	d0a03317 	ldw	r2,-32564(gp)
   24d64:	00c00444 	movi	r3,17
   24d68:	10c0002d 	sthio	r3,0(r2)
		do {
			reg_state = (short int) IORD_16DIRECT(aux_status_register,0);
   24d6c:	d0a03017 	ldw	r2,-32576(gp)
   24d70:	1080002b 	ldhuio	r2,0(r2)
   24d74:	10bfffcc 	andi	r2,r2,65535
   24d78:	e0bffd0d 	sth	r2,-12(fp)
		} while ((reg_state & 0x04)!=0);
   24d7c:	e0bffd0b 	ldhu	r2,-12(fp)
   24d80:	10bfffcc 	andi	r2,r2,65535
   24d84:	1080010c 	andi	r2,r2,4
   24d88:	103ff81e 	bne	r2,zero,24d6c <__alt_data_end+0xf4024d6c>
		// Make sure the request did not time out.
		if ((reg_state & 0x10) == 0)
   24d8c:	e0bffd0b 	ldhu	r2,-12(fp)
   24d90:	10bfffcc 	andi	r2,r2,65535
   24d94:	1080040c 	andi	r2,r2,16
   24d98:	1000071e 	bne	r2,zero,24db8 <Read_Sector_Data+0xc0>
		{
			result = true;
   24d9c:	00800044 	movi	r2,1
   24da0:	e0bffc15 	stw	r2,-16(fp)
            current_sector_modified = false;
   24da4:	d0203915 	stw	zero,-32540(gp)
            current_sector_index = sector_index+partition_offset;
   24da8:	e0fffe17 	ldw	r3,-8(fp)
   24dac:	e0bfff17 	ldw	r2,-4(fp)
   24db0:	1885883a 	add	r2,r3,r2
   24db4:	d0a03a15 	stw	r2,-32536(gp)
		}
	}
	return result;
   24db8:	e0bffc17 	ldw	r2,-16(fp)
}
   24dbc:	e037883a 	mov	sp,fp
   24dc0:	dfc00117 	ldw	ra,4(sp)
   24dc4:	df000017 	ldw	fp,0(sp)
   24dc8:	dec00204 	addi	sp,sp,8
   24dcc:	f800283a 	ret

00024dd0 <get_cluster_flag>:


bool get_cluster_flag(unsigned int cluster_index, unsigned short int *flag)
// Read a cluster flag.
{
   24dd0:	defffb04 	addi	sp,sp,-20
   24dd4:	dfc00415 	stw	ra,16(sp)
   24dd8:	df000315 	stw	fp,12(sp)
   24ddc:	df000304 	addi	fp,sp,12
   24de0:	e13ffe15 	stw	r4,-8(fp)
   24de4:	e17fff15 	stw	r5,-4(fp)
    unsigned int sector_index = (cluster_index / 256) + fat_partition_offset_in_512_byte_sectors;
   24de8:	e0bffe17 	ldw	r2,-8(fp)
   24dec:	1004d23a 	srli	r2,r2,8
   24df0:	d0e03617 	ldw	r3,-32552(gp)
   24df4:	10c5883a 	add	r2,r2,r3
   24df8:	e0bffd15 	stw	r2,-12(fp)
    
    sector_index  = sector_index + boot_sector_data.first_fat_sector_offset;
   24dfc:	00820034 	movhi	r2,2048
   24e00:	1086c404 	addi	r2,r2,6928
   24e04:	10801117 	ldw	r2,68(r2)
   24e08:	e0fffd17 	ldw	r3,-12(fp)
   24e0c:	1885883a 	add	r2,r3,r2
   24e10:	e0bffd15 	stw	r2,-12(fp)
     
    if (sector_index != current_sector_index)
   24e14:	d0a03a17 	ldw	r2,-32536(gp)
   24e18:	e0fffd17 	ldw	r3,-12(fp)
   24e1c:	18800726 	beq	r3,r2,24e3c <get_cluster_flag+0x6c>
    {
        if (Read_Sector_Data(sector_index, 0) == false)
   24e20:	e0bffd17 	ldw	r2,-12(fp)
   24e24:	1009883a 	mov	r4,r2
   24e28:	000b883a 	mov	r5,zero
   24e2c:	0024cf80 	call	24cf8 <Read_Sector_Data>
   24e30:	1000021e 	bne	r2,zero,24e3c <get_cluster_flag+0x6c>
        {
            return false;
   24e34:	0005883a 	mov	r2,zero
   24e38:	00000d06 	br	24e70 <get_cluster_flag+0xa0>
        }
    }
    *flag = (unsigned short int) IORD_16DIRECT(device_pointer->base, 2*(cluster_index % 256));
   24e3c:	e0bffe17 	ldw	r2,-8(fp)
   24e40:	10803fcc 	andi	r2,r2,255
   24e44:	1085883a 	add	r2,r2,r2
   24e48:	1007883a 	mov	r3,r2
   24e4c:	d0a03817 	ldw	r2,-32544(gp)
   24e50:	10800a17 	ldw	r2,40(r2)
   24e54:	1885883a 	add	r2,r3,r2
   24e58:	1080002b 	ldhuio	r2,0(r2)
   24e5c:	10bfffcc 	andi	r2,r2,65535
   24e60:	1007883a 	mov	r3,r2
   24e64:	e0bfff17 	ldw	r2,-4(fp)
   24e68:	10c0000d 	sth	r3,0(r2)
    return true;
   24e6c:	00800044 	movi	r2,1
}
   24e70:	e037883a 	mov	sp,fp
   24e74:	dfc00117 	ldw	ra,4(sp)
   24e78:	df000017 	ldw	fp,0(sp)
   24e7c:	dec00204 	addi	sp,sp,8
   24e80:	f800283a 	ret

00024e84 <mark_cluster>:


bool mark_cluster(unsigned int cluster_index, short int flag, bool first_fat)
// Place a marker on the specified cluster in a given FAT.
{
   24e84:	defffa04 	addi	sp,sp,-24
   24e88:	dfc00515 	stw	ra,20(sp)
   24e8c:	df000415 	stw	fp,16(sp)
   24e90:	df000404 	addi	fp,sp,16
   24e94:	e13ffd15 	stw	r4,-12(fp)
   24e98:	2805883a 	mov	r2,r5
   24e9c:	e1bfff15 	stw	r6,-4(fp)
   24ea0:	e0bffe0d 	sth	r2,-8(fp)
    unsigned int sector_index = (cluster_index / 256) +  fat_partition_offset_in_512_byte_sectors;
   24ea4:	e0bffd17 	ldw	r2,-12(fp)
   24ea8:	1004d23a 	srli	r2,r2,8
   24eac:	d0e03617 	ldw	r3,-32552(gp)
   24eb0:	10c5883a 	add	r2,r2,r3
   24eb4:	e0bffc15 	stw	r2,-16(fp)
    
    if (first_fat)
   24eb8:	e0bfff17 	ldw	r2,-4(fp)
   24ebc:	10000726 	beq	r2,zero,24edc <mark_cluster+0x58>
    {
        sector_index  = sector_index + boot_sector_data.first_fat_sector_offset;
   24ec0:	00820034 	movhi	r2,2048
   24ec4:	1086c404 	addi	r2,r2,6928
   24ec8:	10801117 	ldw	r2,68(r2)
   24ecc:	e0fffc17 	ldw	r3,-16(fp)
   24ed0:	1885883a 	add	r2,r3,r2
   24ed4:	e0bffc15 	stw	r2,-16(fp)
   24ed8:	00000606 	br	24ef4 <mark_cluster+0x70>
    }
    else
    {
        sector_index  = sector_index + boot_sector_data.second_fat_sector_offset;
   24edc:	00820034 	movhi	r2,2048
   24ee0:	1086c404 	addi	r2,r2,6928
   24ee4:	10801217 	ldw	r2,72(r2)
   24ee8:	e0fffc17 	ldw	r3,-16(fp)
   24eec:	1885883a 	add	r2,r3,r2
   24ef0:	e0bffc15 	stw	r2,-16(fp)
    }
     
    if (sector_index != current_sector_index)
   24ef4:	d0a03a17 	ldw	r2,-32536(gp)
   24ef8:	e0fffc17 	ldw	r3,-16(fp)
   24efc:	18800726 	beq	r3,r2,24f1c <mark_cluster+0x98>
    {
        if (Read_Sector_Data(sector_index, 0) == false)
   24f00:	e0bffc17 	ldw	r2,-16(fp)
   24f04:	1009883a 	mov	r4,r2
   24f08:	000b883a 	mov	r5,zero
   24f0c:	0024cf80 	call	24cf8 <Read_Sector_Data>
   24f10:	1000021e 	bne	r2,zero,24f1c <mark_cluster+0x98>
        {
            return false;
   24f14:	0005883a 	mov	r2,zero
   24f18:	00000d06 	br	24f50 <mark_cluster+0xcc>
        }
    }
