
nios_program.elf:     file format elf32-littlenios2
nios_program.elf
architecture: nios2:r1, flags 0x00000112:
EXEC_P, HAS_SYMS, D_PAGED
start address 0x08000230

Program Header:
    LOAD off    0x00001000 vaddr 0x08000000 paddr 0x08000000 align 2**12
         filesz 0x00000020 memsz 0x00000020 flags r-x
    LOAD off    0x00001020 vaddr 0x08000020 paddr 0x08000020 align 2**12
         filesz 0x0001e5ac memsz 0x0001e5ac flags r-x
    LOAD off    0x0001f5cc vaddr 0x0801e5cc paddr 0x08020294 align 2**12
         filesz 0x00001cc8 memsz 0x00001cc8 flags rw-
    LOAD off    0x00021f5c vaddr 0x08021f5c paddr 0x08021f5c align 2**12
         filesz 0x00000000 memsz 0x00000b90 flags rw-

Sections:
Idx Name          Size      VMA       LMA       File off  Algn
  0 .entry        00000020  08000000  08000000  00001000  2**5
                  CONTENTS, ALLOC, LOAD, READONLY, CODE
  1 .exceptions   00000210  08000020  08000020  00001020  2**2
                  CONTENTS, ALLOC, LOAD, READONLY, CODE
  2 .text         0001d68c  08000230  08000230  00001230  2**2
                  CONTENTS, ALLOC, LOAD, READONLY, CODE
  3 .rodata       00000d10  0801d8bc  0801d8bc  0001e8bc  2**2
                  CONTENTS, ALLOC, LOAD, READONLY, DATA
  4 .rwdata       00001cc8  0801e5cc  08020294  0001f5cc  2**2
                  CONTENTS, ALLOC, LOAD, DATA, SMALL_DATA
  5 .bss          00000b90  08021f5c  08021f5c  00021f5c  2**2
                  ALLOC, SMALL_DATA
  6 .sdram_controller 00000000  08022aec  08022aec  00021294  2**0
                  CONTENTS
  7 .comment      00000023  00000000  00000000  00021294  2**0
                  CONTENTS, READONLY
  8 .debug_aranges 00001670  00000000  00000000  000212b8  2**3
                  CONTENTS, READONLY, DEBUGGING
  9 .debug_info   00041aaf  00000000  00000000  00022928  2**0
                  CONTENTS, READONLY, DEBUGGING
 10 .debug_abbrev 00010ad1  00000000  00000000  000643d7  2**0
                  CONTENTS, READONLY, DEBUGGING
 11 .debug_line   00014cb2  00000000  00000000  00074ea8  2**0
                  CONTENTS, READONLY, DEBUGGING
 12 .debug_frame  00004068  00000000  00000000  00089b5c  2**2
                  CONTENTS, READONLY, DEBUGGING
 13 .debug_str    00007aa2  00000000  00000000  0008dbc4  2**0
                  CONTENTS, READONLY, DEBUGGING
 14 .debug_loc    000281e1  00000000  00000000  00095666  2**0
                  CONTENTS, READONLY, DEBUGGING
 15 .debug_alt_sim_info 00000010  00000000  00000000  000bd848  2**2
                  CONTENTS, READONLY, DEBUGGING
 16 .debug_ranges 000021c8  00000000  00000000  000bd858  2**3
                  CONTENTS, READONLY, DEBUGGING
 17 .thread_model 00000003  00000000  00000000  000c5dda  2**0
                  CONTENTS, READONLY
 18 .cpu          0000000c  00000000  00000000  000c5ddd  2**0
                  CONTENTS, READONLY
 19 .qsys         00000001  00000000  00000000  000c5de9  2**0
                  CONTENTS, READONLY
 20 .simulation_enabled 00000001  00000000  00000000  000c5dea  2**0
                  CONTENTS, READONLY
 21 .sysid_hash   00000004  00000000  00000000  000c5deb  2**0
                  CONTENTS, READONLY
 22 .sysid_base   00000004  00000000  00000000  000c5def  2**0
                  CONTENTS, READONLY
 23 .sysid_time   00000004  00000000  00000000  000c5df3  2**0
                  CONTENTS, READONLY
 24 .stderr_dev   0000000b  00000000  00000000  000c5df7  2**0
                  CONTENTS, READONLY
 25 .stdin_dev    0000000b  00000000  00000000  000c5e02  2**0
                  CONTENTS, READONLY
 26 .stdout_dev   0000000b  00000000  00000000  000c5e0d  2**0
                  CONTENTS, READONLY
 27 .sopc_system_name 0000000f  00000000  00000000  000c5e18  2**0
                  CONTENTS, READONLY
 28 .quartus_project_dir 0000001d  00000000  00000000  000c5e27  2**0
                  CONTENTS, READONLY
 29 .jdi          00007b07  00000000  00000000  000c5e44  2**0
                  CONTENTS, READONLY
 30 .sopcinfo     002dcdb0  00000000  00000000  000cd94b  2**0
                  CONTENTS, READONLY
SYMBOL TABLE:
08000000 l    d  .entry	00000000 .entry
08000020 l    d  .exceptions	00000000 .exceptions
08000230 l    d  .text	00000000 .text
0801d8bc l    d  .rodata	00000000 .rodata
0801e5cc l    d  .rwdata	00000000 .rwdata
08021f5c l    d  .bss	00000000 .bss
08022aec l    d  .sdram_controller	00000000 .sdram_controller
00000000 l    d  .comment	00000000 .comment
00000000 l    d  .debug_aranges	00000000 .debug_aranges
00000000 l    d  .debug_info	00000000 .debug_info
00000000 l    d  .debug_abbrev	00000000 .debug_abbrev
00000000 l    d  .debug_line	00000000 .debug_line
00000000 l    d  .debug_frame	00000000 .debug_frame
00000000 l    d  .debug_str	00000000 .debug_str
00000000 l    d  .debug_loc	00000000 .debug_loc
00000000 l    d  .debug_alt_sim_info	00000000 .debug_alt_sim_info
00000000 l    d  .debug_ranges	00000000 .debug_ranges
00000000 l    df *ABS*	00000000 D:/tag2/de1_software/nios/system_application/nios_program_bsp//obj/HAL/src/crt0.o
08000268 l       .text	00000000 alt_after_alt_main
00000000 l    df *ABS*	00000000 alt_irq_handler.c
00000000 l    df *ABS*	00000000 alt_instruction_exception_entry.c
00000000 l    df *ABS*	00000000 BTUart.cpp
00000000 l    df *ABS*	00000000 WiFiUart.cpp
00000000 l    df *ABS*	00000000 dma.cpp
08000d18 l     F .text	00000024 alt_dma_txchan_close
08000d3c l     F .text	00000068 alt_dma_txchan_send
08000da4 l     F .text	00000058 alt_dma_txchan_ioctl
00000000 l    df *ABS*	00000000 main.cpp
00000000 l    df *ABS*	00000000 wifi_task.cpp
080015bc l     F .text	000000b0 _Z41__static_initialization_and_destruction_0ii
0800166c l     F .text	00000030 _GLOBAL__sub_I_WiFi_UART
0800169c l     F .text	00000030 _GLOBAL__sub_D_WiFi_UART
00000000 l    df *ABS*	00000000 eh_personality.cc
080016cc l     F .text	00000058 _ZL12read_sleb128PKhPl
08001724 l     F .text	00000088 _ZL16get_adjusted_ptrPKSt9type_infoS1_PPv
080017ac l     F .text	000000a0 _ZL21size_of_encoded_valueh
0800184c l     F .text	00000210 _ZL28read_encoded_value_with_basehjPKhPj
08001a5c l     F .text	00000054 _ZL15get_ttype_entryP16lsda_header_infom
08001ab0 l     F .text	000000a8 _ZL20check_exception_specP16lsda_header_infoPKSt9type_infoPvl
08001b58 l     F .text	00000088 _ZL21base_of_encoded_valuehP15_Unwind_Context
08001be0 l     F .text	00000240 _ZL28check_compact_exception_specPKSt9type_infoPvPKhij
08001e20 l     F .text	00000134 _ZL17parse_lsda_headerP15_Unwind_ContextPKhP16lsda_header_info
00000000 l    df *ABS*	00000000 eh_globals.cc
08021f6c l     O .bss	00000008 _ZL10eh_globals
00000000 l    df *ABS*	00000000 class_type_info.cc
00000000 l    df *ABS*	00000000 del_op.cc
00000000 l    df *ABS*	00000000 eh_terminate.cc
00000000 l    df *ABS*	00000000 si_class_type_info.cc
00000000 l    df *ABS*	00000000 eh_catch.cc
00000000 l    df *ABS*	00000000 eh_call.cc
00000000 l    df *ABS*	00000000 eh_term_handler.cc
00000000 l    df *ABS*	00000000 eh_throw.cc
08002f5c l     F .text	00000044 _ZL23__gxx_exception_cleanup19_Unwind_Reason_CodeP17_Unwind_Exception
00000000 l    df *ABS*	00000000 tinfo.cc
00000000 l    df *ABS*	00000000 eh_alloc.cc
08021f78 l     O .bss	00000004 _ZL14emergency_used
080220c4 l     O .bss	00000800 _ZL16emergency_buffer
08021f74 l     O .bss	00000004 _ZL15dependents_used
08021fc4 l     O .bss	00000100 _ZL17dependents_buffer
00000000 l    df *ABS*	00000000 eh_exception.cc
00000000 l    df *ABS*	00000000 eh_unex_handler.cc
00000000 l    df *ABS*	00000000 pure.cc
00000000 l    df *ABS*	00000000 lib2-mul.c
00000000 l    df *ABS*	00000000 unwind-sjlj.c
08003374 l     F .text	00000118 _Unwind_ForcedUnwind_Phase2
08021f7c l     O .bss	00000004 fc_static
0800348c l     F .text	000000c0 _Unwind_RaiseException_Phase2
0800354c l     F .text	00000030 uw_install_context.isra.1
00000000 l    df *ABS*	00000000 abort.c
00000000 l    df *ABS*	00000000 exit.c
00000000 l    df *ABS*	00000000 impure.c
0801e5cc l     O .rwdata	00000424 impure_data
00000000 l    df *ABS*	00000000 malloc.c
00000000 l    df *ABS*	00000000 mallocr.c
00000000 l    df *ABS*	00000000 memset.c
00000000 l    df *ABS*	00000000 printf.c
00000000 l    df *ABS*	00000000 putchar.c
00000000 l    df *ABS*	00000000 puts.c
00000000 l    df *ABS*	00000000 sbrkr.c
00000000 l    df *ABS*	00000000 scanf.c
00000000 l    df *ABS*	00000000 signal.c
00000000 l    df *ABS*	00000000 signalr.c
00000000 l    df *ABS*	00000000 sprintf.c
00000000 l    df *ABS*	00000000 strcat.c
00000000 l    df *ABS*	00000000 strcmp.c
00000000 l    df *ABS*	00000000 strcpy.c
00000000 l    df *ABS*	00000000 strlen.c
00000000 l    df *ABS*	00000000 strstr.c
08004a00 l     F .text	000000fc critical_factorization
08004afc l     F .text	00000374 two_way_long_needle
00000000 l    df *ABS*	00000000 vfprintf.c
0801df92 l     O .rodata	00000010 zeroes.4166
0801dfa2 l     O .rodata	00000010 blanks.4165
00000000 l    df *ABS*	00000000 vfprintf.c
0801dfb2 l     O .rodata	00000010 zeroes.4181
0801dfc2 l     O .rodata	00000010 blanks.4180
00000000 l    df *ABS*	00000000 vfscanf.c
0801dfda l     O .rodata	00000022 basefix.4098
00000000 l    df *ABS*	00000000 wsetup.c
00000000 l    df *ABS*	00000000 __call_atexit.c
00000000 l    df *ABS*	00000000 ctype_.c
0801e0fd l     O .rodata	00000180 _ctype_b
00000000 l    df *ABS*	00000000 dtoa.c
0800ae68 l     F .text	00000228 quorem
00000000 l    df *ABS*	00000000 fflush.c
00000000 l    df *ABS*	00000000 findfp.c
0800ca10 l     F .text	00000008 __fp_lock
0800ca18 l     F .text	00000008 __fp_unlock
0800ca2c l     F .text	000001a0 __sinit.part.1
00000000 l    df *ABS*	00000000 fread.c
00000000 l    df *ABS*	00000000 mallocr.c
00000000 l    df *ABS*	00000000 fvwrite.c
00000000 l    df *ABS*	00000000 fwalk.c
00000000 l    df *ABS*	00000000 int_errno.c
00000000 l    df *ABS*	00000000 iswspace.c
00000000 l    df *ABS*	00000000 locale.c
0801ee18 l     O .rwdata	00000020 lc_ctype_charset
0801edf8 l     O .rwdata	00000020 lc_message_charset
0801ee38 l     O .rwdata	00000038 lconv
00000000 l    df *ABS*	00000000 makebuf.c
00000000 l    df *ABS*	00000000 mbrtowc.c
00000000 l    df *ABS*	00000000 mbtowc_r.c
00000000 l    df *ABS*	00000000 memchr.c
00000000 l    df *ABS*	00000000 memcmp.c
00000000 l    df *ABS*	00000000 memcpy.c
00000000 l    df *ABS*	00000000 memmove.c
00000000 l    df *ABS*	00000000 mprec.c
0801e29c l     O .rodata	0000000c p05.2678
00000000 l    df *ABS*	00000000 putc.c
00000000 l    df *ABS*	00000000 mallocr.c
00000000 l    df *ABS*	00000000 refill.c
0800fac8 l     F .text	0000001c lflush
00000000 l    df *ABS*	00000000 s_fpclassify.c
00000000 l    df *ABS*	00000000 sccl.c
00000000 l    df *ABS*	00000000 sf_nan.c
00000000 l    df *ABS*	00000000 stdio.c
00000000 l    df *ABS*	00000000 strchr.c
00000000 l    df *ABS*	00000000 strtod.c
0801ee84 l     O .rwdata	00000014 fpi.2638
0801e3d0 l     O .rodata	00000028 tinytens
0801ee70 l     O .rwdata	00000014 fpinan.2674
00000000 l    df *ABS*	00000000 strtol.c
00000000 l    df *ABS*	00000000 strtoll_r.c
00000000 l    df *ABS*	00000000 strtoul.c
00000000 l    df *ABS*	00000000 strtoull_r.c
00000000 l    df *ABS*	00000000 vfprintf.c
0801e3f8 l     O .rodata	00000010 zeroes.4110
0801e408 l     O .rodata	00000010 blanks.4109
00000000 l    df *ABS*	00000000 ungetc.c
00000000 l    df *ABS*	00000000 vfprintf.c
08013964 l     F .text	000000fc __sprint_r.part.0
0801e428 l     O .rodata	00000010 blanks.4125
0801e418 l     O .rodata	00000010 zeroes.4126
00000000 l    df *ABS*	00000000 wbuf.c
00000000 l    df *ABS*	00000000 writer.c
00000000 l    df *ABS*	00000000 closer.c
00000000 l    df *ABS*	00000000 mallocr.c
00000000 l    df *ABS*	00000000 fclose.c
00000000 l    df *ABS*	00000000 fputwc.c
00000000 l    df *ABS*	00000000 fstatr.c
00000000 l    df *ABS*	00000000 gdtoa-gethex.c
08015500 l     F .text	00000100 rshift
00000000 l    df *ABS*	00000000 gdtoa-hexnan.c
00000000 l    df *ABS*	00000000 isattyr.c
00000000 l    df *ABS*	00000000 lseekr.c
00000000 l    df *ABS*	00000000 readr.c
00000000 l    df *ABS*	00000000 strncmp.c
00000000 l    df *ABS*	00000000 wcrtomb.c
00000000 l    df *ABS*	00000000 wctomb_r.c
00000000 l    df *ABS*	00000000 libgcc2.c
00000000 l    df *ABS*	00000000 libgcc2.c
00000000 l    df *ABS*	00000000 libgcc2.c
00000000 l    df *ABS*	00000000 libgcc2.c
00000000 l    df *ABS*	00000000 lib2-divmod.c
08017318 l     F .text	0000006c udivmodsi4
00000000 l    df *ABS*	00000000 eqsf2.c
00000000 l    df *ABS*	00000000 gesf2.c
00000000 l    df *ABS*	00000000 lesf2.c
00000000 l    df *ABS*	00000000 adddf3.c
00000000 l    df *ABS*	00000000 divdf3.c
00000000 l    df *ABS*	00000000 eqdf2.c
00000000 l    df *ABS*	00000000 gedf2.c
00000000 l    df *ABS*	00000000 ledf2.c
00000000 l    df *ABS*	00000000 muldf3.c
00000000 l    df *ABS*	00000000 subdf3.c
00000000 l    df *ABS*	00000000 fixdfsi.c
00000000 l    df *ABS*	00000000 floatsidf.c
00000000 l    df *ABS*	00000000 floatunsidf.c
00000000 l    df *ABS*	00000000 truncdfsf2.c
00000000 l    df *ABS*	00000000 libgcc2.c
00000000 l    df *ABS*	00000000 libgcc2.c
00000000 l    df *ABS*	00000000 alt_close.c
08019fbc l     F .text	00000050 alt_get_errno
00000000 l    df *ABS*	00000000 alt_dev.c
0801a0e4 l     F .text	0000002c alt_dev_null_write
00000000 l    df *ABS*	00000000 alt_dma_txchan_open.c
0801a110 l     F .text	00000050 alt_get_errno
00000000 l    df *ABS*	00000000 alt_errno.c
00000000 l    df *ABS*	00000000 alt_exit.c
00000000 l    df *ABS*	00000000 alt_find_dev.c
00000000 l    df *ABS*	00000000 alt_fstat.c
0801a278 l     F .text	00000050 alt_get_errno
00000000 l    df *ABS*	00000000 alt_getpid.c
00000000 l    df *ABS*	00000000 alt_isatty.c
0801a3a0 l     F .text	00000050 alt_get_errno
00000000 l    df *ABS*	00000000 alt_kill.c
0801a49c l     F .text	00000050 alt_get_errno
00000000 l    df *ABS*	00000000 alt_load.c
0801a61c l     F .text	00000064 alt_load_section
00000000 l    df *ABS*	00000000 alt_lseek.c
0801a700 l     F .text	00000050 alt_get_errno
00000000 l    df *ABS*	00000000 alt_main.c
00000000 l    df *ABS*	00000000 alt_malloc_lock.c
00000000 l    df *ABS*	00000000 alt_printf.c
00000000 l    df *ABS*	00000000 alt_putchar.c
00000000 l    df *ABS*	00000000 alt_read.c
0801ab50 l     F .text	00000050 alt_get_errno
00000000 l    df *ABS*	00000000 alt_release_fd.c
00000000 l    df *ABS*	00000000 alt_sbrk.c
0802027c l     O .rwdata	00000004 heap_end
00000000 l    df *ABS*	00000000 alt_write.c
0801add4 l     F .text	00000050 alt_get_errno
00000000 l    df *ABS*	00000000 alt_sys_init.c
0801af24 l     F .text	00000038 alt_dev_reg
0801f040 l     O .rwdata	000000a4 dma_fpga_to_hps_priv
0801f0e4 l     O .rwdata	0000001c dma_fpga_to_hps_tx
0801f100 l     O .rwdata	0000001c dma_fpga_to_hps_rx
0801f11c l     O .rwdata	00001060 jtag_uart_0
0802017c l     O .rwdata	0000002c bt_rs232_uart
080201a8 l     O .rwdata	0000002c wifi_rs232_uart
00000000 l    df *ABS*	00000000 altera_avalon_dma.c
0801b014 l     F .text	00000038 alt_dma_txchan_reg
0801b04c l     F .text	00000038 alt_dma_rxchan_reg
0801b178 l     F .text	00000098 alt_avalon_dma_launch_txonly
0801b210 l     F .text	00000098 alt_avalon_dma_launch_rxonly
0801b2a8 l     F .text	00000344 alt_avalon_dma_ioctl
0801b960 l     F .text	000001c0 alt_avalon_dma_irq
00000000 l    df *ABS*	00000000 altera_avalon_jtag_uart_fd.c
00000000 l    df *ABS*	00000000 altera_avalon_jtag_uart_init.c
0801bde4 l     F .text	00000208 altera_avalon_jtag_uart_irq
0801bfec l     F .text	000000a8 altera_avalon_jtag_uart_timeout
00000000 l    df *ABS*	00000000 altera_avalon_jtag_uart_ioctl.c
00000000 l    df *ABS*	00000000 altera_avalon_jtag_uart_read.c
00000000 l    df *ABS*	00000000 altera_avalon_jtag_uart_write.c
00000000 l    df *ABS*	00000000 altera_up_avalon_rs232.c
00000000 l    df *ABS*	00000000 alt_alarm_start.c
00000000 l    df *ABS*	00000000 alt_dcache_flush_all.c
00000000 l    df *ABS*	00000000 alt_dev_llist_insert.c
0801caf4 l     F .text	00000050 alt_get_errno
00000000 l    df *ABS*	00000000 alt_dma_rxchan_open.c
0801cbe8 l     F .text	00000050 alt_get_errno
00000000 l    df *ABS*	00000000 alt_do_ctors.c
00000000 l    df *ABS*	00000000 alt_do_dtors.c
00000000 l    df *ABS*	00000000 alt_icache_flush_all.c
00000000 l    df *ABS*	00000000 alt_io_redirect.c
0801cd60 l     F .text	000000e0 alt_open_fd
00000000 l    df *ABS*	00000000 alt_irq_register.c
00000000 l    df *ABS*	00000000 alt_irq_vars.c
00000000 l    df *ABS*	00000000 alt_open.c
0801d068 l     F .text	00000050 alt_get_errno
0801d0b8 l     F .text	000000f4 alt_file_locked
00000000 l    df *ABS*	00000000 alt_tick.c
00000000 l    df *ABS*	00000000 altera_nios2_gen2_irq.c
00000000 l    df *ABS*	00000000 alt_find_file.c
00000000 l    df *ABS*	00000000 alt_get_fd.c
00000000 l    df *ABS*	00000000 atexit.c
00000000 l    df *ABS*	00000000 __atexit.c
08021fb4 g     O .bss	00000004 alt_instruction_exception_handler
080031bc g     F .text	00000044 __cxa_free_exception
08004248 g     F .text	00000018 putchar
080030c0 g     F .text	00000008 _ZNKSt9type_info15__is_function_pEv
0800f248 g     F .text	00000074 _mprec_log10
08002a54 g     F .text	00000018 _ZSt10unexpectedv
0800f334 g     F .text	0000008c __any_on
08016170 g     F .text	00000054 _isatty_r
0801e2a8 g     O .rodata	00000028 __mprec_tinytens
0801a82c g     F .text	00000078 alt_main
080048d8 g     F .text	00000090 strcpy
08004260 g     F .text	000000b8 _puts_r
080229ec g     O .bss	00000100 alt_irq
080032fc g     F .text	00000004 _ZN10__cxxabiv115__forced_unwindD1Ev
080161c4 g     F .text	0000005c _lseek_r
08000654 g     F .text	00000048 _ZN8WiFiUartD1Ev
08003608 g     F .text	00000020 .hidden _Unwind_GetIPInfo
08020294 g       *ABS*	00000000 __flash_rwdata_start
08018844 g     F .text	00000084 .hidden __eqdf2
08003030 g     F .text	00000084 __cxa_rethrow
08003594 g     F .text	00000014 .hidden _Unwind_SjLj_Unregister
08002a90 g     F .text	00000014 _ZSt14set_unexpectedPFvvE
080035f8 g     F .text	00000010 .hidden _Unwind_GetIP
08022aec g       *ABS*	00000000 __alt_heap_start
0800468c g     F .text	00000058 _kill_r
08004204 g     F .text	0000003c printf
0801633c g     F .text	0000009c _wcrtomb_r
08001228 g     F .text	00000394 _Z13patch_dnn_resPc
08004450 g     F .text	00000084 _signal_r
0801d8d4  w    O .rodata	00000010 _ZTV6BTUart
0800fea0 g     F .text	0000005c __sseek
0800cd74 g     F .text	00000010 __sinit
0801bb20 g     F .text	000000a8 alt_avalon_dma_init
08014ec0 g     F .text	00000154 __swbuf_r
08003294 g     F .text	00000040 __cxa_free_dependent_exception
08002ab4 g     F .text	00000010 _ZN10__cxxabiv120__si_class_type_infoD2Ev
0800daac g     F .text	0000007c _setlocale_r
0801dd94  w    O .rodata	00000025 _ZTSN10__cxxabiv120__si_class_type_infoE
080011e8 g     F .text	00000040 _Z3strPVi
0800cbcc g     F .text	00000078 __sfmoreglue
08013948 g     F .text	0000001c ungetc
0801a8c4 g     F .text	00000020 __malloc_unlock
0801c834 g     F .text	00000090 alt_up_rs232_read_fd
080032fc g     F .text	00000004 _ZN10__cxxabiv115__forced_unwindD2Ev
08010068 g     F .text	00001608 _strtod_r
08002ee4 g     F .text	00000020 _ZSt18uncaught_exceptionv
0800084c g     F .text	000001a4 _ZN8WiFiUart12send_commandEPKc
0800332c g     F .text	00000020 __cxa_deleted_virtual
0800e21c g     F .text	0000015c memmove
080005d8 g     F .text	0000004c _ZN6BTUart5flushEv
080032d4 g     F .text	00000004 _ZNSt9exceptionD2Ev
0800cd5c g     F .text	00000018 _cleanup
08020210 g     O .rwdata	00000004 req
0800e378 g     F .text	000000a8 _Balloc
0800073c g     F .text	00000110 _ZN8WiFiUart7connectEv
080188c8 g     F .text	000000e0 .hidden __gtdf2
0801ded0  w    O .rodata	00000014 _ZTVSt13bad_exception
0801d4a8 g     F .text	00000020 altera_nios2_gen2_irq_init
00000000  w      *UND*	00000000 __errno
08021f60 g     O .bss	00000004 tagid_str
08000000 g     F .entry	0000000c __reset
08003644 g     F .text	00000008 .hidden _Unwind_GetRegionStart
08000020 g       *ABS*	00000000 __flash_exceptions_start
080154a8 g     F .text	00000058 _fstat_r
08021f8c g     O .bss	00000004 errno
0800ab34 g     F .text	00000024 __svfscanf
0800fe1c g     F .text	00000008 __seofread
08000000 g       *ABS*	00000000 __alt_mem_sdram_controller
0801251c g     F .text	000011d0 ___svfiprintf_internal_r
08003820 g     F .text	00000074 .hidden _Unwind_Backtrace
08021fa0 g     O .bss	00000004 alt_argv
080281d4 g       *ABS*	00000000 _gp
0801a380 g     F .text	00000020 getpid
08021fb8 g     O .bss	0000000c WiFi_UART
0801da48  w    O .rodata	0000000a _ZTS8WiFiUart
08002454 g     F .text	00000234 __cxa_call_unexpected
08002d78 g     F .text	00000008 __cxa_get_exception_ptr
0801a160 g     F .text	00000054 alt_dma_txchan_open
0801eec0 g     O .rwdata	00000180 alt_fd_list
080201dc  w    O .rwdata	00000008 _ZTS6BTUart
08004240 g     F .text	00000008 _putchar_r
08003734 g     F .text	00000044 .hidden _Unwind_SjLj_ForcedUnwind
080035c4 g     F .text	00000018 .hidden _Unwind_GetCFA
08002a6c g     F .text	00000014 _ZSt13set_terminatePFvvE
0801a1e8 g     F .text	00000090 alt_find_dev
0800e0e4 g     F .text	00000138 memcpy
08015edc g     F .text	00000294 __hexnan
08003200 g     F .text	00000094 __cxa_allocate_dependent_exception
0800ca20 g     F .text	0000000c _cleanup_r
08002718 g     F .text	00000018 _ZNK10__cxxabiv117__class_type_info20__do_find_public_srcEiPKvPKS0_S2_
08019c4c g     F .text	000000d0 .hidden __floatsidf
0801ce40 g     F .text	00000078 alt_io_redirect
080189a8 g     F .text	000000e0 .hidden __ltdf2
0801d8bc g       *ABS*	00000000 __DTOR_END__
08002730 g     F .text	00000010 _ZN10__cxxabiv117__class_type_infoD1Ev
0801c7c0 g     F .text	00000074 alt_up_rs232_read_data
08004318 g     F .text	00000014 puts
0801d6b0 g     F .text	0000009c alt_exception_cause_generated_bad_addr
0800ddf0 g     F .text	000000f0 mbrtowc
08000ccc g     F .text	0000004c _ZN8WiFiUart5flushEv
0800fc8c g     F .text	00000074 __fpclassifyd
0800ab58 g     F .text	0000004c _vfscanf_r
080201f0 g     O .rwdata	00000004 tag_id
0800f1a4 g     F .text	000000a4 __ratio
08014e9c g     F .text	00000024 __vfiprintf_internal
0801c1e8 g     F .text	0000020c altera_avalon_jtag_uart_read
080038e4 g     F .text	00000014 malloc
080041d8 g     F .text	0000002c _printf_r
08017434 g     F .text	00000008 .hidden __udivsi3
0801a3f0 g     F .text	000000ac isatty
080044d4 g     F .text	000000bc _raise_r
0800da7c g     F .text	00000030 iswspace
0801e2f8 g     O .rodata	000000c8 __mprec_tens
0800db28 g     F .text	0000000c __locale_charset
08017570 g     F .text	000000b8 .hidden __lesf2
08016648 g     F .text	00000074 .hidden __fixunsdfsi
08000624 g     F .text	00000030 _ZN8WiFiUartC2Ev
08021f88 g     O .bss	00000004 __malloc_top_pad
080201f4 g     O .rwdata	00000004 input
080046e4 g     F .text	00000004 _getpid_r
08000624 g     F .text	00000030 _ZN8WiFiUartC1Ev
08011fdc g     F .text	00000024 strtoul
08020250 g     O .rwdata	00000004 __mb_cur_max
0800db58 g     F .text	0000000c _localeconv_r
0800069c g     F .text	00000038 _ZN8WiFiUartD0Ev
08012000 g     F .text	00000354 _strtoull_r
0800e7a0 g     F .text	0000003c __i2b
0800d468 g     F .text	000004a4 __sfvwrite_r
080027e0 g     F .text	000000b8 _ZNK10__cxxabiv117__class_type_info10__do_catchEPKSt9type_infoPPvj
08004590 g     F .text	000000a8 __sigtramp_r
0800432c g     F .text	00000054 _sbrk_r
0801de04  w    O .rodata	00000020 _ZTVSt9type_info
08016220 g     F .text	0000005c _read_r
080032dc g     F .text	0000000c _ZNKSt9exception4whatEv
0802026c g     O .rwdata	00000004 alt_max_fd
0801c73c g     F .text	00000044 alt_up_rs232_check_parity
080151b8 g     F .text	00000100 _fclose_r
0800c9e0 g     F .text	00000030 fflush
08021f84 g     O .bss	00000004 __malloc_max_sbrked_mem
0801ceb8 g     F .text	000001b0 alt_irq_register
08017628 g     F .text	0000089c .hidden __adddf3
08017444 g     F .text	00000074 .hidden __nesf2
0801b084 g     F .text	000000f4 alt_avalon_dma_launch_bidir
0801ddc8  w    O .rodata	0000002c _ZTVN10__cxxabiv120__si_class_type_infoE
08000654 g     F .text	00000048 _ZN8WiFiUartD2Ev
0800ef4c g     F .text	0000011c __b2d
080201e4  w    O .rwdata	00000008 _ZTI8WiFiUart
0801cc38 g     F .text	00000054 alt_dma_rxchan_open
08016cfc g     F .text	0000061c .hidden __umoddi3
0801a750 g     F .text	000000dc lseek
08002774 g     F .text	0000006c _ZNK10__cxxabiv117__class_type_info11__do_upcastEPKS0_PKvRNS0_15__upcast_resultE
08002968 g     F .text	00000004 _ZdlPv
0800029c g     F .text	00000048 _ZN6BTUartD1Ev
0801da38  w    O .rodata	00000010 _ZTV8WiFiUart
0802023c g     O .rwdata	00000004 _global_impure_ptr
0800f528 g     F .text	000005a0 _realloc_r
08022aec g       *ABS*	00000000 __bss_end
0801d3a4 g     F .text	00000104 alt_tick
0800357c g     F .text	00000018 .hidden _Unwind_SjLj_Register
080228ec g     O .bss	00000100 __hexdig
080166bc g     F .text	00000640 .hidden __udivdi3
080152cc g     F .text	00000184 _fputwc_r
0801e2d0 g     O .rodata	00000028 __mprec_bigtens
0800e584 g     F .text	00000104 __s2b
08003894 g     F .text	00000018 abort
08019d1c g     F .text	000000a4 .hidden __floatunsidf
0800ecf4 g     F .text	00000060 __mcmp
08021f64 g     O .bss	00000004 rid_str
08002e34 g     F .text	000000b0 __cxa_end_catch
0800cd94 g     F .text	00000018 __fp_lock_all
080032d8 g     F .text	00000004 _ZNSt13bad_exceptionD2Ev
0801d30c g     F .text	00000098 alt_alarm_stop
08000c24 g     F .text	00000060 _ZN8WiFiUart6read_sEv
080119f8 g     F .text	00000024 strtol
08021fa8 g     O .bss	00000004 alt_irq_active
080201f8 g     O .rwdata	00000004 id
08002a2c g     F .text	00000018 _ZSt9terminatev
08001134 g     F .text	000000b4 _Z9wifi_taskv
080000fc g     F .exceptions	000000d4 alt_irq_handler
0801ee98 g     O .rwdata	00000028 alt_dev_null
08000e24 g     F .text	000000d8 _Z9start_dmav
08003304 g     F .text	00000004 _ZN10__cxxabiv119__foreign_exceptionD2Ev
0800026c g     F .text	00000030 _ZN6BTUartC2Ev
0800026c g     F .text	00000030 _ZN6BTUartC1Ev
0801dd38  w    O .rodata	00000022 _ZTSN10__cxxabiv117__class_type_infoE
0801cad8 g     F .text	0000001c alt_dcache_flush_all
0800e688 g     F .text	00000068 __hi0bits
08020220  w    O .rwdata	00000008 _ZTISt9exception
08019bc4 g     F .text	00000088 .hidden __fixdfsi
08011670 g     F .text	0000001c strtod
08020294 g       *ABS*	00000000 __ram_rwdata_end
080030b4 g     F .text	00000004 _ZNSt9type_infoD1Ev
08020264 g     O .rwdata	00000008 alt_dev_list
08003304 g     F .text	00000004 _ZN10__cxxabiv119__foreign_exceptionD1Ev
0801b7b4 g     F .text	00000074 alt_avalon_dma_space
0801ae24 g     F .text	00000100 write
0800f3c0 g     F .text	000000a0 _putc_r
080030d0 g     F .text	00000004 _ZNSt9type_infoD0Ev
080174b8 g     F .text	000000b8 .hidden __gtsf2
0801e5cc g       *ABS*	00000000 __ram_rodata_end
0801a2c8 g     F .text	000000b8 fstat
0801c8c4 g     F .text	00000094 alt_up_rs232_write_fd
0801a4ec g     F .text	00000130 kill
080189a8 g     F .text	000000e0 .hidden __ledf2
080047ac g     F .text	00000088 strcat
0800ea6c g     F .text	00000140 __pow5mult
08013a78 g     F .text	00001424 ___vfiprintf_internal_r
08021f98 g     O .bss	00000004 __nlocale_changed
0801743c g     F .text	00000008 .hidden __umodsi3
080030c8 g     F .text	00000008 _ZNKSt9type_info11__do_upcastEPKN10__cxxabiv117__class_type_infoEPPv
080043bc g     F .text	0000002c _scanf_r
08002a80 g     F .text	00000010 _ZSt13get_terminatev
08022aec g       *ABS*	00000000 end
08003808 g     F .text	00000018 .hidden _Unwind_DeleteException
0801bd2c g     F .text	000000b8 altera_avalon_jtag_uart_init
080001d0 g     F .exceptions	00000060 alt_instruction_exception_entry
08002898 g     F .text	000000d0 _ZNK10__cxxabiv117__class_type_info12__do_dyncastEiNS0_10__sub_kindEPKS0_PKvS3_S5_RNS0_16__dyncast_resultE
0801d8b4 g       *ABS*	00000000 __CTOR_LIST__
0c000000 g       *ABS*	00000000 __alt_stack_pointer
08019f58 g     F .text	00000064 .hidden __clzsi2
080026a0 g     F .text	00000078 _ZNK10__cxxabiv117__class_type_info11__do_upcastEPKS0_PPv
0801c3f4 g     F .text	00000218 altera_avalon_jtag_uart_write
0800cd84 g     F .text	00000004 __sfp_lock_acquire
0801de58  w    O .rodata	00000012 _ZTSSt13bad_exception
0800df80 g     F .text	000000e8 memchr
08007258 g     F .text	000020fc ___vfprintf_internal_r
080046e8 g     F .text	00000058 _sprintf_r
0800d178 g     F .text	000002f0 _free_r
0801a8e4 g     F .text	00000228 alt_printf
0800db34 g     F .text	00000010 __locale_mb_cur_max
0801b828 g     F .text	00000138 alt_avalon_dma_send
0800acd4 g     F .text	00000194 __call_exitprocs
08020270 g     O .rwdata	00000008 alt_dma_txchan_list
08021f94 g     O .bss	00000004 __mlocale_changed
0800029c g     F .text	00000048 _ZN6BTUartD2Ev
080201ec g     O .rwdata	00000004 dnn_acc
08020244 g     O .rwdata	00000004 __malloc_sbrk_base
08000230 g     F .text	0000003c _start
08021fac g     O .bss	00000004 _alt_tick_rate
08004e70 g     F .text	00000378 strstr
08011a1c g     F .text	00000314 _strtoll_r
0801ddf4  w    O .rodata	0000000d _ZTSSt9type_info
0800330c g     F .text	00000020 __cxa_pure_virtual
0800ebac g     F .text	00000148 __lshift
08021fb0 g     O .bss	00000004 _alt_nticks
0800464c g     F .text	0000001c signal
0801aba0 g     F .text	00000104 read
0801af90 g     F .text	00000084 alt_sys_init
08012354 g     F .text	000001c8 __ssprint_r
0801d760 g     F .text	00000114 __register_exitproc
0801627c g     F .text	000000c0 strncmp
08002af8 g     F .text	00000160 _ZNK10__cxxabiv120__si_class_type_info12__do_dyncastEiNS_17__class_type_info10__sub_kindEPKS1_PKvS4_S6_RNS1_16__dyncast_resultE
0801c700 g     F .text	0000003c alt_up_rs232_get_available_space_in_write_FIFO
0800e7dc g     F .text	00000290 __multiply
0801c094 g     F .text	00000068 altera_avalon_jtag_uart_close
0800334c g     F .text	00000028 .hidden __mulsi3
0801e5cc g       *ABS*	00000000 __ram_rwdata_start
08003664 g     F .text	000000d0 .hidden _Unwind_SjLj_RaiseException
0801d8bc g       *ABS*	00000000 __ram_rodata_start
080228c4 g     O .bss	00000028 __malloc_current_mallinfo
08003778 g     F .text	00000044 .hidden _Unwind_SjLj_Resume
08017444 g     F .text	00000074 .hidden __eqsf2
0800f068 g     F .text	0000013c __d2b
0801def8  w    O .rodata	00000014 _ZTVN10__cxxabiv119__foreign_exceptionE
080030b4 g     F .text	00000004 _ZNSt9type_infoD2Ev
08003308 g     F .text	00000004 _ZN10__cxxabiv119__foreign_exceptionD0Ev
08002cf4 g     F .text	00000084 _ZNK10__cxxabiv120__si_class_type_info11__do_upcastEPKNS_17__class_type_infoEPKvRNS1_15__upcast_resultE
0801bbc8 g     F .text	00000060 altera_avalon_jtag_uart_read_fd
08011d30 g     F .text	000002ac _strtoul_r
0801d5dc g     F .text	000000d4 alt_get_fd
08000b6c g     F .text	000000b8 _ZN8WiFiUart7write_sEh
08020230  w    O .rwdata	00000008 _ZTIN10__cxxabiv119__foreign_exceptionE
0801508c g     F .text	00000054 _close_r
0800e068 g     F .text	0000007c memcmp
0801bc88 g     F .text	00000050 altera_avalon_jtag_uart_close_fd
08022aec g       *ABS*	00000000 __alt_stack_base
0801bcd8 g     F .text	00000054 altera_avalon_jtag_uart_ioctl_fd
08002ab4 g     F .text	00000010 _ZN10__cxxabiv120__si_class_type_infoD1Ev
0800aba4 g     F .text	00000130 __swsetup_r
080037bc g     F .text	0000004c .hidden _Unwind_SjLj_Resume_or_Rethrow
08017ec4 g     F .text	00000980 .hidden __divdf3
0800cc44 g     F .text	00000118 __sfp
0800f2bc g     F .text	00000078 __copybits
080030b8 g     F .text	00000008 _ZNKSt9type_info14__is_pointer_pEv
0801e9f0 g     O .rwdata	00000408 __malloc_av_
0800cd90 g     F .text	00000004 __sinit_lock_release
08018a88 g     F .text	0000086c .hidden __muldf3
0800fdc8 g     F .text	00000054 __sread
0800d014 g     F .text	00000040 fread
0801debc  w    O .rodata	00000014 _ZTVSt9exception
08003300 g     F .text	00000004 _ZN10__cxxabiv115__forced_unwindD0Ev
0801c664 g     F .text	0000005c alt_up_rs232_disable_read_interrupt
0801d4c8 g     F .text	00000114 alt_find_file
0801cb44 g     F .text	000000a4 alt_dev_llist_insert
0801a8a4 g     F .text	00000020 __malloc_lock
0801ad24 g     F .text	000000b0 sbrk
080051e8 g     F .text	00002070 ___svfprintf_internal_r
0801dd68  w    O .rodata	0000002c _ZTVN10__cxxabiv117__class_type_infoE
08002fa0 g     F .text	00000090 __cxa_throw
0800c7b8 g     F .text	00000228 _fflush_r
08003628 g     F .text	00000010 .hidden _Unwind_SetIP
080150e0 g     F .text	000000d8 _calloc_r
080009f0 g     F .text	0000010c _ZN8WiFiUart9send_dataEPKci
08021f5c g       *ABS*	00000000 __bss_start
080003e8 g     F .text	000000b8 _ZN6BTUart7write_sEh
080040b4 g     F .text	00000124 memset
08000efc g     F .text	00000238 main
0801b634 g     F .text	00000048 alt_avalon_dma_rx_ioctl
08020204 g     O .rwdata	00000004 rid
08021fa4 g     O .bss	00000004 alt_envp
08021f80 g     O .bss	00000004 __malloc_max_total_mem
0801bc28 g     F .text	00000060 altera_avalon_jtag_uart_write_fd
08015014 g     F .text	0000001c __swbuf
08002688 g     F .text	0000000c __cxa_get_globals_fast
08017570 g     F .text	000000b8 .hidden __ltsf2
0800cdc4 g     F .text	00000250 _fread_r
0800fefc g     F .text	00000008 __sclose
0c000000 g       *ABS*	00000000 __alt_heap_limit
08020200 g     O .rwdata	00000004 tagid
080152b8 g     F .text	00000014 fclose
08011790 g     F .text	00000268 _strtol_r
08019dc0 g     F .text	00000198 .hidden __truncdfsf2
08000384 g     F .text	00000064 _ZN6BTUart6read_sEv
0800b090 g     F .text	00001728 _dtoa_r
0800390c g     F .text	000007a8 _malloc_r
080164b0 g     F .text	00000030 __ascii_wctomb
080002e4 g     F .text	00000038 _ZN6BTUartD0Ev
080032e8 g     F .text	0000000c _ZNKSt13bad_exception4whatEv
08020278 g     O .rwdata	00000004 alt_errno
080136ec g     F .text	000000d4 __submore
08004668 g     F .text	00000010 _init_signal
0801dd5c  w    O .rodata	0000000c _ZTIN10__cxxabiv117__class_type_infoE
0800d90c g     F .text	000000b8 _fwalk
0800051c g     F .text	00000074 _ZN6BTUart7write_mEPci
0800df24 g     F .text	0000005c _mbtowc_r
080032d8 g     F .text	00000004 _ZNSt13bad_exceptionD1Ev
0800f460 g     F .text	000000c8 putc
08017384 g     F .text	00000054 .hidden __divsi3
0800d054 g     F .text	00000124 _malloc_trim_r
0801d8b8 g       *ABS*	00000000 __CTOR_END__
0802020c g     O .rwdata	00000004 server_endpoint
08004834 g     F .text	000000a4 strcmp
0801d8bc g       *ABS*	00000000 __flash_rodata_start
0801dee4  w    O .rodata	00000014 _ZTVN10__cxxabiv115__forced_unwindE
0801d8b8 g       *ABS*	00000000 __DTOR_LIST__
0801c958 g     F .text	00000040 alt_up_rs232_open_dev
08018844 g     F .text	00000084 .hidden __nedf2
0801af5c g     F .text	00000034 alt_irq_init
0801aca4 g     F .text	00000080 alt_release_fd
08002ac4 g     F .text	00000034 _ZN10__cxxabiv120__si_class_type_infoD0Ev
08004740 g     F .text	0000006c sprintf
0801e454 g     O .rodata	00000100 .hidden __clz_tab
08021f90 g     O .bss	00000004 _PathLocale
0801168c g     F .text	00000104 strtof
0801d74c g     F .text	00000014 atexit
080174b8 g     F .text	000000b8 .hidden __gesf2
08020208 g     O .rwdata	00000004 result
08015030 g     F .text	0000005c _write_r
0800db64 g     F .text	0000001c setlocale
08004380 g     F .text	0000003c scanf
0800365c g     F .text	00000008 .hidden _Unwind_GetTextRelBase
08002f04 g     F .text	00000058 __cxa_call_terminate
0800fdc0 g     F .text	00000008 nanf
08020240 g     O .rwdata	00000004 _impure_ptr
08020228  w    O .rwdata	00000008 _ZTIN10__cxxabiv115__forced_unwindE
08021f9c g     O .bss	00000004 alt_argc
0800dd44 g     F .text	000000ac _mbrtowc_r
0801cce8 g     F .text	0000005c _do_dtors
0800db50 g     F .text	00000008 __locale_cjk_lang
08000dfc g     F .text	00000028 _Z8dma_donePv
0800fae4 g     F .text	000001a8 __srefill_r
080201d4  w    O .rwdata	00000008 _ZTI6BTUart
08000c84 g     F .text	00000048 _ZN8WiFiUart10read_readyEv
08002aa4 g     F .text	00000010 _ZSt14get_unexpectedv
08000020 g       .exceptions	00000000 alt_irq_entry
0800dee0 g     F .text	00000044 __ascii_mbtowc
0800eeec g     F .text	00000060 __ulp
0800364c g     F .text	00000008 .hidden _Unwind_FindEnclosingFunction
0800cdac g     F .text	00000018 __fp_unlock_all
0802025c g     O .rwdata	00000008 alt_fs_list
0801de98  w    O .rodata	00000024 _ZTSN10__cxxabiv119__foreign_exceptionE
0801c60c g     F .text	00000058 alt_up_rs232_enable_read_interrupt
08003638 g     F .text	0000000c .hidden _Unwind_GetLanguageSpecificData
0801c780 g     F .text	00000040 alt_up_rs232_write_data
08002d80 g     F .text	000000b4 __cxa_begin_catch
08002730 g     F .text	00000010 _ZN10__cxxabiv117__class_type_infoD2Ev
08002a44 g     F .text	00000010 _ZN10__cxxabiv112__unexpectedEPFvvE
08000020 g       *ABS*	00000000 __ram_exceptions_start
0800db80 g     F .text	0000000c localeconv
080032f8 g     F .text	00000004 _ZNSt13bad_exceptionD0Ev
08020214 g     O .rwdata	00000004 _ZN10__cxxabiv119__terminate_handlerE
08003118 g     F .text	000000a4 __cxa_allocate_exception
08015600 g     F .text	00000084 __hexdig_init
0801ddbc  w    O .rodata	0000000c _ZTIN10__cxxabiv120__si_class_type_infoE
08020294 g       *ABS*	00000000 _edata
08000afc g     F .text	00000070 _ZN8WiFiUart4getsEPci
08022aec g       *ABS*	00000000 _end
08001f54 g     F .text	00000500 __gxx_personality_sj0
08000230 g       *ABS*	00000000 __ram_exceptions_end
0800aacc g     F .text	00000068 vfscanf
0801c0fc g     F .text	000000ec altera_avalon_jtag_uart_ioctl
080032d4 g     F .text	00000004 _ZNSt9exceptionD1Ev
0800fe24 g     F .text	0000007c __swrite
08020248 g     O .rwdata	00000004 __malloc_trim_threshold
080201fc g     O .rwdata	00000004 res
0800db44 g     F .text	0000000c __locale_msgcharset
080038ac g     F .text	00000038 exit
080035dc g     F .text	0000001c .hidden _Unwind_SetGR
0800d9c4 g     F .text	000000b8 _fwalk_reent
08002c58 g     F .text	0000009c _ZNK10__cxxabiv120__si_class_type_info20__do_find_public_srcEiPKvPKNS_17__class_type_infoES2_
0800ed54 g     F .text	00000198 __mdiff
0800296c g     F .text	000000c0 _ZN10__cxxabiv111__terminateEPFvvE
080173d8 g     F .text	0000005c .hidden __modsi3
0802024c g     O .rwdata	00000004 __ctype_ptr__
0c000000 g       *ABS*	00000000 __alt_data_end
08000020 g     F .exceptions	00000000 alt_exception
0800cd88 g     F .text	00000004 __sfp_lock_release
0801de6c  w    O .rodata	0000000c _ZTISt13bad_exception
0800fd00 g     F .text	000000c0 __sccl
0801dffc g     O .rodata	00000101 _ctype_
08021f5c g     O .bss	00000004 dma_complete
08020254 g     O .rwdata	00000004 __mbtowc
0801a1b4 g     F .text	00000034 _exit
0801c998 g     F .text	00000140 alt_alarm_start
0801653c g     F .text	0000010c .hidden __muldi3
080035a8 g     F .text	0000001c .hidden _Unwind_GetGR
08002694 g     F .text	0000000c __cxa_get_globals
0800db8c g     F .text	000001b8 __smakebuf_r
08020238 g     O .rwdata	00000004 _ZN10__cxxabiv120__unexpected_handlerE
08004968 g     F .text	00000098 strlen
080043e8 g     F .text	00000068 _init_signal_r
08020218  w    O .rwdata	00000008 _ZTISt9type_info
0801d1ac g     F .text	00000160 open
080188c8 g     F .text	000000e0 .hidden __gedf2
0801ab0c g     F .text	00000044 alt_putchar
0800031c g     F .text	00000068 _ZN6BTUart4openEPKc
0801de48  w    O .rodata	0000000d _ZTSSt9exception
08015684 g     F .text	00000858 __gethex
08020258 g     O .rwdata	00000004 __wctomb
080032f4 g     F .text	00000004 _ZNSt9exceptionD0Ev
08021f68 g     O .bss	00000004 result_str
08013a60 g     F .text	00000018 __sprint_r
0801cd44 g     F .text	0000001c alt_icache_flush_all
0800ff04 g     F .text	00000164 strchr
08003654 g     F .text	00000008 .hidden _Unwind_GetDataRelBase
08020288 g     O .rwdata	00000004 alt_priority_mask
08009354 g     F .text	00000024 __vfprintf_internal
080164e0 g     F .text	0000005c _wctomb_r
080004a0 g     F .text	0000007c _ZN6BTUart6read_mEPii
0801b67c g     F .text	00000138 alt_avalon_dma_prepare
080192f4 g     F .text	000008d0 .hidden __subdf3
08020280 g     O .rwdata	00000008 alt_dma_rxchan_list
0800e6f0 g     F .text	000000b0 __lo0bits
08009378 g     F .text	00001754 __svfscanf_r
080006d4 g     F .text	00000068 _ZN8WiFiUart4openEPKc
0802028c g     O .rwdata	00000008 alt_alarm_list
080137c0 g     F .text	00000188 _ungetc_r
0801cc8c g     F .text	0000005c _do_ctors
08004678 g     F .text	00000014 __sigtramp
08000590 g     F .text	00000048 _ZN6BTUart10read_readyEv
0801c6c0 g     F .text	00000040 alt_up_rs232_get_used_space_in_read_FIFO
080163d8 g     F .text	000000d8 wcrtomb
0801a00c g     F .text	000000d8 close
0801de78  w    O .rodata	00000020 _ZTSN10__cxxabiv115__forced_unwindE
0801a680 g     F .text	00000080 alt_load
0801b5ec g     F .text	00000048 alt_avalon_dma_tx_ioctl
080030d4 g     F .text	00000044 _ZNKSt9type_info10__do_catchEPKS_PPvj
08015450 g     F .text	00000058 fputwc
08004638 g     F .text	00000014 raise
080038f8 g     F .text	00000014 free
0800cd8c g     F .text	00000004 __sinit_lock_acquire
0800e448 g     F .text	0000013c __multadd
08002740 g     F .text	00000034 _ZN10__cxxabiv117__class_type_infoD0Ev
0800e420 g     F .text	00000028 _Bfree



Disassembly of section .entry:

08000000 <__reset>:
 * Jump to the _start entry point in the .text section if reset code
 * is allowed or if optimizing for RTL simulation.
 */
#if defined(ALT_ALLOW_CODE_AT_RESET) || defined(ALT_SIM_OPTIMIZE)
    /* Jump to the _start entry point in the .text section. */
    movhi r1, %hi(_start)
 8000000:	00420034 	movhi	at,2048
    ori r1, r1, %lo(_start)
 8000004:	08408c14 	ori	at,at,560
    jmp r1
 8000008:	0800683a 	jmp	at
	...

Disassembly of section .exceptions:

08000020 <alt_exception>:

#else /* ALT_EXCEPTION_STACK disabled */
        /* 
         * Reserve space on normal stack for registers about to be pushed.
         */
        addi  sp, sp, -76
 8000020:	deffed04 	addi	sp,sp,-76
         * documentation for details).
         *
         * Leave a gap in the stack frame at 4(sp) for the muldiv handler to
         * store zero into.
         */
        stw   ra,  0(sp)
 8000024:	dfc00015 	stw	ra,0(sp)
        stw   r1,   8(sp)
 8000028:	d8400215 	stw	at,8(sp)
        stw   r2,  12(sp)
 800002c:	d8800315 	stw	r2,12(sp)
        stw   r3,  16(sp)
 8000030:	d8c00415 	stw	r3,16(sp)
        stw   r4,  20(sp)
 8000034:	d9000515 	stw	r4,20(sp)
        stw   r5,  24(sp)
 8000038:	d9400615 	stw	r5,24(sp)
        stw   r6,  28(sp)
 800003c:	d9800715 	stw	r6,28(sp)
        stw   r7,  32(sp)
 8000040:	d9c00815 	stw	r7,32(sp)
        rdctl r5, estatus   /* Read early to avoid usage stall */
 8000044:	000b307a 	rdctl	r5,estatus
        stw   r8,  36(sp)
 8000048:	da000915 	stw	r8,36(sp)
        stw   r9,  40(sp)
 800004c:	da400a15 	stw	r9,40(sp)
        stw   r10, 44(sp)
 8000050:	da800b15 	stw	r10,44(sp)
        stw   r11, 48(sp)
 8000054:	dac00c15 	stw	r11,48(sp)
        stw   r12, 52(sp)
 8000058:	db000d15 	stw	r12,52(sp)
        stw   r13, 56(sp)
 800005c:	db400e15 	stw	r13,56(sp)
        stw   r14, 60(sp)
 8000060:	db800f15 	stw	r14,60(sp)
        stw   r15, 64(sp)
 8000064:	dbc01015 	stw	r15,64(sp)
        /*
         * ea-4 contains the address of the instruction being executed
         * when the exception occured. For interrupt exceptions, we will
         * will be re-issue the isntruction. Store it in 72(sp)
         */
        stw   r5,  68(sp)  /* estatus */
 8000068:	d9401115 	stw	r5,68(sp)
        addi  r15, ea, -4  /* instruction that caused exception */
 800006c:	ebffff04 	addi	r15,ea,-4
        stw   r15,  72(sp)
 8000070:	dbc01215 	stw	r15,72(sp)
#else
        /*
         * Test to see if the exception was a software exception or caused 
         * by an external interrupt, and vector accordingly.
         */
        rdctl r4, ipending
 8000074:	0009313a 	rdctl	r4,ipending
        andi  r2, r5, 1
 8000078:	2880004c 	andi	r2,r5,1
        beq   r2, zero, .Lnot_irq
 800007c:	10000326 	beq	r2,zero,800008c <alt_exception+0x6c>
        beq   r4, zero, .Lnot_irq
 8000080:	20000226 	beq	r4,zero,800008c <alt_exception+0x6c>
        /*
         * Now that all necessary registers have been preserved, call 
         * alt_irq_handler() to process the interrupts.
         */

        call alt_irq_handler
 8000084:	80000fc0 	call	80000fc <alt_irq_handler>

        .section .exceptions.irqreturn, "xa"

        br    .Lexception_exit
 8000088:	00000706 	br	80000a8 <alt_exception+0x88>
         * upon completion, so we write ea (address of instruction *after*
         * the one where the exception occured) into 72(sp). The actual
         * instruction that caused the exception is written in r2, which these
         * handlers will utilize.
         */
        stw   ea,  72(sp)  /* Don't re-issue */
 800008c:	df401215 	stw	ea,72(sp)
        ldhu.n  r2, 0(r4)
        ldhu.n  r3, 2(r4)
        slli.n  r3, r3, 16
        or.n    r2, r2, r3 /* Instruction that caused exception */
#else
        ldw   r2, -4(ea)   /* Instruction that caused exception */
 8000090:	e8bfff17 	ldw	r2,-4(ea)
         * debugger is present) or go into an infinite loop since the
         * handling behavior is undefined; in that case we will not return here.
         */

        /* Load exception-causing address as first argument (r4) */
        addi   r4, ea, -4
 8000094:	e93fff04 	addi	r4,ea,-4

        /* Call the instruction-exception entry */
        call   alt_instruction_exception_entry
 8000098:	80001d00 	call	80001d0 <alt_instruction_exception_entry>
         * instruction
         *
         * Return code was 0: Skip. The instruction after the exception is
         * already stored in 72(sp).
         */
        bne   r2, r0, .Lexception_exit
 800009c:	1000021e 	bne	r2,zero,80000a8 <alt_exception+0x88>

        /*
         * Otherwise, modify 72(sp) to re-issue the instruction that caused the
         * exception.
         */
        addi  r15, ea, -4  /* instruction that caused exception */
 80000a0:	ebffff04 	addi	r15,ea,-4
        stw   r15,  72(sp)
 80000a4:	dbc01215 	stw	r15,72(sp)
        /* 
         * Restore the saved registers, so that all general purpose registers 
         * have been restored to their state at the time the interrupt occured.
         */

        ldw   r5,  68(sp)
 80000a8:	d9401117 	ldw	r5,68(sp)
        ldw   ea,  72(sp)  /* This becomes the PC once eret is executed */
 80000ac:	df401217 	ldw	ea,72(sp)
        ldw   ra,   0(sp)
 80000b0:	dfc00017 	ldw	ra,0(sp)

        wrctl estatus, r5
 80000b4:	2801707a 	wrctl	estatus,r5

        ldw   r1,   8(sp)
 80000b8:	d8400217 	ldw	at,8(sp)
        ldw   r2,  12(sp)
 80000bc:	d8800317 	ldw	r2,12(sp)
        ldw   r3,  16(sp)
 80000c0:	d8c00417 	ldw	r3,16(sp)
        ldw   r4,  20(sp)
 80000c4:	d9000517 	ldw	r4,20(sp)
        ldw   r5,  24(sp)
 80000c8:	d9400617 	ldw	r5,24(sp)
        ldw   r6,  28(sp)
 80000cc:	d9800717 	ldw	r6,28(sp)
        ldw   r7,  32(sp)
 80000d0:	d9c00817 	ldw	r7,32(sp)

#if defined(ALT_EXCEPTION_STACK) && defined(ALT_STACK_CHECK)
        ldw   et, %gprel(alt_exception_old_stack_limit)(gp)
#endif

        ldw   r8,  36(sp)
 80000d4:	da000917 	ldw	r8,36(sp)
        ldw   r9,  40(sp)
 80000d8:	da400a17 	ldw	r9,40(sp)
        ldw   r10, 44(sp)
 80000dc:	da800b17 	ldw	r10,44(sp)
        ldw   r11, 48(sp)
 80000e0:	dac00c17 	ldw	r11,48(sp)
        ldw   r12, 52(sp)
 80000e4:	db000d17 	ldw	r12,52(sp)
        ldw   r13, 56(sp)
 80000e8:	db400e17 	ldw	r13,56(sp)
        ldw   r14, 60(sp)
 80000ec:	db800f17 	ldw	r14,60(sp)
        ldw   r15, 64(sp)
 80000f0:	dbc01017 	ldw	r15,64(sp)
        stw   et, %gprel(alt_stack_limit_value)(gp)
        stw   zero, %gprel(alt_exception_old_stack_limit)(gp)
#endif /* ALT_STACK_CHECK */
        ldw   sp,  76(sp)
#else /* ALT_EXCEPTION_STACK disabled */
        addi  sp, sp, 76
 80000f4:	dec01304 	addi	sp,sp,76

        /*
         * Return to the interrupted instruction.
         */

        eret
 80000f8:	ef80083a 	eret

080000fc <alt_irq_handler>:
 * instruction is present if the macro ALT_CI_INTERRUPT_VECTOR defined.
 */

void alt_irq_handler (void) __attribute__ ((section (".exceptions")));
void alt_irq_handler (void)
{
 80000fc:	defff904 	addi	sp,sp,-28
 8000100:	dfc00615 	stw	ra,24(sp)
 8000104:	df000515 	stw	fp,20(sp)
 8000108:	df000504 	addi	fp,sp,20
  
  /*
   * Notify the operating system that we are at interrupt level.
   */ 
  
  ALT_OS_INT_ENTER();
 800010c:	0001883a 	nop
#ifndef NIOS2_EIC_PRESENT
static ALT_INLINE alt_u32 ALT_ALWAYS_INLINE alt_irq_pending (void)
{
  alt_u32 active;

  NIOS2_READ_IPENDING (active);
 8000110:	0005313a 	rdctl	r2,ipending
 8000114:	e0bffe15 	stw	r2,-8(fp)

  return active;
 8000118:	e0bffe17 	ldw	r2,-8(fp)
   * Consider the case where the high priority interupt is asserted during
   * the interrupt entry sequence for a lower priority interrupt to see why
   * this is the case.
   */

  active = alt_irq_pending ();
 800011c:	e0bffb15 	stw	r2,-20(fp)

  do
  {
    i = 0;
 8000120:	e03ffd15 	stw	zero,-12(fp)
    mask = 1;
 8000124:	00800044 	movi	r2,1
 8000128:	e0bffc15 	stw	r2,-16(fp)
     * called to clear the interrupt condition.
     */

    do
    {
      if (active & mask)
 800012c:	e0fffb17 	ldw	r3,-20(fp)
 8000130:	e0bffc17 	ldw	r2,-16(fp)
 8000134:	1884703a 	and	r2,r3,r2
 8000138:	10001526 	beq	r2,zero,8000190 <alt_irq_handler+0x94>
      { 
#ifdef ALT_ENHANCED_INTERRUPT_API_PRESENT
        alt_irq[i].handler(alt_irq[i].context); 
#else
        alt_irq[i].handler(alt_irq[i].context, i); 
 800013c:	008200b4 	movhi	r2,2050
 8000140:	108a7b04 	addi	r2,r2,10732
 8000144:	e0fffd17 	ldw	r3,-12(fp)
 8000148:	180690fa 	slli	r3,r3,3
 800014c:	10c5883a 	add	r2,r2,r3
 8000150:	10c00017 	ldw	r3,0(r2)
 8000154:	008200b4 	movhi	r2,2050
 8000158:	108a7b04 	addi	r2,r2,10732
 800015c:	e13ffd17 	ldw	r4,-12(fp)
 8000160:	200890fa 	slli	r4,r4,3
 8000164:	1105883a 	add	r2,r2,r4
 8000168:	10800104 	addi	r2,r2,4
 800016c:	10800017 	ldw	r2,0(r2)
 8000170:	1009883a 	mov	r4,r2
 8000174:	e17ffd17 	ldw	r5,-12(fp)
 8000178:	183ee83a 	callr	r3
#endif
        break;
 800017c:	0001883a 	nop
#ifndef NIOS2_EIC_PRESENT
static ALT_INLINE alt_u32 ALT_ALWAYS_INLINE alt_irq_pending (void)
{
  alt_u32 active;

  NIOS2_READ_IPENDING (active);
 8000180:	0005313a 	rdctl	r2,ipending
 8000184:	e0bfff15 	stw	r2,-4(fp)

  return active;
 8000188:	e0bfff17 	ldw	r2,-4(fp)
 800018c:	00000706 	br	80001ac <alt_irq_handler+0xb0>
      }
      mask <<= 1;
 8000190:	e0bffc17 	ldw	r2,-16(fp)
 8000194:	1085883a 	add	r2,r2,r2
 8000198:	e0bffc15 	stw	r2,-16(fp)
      i++;
 800019c:	e0bffd17 	ldw	r2,-12(fp)
 80001a0:	10800044 	addi	r2,r2,1
 80001a4:	e0bffd15 	stw	r2,-12(fp)

    } while (1);
 80001a8:	003fe006 	br	800012c <__alt_data_end+0xfc00012c>

    active = alt_irq_pending ();
 80001ac:	e0bffb15 	stw	r2,-20(fp)
    
  } while (active);
 80001b0:	e0bffb17 	ldw	r2,-20(fp)
 80001b4:	103fda1e 	bne	r2,zero,8000120 <__alt_data_end+0xfc000120>

  /*
   * Notify the operating system that interrupt processing is complete.
   */ 

  ALT_OS_INT_EXIT();
 80001b8:	0001883a 	nop
}
 80001bc:	e037883a 	mov	sp,fp
 80001c0:	dfc00117 	ldw	ra,4(sp)
 80001c4:	df000017 	ldw	fp,0(sp)
 80001c8:	dec00204 	addi	sp,sp,8
 80001cc:	f800283a 	ret

080001d0 <alt_instruction_exception_entry>:
 * that handler if it has been registered. Absent a handler, it will
 * break break or hang as discussed below.
 */
int 
alt_instruction_exception_entry (alt_u32 exception_pc)
{
 80001d0:	defffb04 	addi	sp,sp,-20
 80001d4:	dfc00415 	stw	ra,16(sp)
 80001d8:	df000315 	stw	fp,12(sp)
 80001dc:	df000304 	addi	fp,sp,12
 80001e0:	e13fff15 	stw	r4,-4(fp)
  cause = ( (cause & NIOS2_EXCEPTION_REG_CAUSE_MASK) >>
              NIOS2_EXCEPTION_REG_CAUSE_OFST );

  NIOS2_READ_BADADDR(badaddr);
#else
  cause = NIOS2_EXCEPTION_CAUSE_NOT_PRESENT;
 80001e4:	00bfffc4 	movi	r2,-1
 80001e8:	e0bffd15 	stw	r2,-12(fp)
  badaddr = 0;
 80001ec:	e03ffe15 	stw	zero,-8(fp)
#endif /* NIOS2_HAS_EXTRA_EXCEPTION_INFO */

  if(alt_instruction_exception_handler) {
 80001f0:	d0a77817 	ldw	r2,-25120(gp)
 80001f4:	10000726 	beq	r2,zero,8000214 <alt_instruction_exception_entry+0x44>
     * Call handler. Its return value indicates whether the exception-causing
     * instruction should be re-issued. The code that called us,
     * alt_eceptions_entry.S, will look at this value and adjust the ea
     * register as necessary
     */
    return alt_instruction_exception_handler(cause, exception_pc, badaddr);
 80001f8:	d0a77817 	ldw	r2,-25120(gp)
 80001fc:	e0fffd17 	ldw	r3,-12(fp)
 8000200:	1809883a 	mov	r4,r3
 8000204:	e17fff17 	ldw	r5,-4(fp)
 8000208:	e1bffe17 	ldw	r6,-8(fp)
 800020c:	103ee83a 	callr	r2
 8000210:	00000206 	br	800021c <alt_instruction_exception_entry+0x4c>
   *    (a peripheral which negates its interrupt output before its
   *    interrupt handler has been executed will cause spurious interrupts)
   */
  else {
#ifdef NIOS2_HAS_DEBUG_STUB
    NIOS2_BREAK();
 8000214:	003da03a 	break	0
      ;
#endif /* NIOS2_HAS_DEBUG_STUB */
  }

  /* We should not get here. Remove compiler warning. */
  return NIOS2_EXCEPTION_RETURN_REISSUE_INST;
 8000218:	0005883a 	mov	r2,zero
}
 800021c:	e037883a 	mov	sp,fp
 8000220:	dfc00117 	ldw	ra,4(sp)
 8000224:	df000017 	ldw	fp,0(sp)
 8000228:	dec00204 	addi	sp,sp,8
 800022c:	f800283a 	ret

Disassembly of section .text:

08000230 <_start>:

    /*
     * Now that the caches are initialized, set up the stack pointer and global pointer.
     * The values provided by the linker are assumed to be correctly aligned.
     */
    movhi sp, %hi(__alt_stack_pointer)
 8000230:	06c30034 	movhi	sp,3072
    ori sp, sp, %lo(__alt_stack_pointer)
 8000234:	dec00014 	ori	sp,sp,0
    movhi gp, %hi(_gp)
 8000238:	068200b4 	movhi	gp,2050
    ori gp, gp, %lo(_gp)
 800023c:	d6a07514 	ori	gp,gp,33236
 */
#ifndef ALT_SIM_OPTIMIZE
    /* Log that the BSS is about to be cleared. */
    ALT_LOG_PUTS(alt_log_msg_bss)

    movhi r2, %hi(__bss_start)
 8000240:	008200b4 	movhi	r2,2050
    ori r2, r2, %lo(__bss_start)
 8000244:	1087d714 	ori	r2,r2,8028

    movhi r3, %hi(__bss_end)
 8000248:	00c200b4 	movhi	r3,2050
    ori r3, r3, %lo(__bss_end)
 800024c:	18cabb14 	ori	r3,r3,10988

    beq r2, r3, 1f
 8000250:	10c00326 	beq	r2,r3,8000260 <_start+0x30>

0:
    stw zero, (r2)
 8000254:	10000015 	stw	zero,0(r2)
    addi r2, r2, 4
 8000258:	10800104 	addi	r2,r2,4
    bltu r2, r3, 0b
 800025c:	10fffd36 	bltu	r2,r3,8000254 <__alt_data_end+0xfc000254>
     * section aren't defined until alt_load() has been called).
     */
    mov   et, zero
#endif

    call alt_load
 8000260:	801a6800 	call	801a680 <alt_load>

    /* Log that alt_main is about to be called. */
    ALT_LOG_PUTS(alt_log_msg_alt_main)

    /* Call the C entry point. It should never return. */
    call alt_main
 8000264:	801a82c0 	call	801a82c <alt_main>

08000268 <alt_after_alt_main>:

    /* Wait in infinite loop in case alt_main does return. */
alt_after_alt_main:
    br alt_after_alt_main
 8000268:	003fff06 	br	8000268 <__alt_data_end+0xfc000268>

0800026c <_ZN6BTUartC1Ev>:
#include "BTUart.h"
#include "sys/alt_dev.h"
#include "altera_up_avalon_rs232.h"


BTUart::BTUart()
 800026c:	defffe04 	addi	sp,sp,-8
 8000270:	df000115 	stw	fp,4(sp)
 8000274:	df000104 	addi	fp,sp,4
 8000278:	e13fff15 	stw	r4,-4(fp)
 800027c:	e0ffff17 	ldw	r3,-4(fp)
 8000280:	008200b4 	movhi	r2,2050
 8000284:	10b63704 	addi	r2,r2,-10020
 8000288:	18800015 	stw	r2,0(r3)
{
    // TODO Auto-generated constructor stub
}
 800028c:	e037883a 	mov	sp,fp
 8000290:	df000017 	ldw	fp,0(sp)
 8000294:	dec00104 	addi	sp,sp,4
 8000298:	f800283a 	ret

0800029c <_ZN6BTUartD1Ev>:


BTUart::~BTUart()
 800029c:	defffd04 	addi	sp,sp,-12
 80002a0:	dfc00215 	stw	ra,8(sp)
 80002a4:	df000115 	stw	fp,4(sp)
 80002a8:	df000104 	addi	fp,sp,4
 80002ac:	e13fff15 	stw	r4,-4(fp)
 80002b0:	e0ffff17 	ldw	r3,-4(fp)
 80002b4:	008200b4 	movhi	r2,2050
 80002b8:	10b63704 	addi	r2,r2,-10020
 80002bc:	18800015 	stw	r2,0(r3)
{
	// TODO Auto-generated destructor stub
}
 80002c0:	0005883a 	mov	r2,zero
 80002c4:	10000226 	beq	r2,zero,80002d0 <_ZN6BTUartD1Ev+0x34>
 80002c8:	e13fff17 	ldw	r4,-4(fp)
 80002cc:	80029680 	call	8002968 <_ZdlPv>
 80002d0:	e037883a 	mov	sp,fp
 80002d4:	dfc00117 	ldw	ra,4(sp)
 80002d8:	df000017 	ldw	fp,0(sp)
 80002dc:	dec00204 	addi	sp,sp,8
 80002e0:	f800283a 	ret

080002e4 <_ZN6BTUartD0Ev>:
{
    // TODO Auto-generated constructor stub
}


BTUart::~BTUart()
 80002e4:	defffd04 	addi	sp,sp,-12
 80002e8:	dfc00215 	stw	ra,8(sp)
 80002ec:	df000115 	stw	fp,4(sp)
 80002f0:	df000104 	addi	fp,sp,4
 80002f4:	e13fff15 	stw	r4,-4(fp)
{
	// TODO Auto-generated destructor stub
}
 80002f8:	e13fff17 	ldw	r4,-4(fp)
 80002fc:	800029c0 	call	800029c <_ZN6BTUartD1Ev>
 8000300:	e13fff17 	ldw	r4,-4(fp)
 8000304:	80029680 	call	8002968 <_ZdlPv>
 8000308:	e037883a 	mov	sp,fp
 800030c:	dfc00117 	ldw	ra,4(sp)
 8000310:	df000017 	ldw	fp,0(sp)
 8000314:	dec00204 	addi	sp,sp,8
 8000318:	f800283a 	ret

0800031c <_ZN6BTUart4openEPKc>:


int BTUart::open(const char *device_name)
{
 800031c:	defffc04 	addi	sp,sp,-16
 8000320:	dfc00315 	stw	ra,12(sp)
 8000324:	df000215 	stw	fp,8(sp)
 8000328:	df000204 	addi	fp,sp,8
 800032c:	e13ffe15 	stw	r4,-8(fp)
 8000330:	e17fff15 	stw	r5,-4(fp)
	RS232_DEV = alt_up_rs232_open_dev(device_name);
 8000334:	e13fff17 	ldw	r4,-4(fp)
 8000338:	801c9580 	call	801c958 <alt_up_rs232_open_dev>
 800033c:	1007883a 	mov	r3,r2
 8000340:	e0bffe17 	ldw	r2,-8(fp)
 8000344:	10c00115 	stw	r3,4(r2)

    // Enable the read interrupts for the RS232 UART core 
    alt_up_rs232_enable_read_interrupt(RS232_DEV);
 8000348:	e0bffe17 	ldw	r2,-8(fp)
 800034c:	10800117 	ldw	r2,4(r2)
 8000350:	1009883a 	mov	r4,r2
 8000354:	801c60c0 	call	801c60c <alt_up_rs232_enable_read_interrupt>

    if (RS232_DEV == NULL) {
 8000358:	e0bffe17 	ldw	r2,-8(fp)
 800035c:	10800117 	ldw	r2,4(r2)
 8000360:	1000021e 	bne	r2,zero,800036c <_ZN6BTUart4openEPKc+0x50>
        return 0;
 8000364:	0005883a 	mov	r2,zero
 8000368:	00000106 	br	8000370 <_ZN6BTUart4openEPKc+0x54>
    }
        
    return 1;
 800036c:	00800044 	movi	r2,1
}
 8000370:	e037883a 	mov	sp,fp
 8000374:	dfc00117 	ldw	ra,4(sp)
 8000378:	df000017 	ldw	fp,0(sp)
 800037c:	dec00204 	addi	sp,sp,8
 8000380:	f800283a 	ret

08000384 <_ZN6BTUart6read_sEv>:


int BTUart::read_s(void)
{
 8000384:	defffc04 	addi	sp,sp,-16
 8000388:	dfc00315 	stw	ra,12(sp)
 800038c:	df000215 	stw	fp,8(sp)
 8000390:	df000204 	addi	fp,sp,8
 8000394:	e13fff15 	stw	r4,-4(fp)
    while (!read_ready()) {}    // Wait for data to be available to read
 8000398:	0001883a 	nop
 800039c:	e13fff17 	ldw	r4,-4(fp)
 80003a0:	80005900 	call	8000590 <_ZN6BTUart10read_readyEv>
 80003a4:	1005003a 	cmpeq	r2,r2,zero
 80003a8:	10803fcc 	andi	r2,r2,255
 80003ac:	103ffb1e 	bne	r2,zero,800039c <__alt_data_end+0xfc00039c>

    alt_u8 buffer;
    alt_u8 parity_error;

    alt_up_rs232_read_data(RS232_DEV, &buffer, &parity_error);
 80003b0:	e0bfff17 	ldw	r2,-4(fp)
 80003b4:	10c00117 	ldw	r3,4(r2)
 80003b8:	e0bffe44 	addi	r2,fp,-7
 80003bc:	1809883a 	mov	r4,r3
 80003c0:	e17ffe04 	addi	r5,fp,-8
 80003c4:	100d883a 	mov	r6,r2
 80003c8:	801c7c00 	call	801c7c0 <alt_up_rs232_read_data>

    return (int) buffer;
 80003cc:	e0bffe03 	ldbu	r2,-8(fp)
 80003d0:	10803fcc 	andi	r2,r2,255
}
 80003d4:	e037883a 	mov	sp,fp
 80003d8:	dfc00117 	ldw	ra,4(sp)
 80003dc:	df000017 	ldw	fp,0(sp)
 80003e0:	dec00204 	addi	sp,sp,8
 80003e4:	f800283a 	ret

080003e8 <_ZN6BTUart7write_sEh>:


int BTUart::write_s(alt_u8 data)
{
 80003e8:	defffb04 	addi	sp,sp,-20
 80003ec:	dfc00415 	stw	ra,16(sp)
 80003f0:	df000315 	stw	fp,12(sp)
 80003f4:	df000304 	addi	fp,sp,12
 80003f8:	e13ffe15 	stw	r4,-8(fp)
 80003fc:	2805883a 	mov	r2,r5
 8000400:	e0bfff05 	stb	r2,-4(fp)
    alt_up_rs232_disable_read_interrupt(RS232_DEV);
 8000404:	e0bffe17 	ldw	r2,-8(fp)
 8000408:	10800117 	ldw	r2,4(r2)
 800040c:	1009883a 	mov	r4,r2
 8000410:	801c6640 	call	801c664 <alt_up_rs232_disable_read_interrupt>

    int result = 0;
 8000414:	e03ffd15 	stw	zero,-12(fp)
    WRITE_FIFO_SPACE = alt_up_rs232_get_available_space_in_write_FIFO(RS232_DEV);
 8000418:	e0bffe17 	ldw	r2,-8(fp)
 800041c:	10800117 	ldw	r2,4(r2)
 8000420:	1009883a 	mov	r4,r2
 8000424:	801c7000 	call	801c700 <alt_up_rs232_get_available_space_in_write_FIFO>
 8000428:	1007883a 	mov	r3,r2
 800042c:	e0bffe17 	ldw	r2,-8(fp)
 8000430:	10c00215 	stw	r3,8(r2)

    if (WRITE_FIFO_SPACE >= WRITE_FIFO_EMPTY) {
 8000434:	e0bffe17 	ldw	r2,-8(fp)
 8000438:	10800217 	ldw	r2,8(r2)
 800043c:	10802030 	cmpltui	r2,r2,128
 8000440:	10000d1e 	bne	r2,zero,8000478 <_ZN6BTUart7write_sEh+0x90>
        alt_up_rs232_write_data(RS232_DEV, data);
 8000444:	e0bffe17 	ldw	r2,-8(fp)
 8000448:	10c00117 	ldw	r3,4(r2)
 800044c:	e0bfff03 	ldbu	r2,-4(fp)
 8000450:	1809883a 	mov	r4,r3
 8000454:	100b883a 	mov	r5,r2
 8000458:	801c7800 	call	801c780 <alt_up_rs232_write_data>
        alt_printf("write %c to RS232 UART\n", data);
 800045c:	e0bfff03 	ldbu	r2,-4(fp)
 8000460:	010200b4 	movhi	r4,2050
 8000464:	21362f04 	addi	r4,r4,-10052
 8000468:	100b883a 	mov	r5,r2
 800046c:	801a8e40 	call	801a8e4 <alt_printf>
        result = 1;
 8000470:	00800044 	movi	r2,1
 8000474:	e0bffd15 	stw	r2,-12(fp)
    }

    // Enable the read interrupts for the RS232 UART core 
    alt_up_rs232_enable_read_interrupt(RS232_DEV);
 8000478:	e0bffe17 	ldw	r2,-8(fp)
 800047c:	10800117 	ldw	r2,4(r2)
 8000480:	1009883a 	mov	r4,r2
 8000484:	801c60c0 	call	801c60c <alt_up_rs232_enable_read_interrupt>
    return result;
 8000488:	e0bffd17 	ldw	r2,-12(fp)
}
 800048c:	e037883a 	mov	sp,fp
 8000490:	dfc00117 	ldw	ra,4(sp)
 8000494:	df000017 	ldw	fp,0(sp)
 8000498:	dec00204 	addi	sp,sp,8
 800049c:	f800283a 	ret

080004a0 <_ZN6BTUart6read_mEPii>:


void BTUart::read_m(int *buffer, int length)
{
 80004a0:	defff904 	addi	sp,sp,-28
 80004a4:	dfc00615 	stw	ra,24(sp)
 80004a8:	df000515 	stw	fp,20(sp)
 80004ac:	dc000415 	stw	r16,16(sp)
 80004b0:	df000504 	addi	fp,sp,20
 80004b4:	e13ffc15 	stw	r4,-16(fp)
 80004b8:	e17ffd15 	stw	r5,-12(fp)
 80004bc:	e1bffe15 	stw	r6,-8(fp)
    int count;

    for (count = 0; count < length; count++) {
 80004c0:	e03ffb15 	stw	zero,-20(fp)
 80004c4:	00000c06 	br	80004f8 <_ZN6BTUart6read_mEPii+0x58>
		buffer[count] = read_s();
 80004c8:	e0bffb17 	ldw	r2,-20(fp)
 80004cc:	1085883a 	add	r2,r2,r2
 80004d0:	1085883a 	add	r2,r2,r2
 80004d4:	1007883a 	mov	r3,r2
 80004d8:	e0bffd17 	ldw	r2,-12(fp)
 80004dc:	10e1883a 	add	r16,r2,r3
 80004e0:	e13ffc17 	ldw	r4,-16(fp)
 80004e4:	80003840 	call	8000384 <_ZN6BTUart6read_sEv>
 80004e8:	80800015 	stw	r2,0(r16)

void BTUart::read_m(int *buffer, int length)
{
    int count;

    for (count = 0; count < length; count++) {
 80004ec:	e0bffb17 	ldw	r2,-20(fp)
 80004f0:	10800044 	addi	r2,r2,1
 80004f4:	e0bffb15 	stw	r2,-20(fp)
 80004f8:	e0fffb17 	ldw	r3,-20(fp)
 80004fc:	e0bffe17 	ldw	r2,-8(fp)
 8000500:	18bff116 	blt	r3,r2,80004c8 <__alt_data_end+0xfc0004c8>
		buffer[count] = read_s();
	}
}
 8000504:	e6ffff04 	addi	sp,fp,-4
 8000508:	dfc00217 	ldw	ra,8(sp)
 800050c:	df000117 	ldw	fp,4(sp)
 8000510:	dc000017 	ldw	r16,0(sp)
 8000514:	dec00304 	addi	sp,sp,12
 8000518:	f800283a 	ret

0800051c <_ZN6BTUart7write_mEPci>:


int BTUart::write_m(char data[], int length)
{
 800051c:	defffa04 	addi	sp,sp,-24
 8000520:	dfc00515 	stw	ra,20(sp)
 8000524:	df000415 	stw	fp,16(sp)
 8000528:	df000404 	addi	fp,sp,16
 800052c:	e13ffd15 	stw	r4,-12(fp)
 8000530:	e17ffe15 	stw	r5,-8(fp)
 8000534:	e1bfff15 	stw	r6,-4(fp)
    int count;

	for (count = 0; count < length; count++) {
 8000538:	e03ffc15 	stw	zero,-16(fp)
 800053c:	00000b06 	br	800056c <_ZN6BTUart7write_mEPci+0x50>
        // printf("Write from m: %c\n", data[count]);
		write_s(data[count]);
 8000540:	e0bffc17 	ldw	r2,-16(fp)
 8000544:	e0fffe17 	ldw	r3,-8(fp)
 8000548:	1885883a 	add	r2,r3,r2
 800054c:	10800003 	ldbu	r2,0(r2)
 8000550:	10803fcc 	andi	r2,r2,255
 8000554:	e13ffd17 	ldw	r4,-12(fp)
 8000558:	100b883a 	mov	r5,r2
 800055c:	80003e80 	call	80003e8 <_ZN6BTUart7write_sEh>

int BTUart::write_m(char data[], int length)
{
    int count;

	for (count = 0; count < length; count++) {
 8000560:	e0bffc17 	ldw	r2,-16(fp)
 8000564:	10800044 	addi	r2,r2,1
 8000568:	e0bffc15 	stw	r2,-16(fp)
 800056c:	e0fffc17 	ldw	r3,-16(fp)
 8000570:	e0bfff17 	ldw	r2,-4(fp)
 8000574:	18bff216 	blt	r3,r2,8000540 <__alt_data_end+0xfc000540>
        // printf("Write from m: %c\n", data[count]);
		write_s(data[count]);
	}
    return count;
 8000578:	e0bffc17 	ldw	r2,-16(fp)
}
 800057c:	e037883a 	mov	sp,fp
 8000580:	dfc00117 	ldw	ra,4(sp)
 8000584:	df000017 	ldw	fp,0(sp)
 8000588:	dec00204 	addi	sp,sp,8
 800058c:	f800283a 	ret

08000590 <_ZN6BTUart10read_readyEv>:


int BTUart::read_ready(void)
{
 8000590:	defffc04 	addi	sp,sp,-16
 8000594:	dfc00315 	stw	ra,12(sp)
 8000598:	df000215 	stw	fp,8(sp)
 800059c:	df000204 	addi	fp,sp,8
 80005a0:	e13fff15 	stw	r4,-4(fp)
    alt_u16 read_fifo_used = alt_up_rs232_get_used_space_in_read_FIFO(RS232_DEV);
 80005a4:	e0bfff17 	ldw	r2,-4(fp)
 80005a8:	10800117 	ldw	r2,4(r2)
 80005ac:	1009883a 	mov	r4,r2
 80005b0:	801c6c00 	call	801c6c0 <alt_up_rs232_get_used_space_in_read_FIFO>
 80005b4:	e0bffe0d 	sth	r2,-8(fp)
    return (read_fifo_used > READ_FIFO_EMPTY);
 80005b8:	e0bffe0b 	ldhu	r2,-8(fp)
 80005bc:	1004c03a 	cmpne	r2,r2,zero
 80005c0:	10803fcc 	andi	r2,r2,255
}
 80005c4:	e037883a 	mov	sp,fp
 80005c8:	dfc00117 	ldw	ra,4(sp)
 80005cc:	df000017 	ldw	fp,0(sp)
 80005d0:	dec00204 	addi	sp,sp,8
 80005d4:	f800283a 	ret

080005d8 <_ZN6BTUart5flushEv>:


void BTUart::flush(void)
{
 80005d8:	defffd04 	addi	sp,sp,-12
 80005dc:	dfc00215 	stw	ra,8(sp)
 80005e0:	df000115 	stw	fp,4(sp)
 80005e4:	df000104 	addi	fp,sp,4
 80005e8:	e13fff15 	stw	r4,-4(fp)
    while (read_ready()) {
 80005ec:	00000206 	br	80005f8 <_ZN6BTUart5flushEv+0x20>
        // read unwanted char out of fifo receiver buffer
        read_s();
 80005f0:	e13fff17 	ldw	r4,-4(fp)
 80005f4:	80003840 	call	8000384 <_ZN6BTUart6read_sEv>
}


void BTUart::flush(void)
{
    while (read_ready()) {
 80005f8:	e13fff17 	ldw	r4,-4(fp)
 80005fc:	80005900 	call	8000590 <_ZN6BTUart10read_readyEv>
 8000600:	1004c03a 	cmpne	r2,r2,zero
 8000604:	10803fcc 	andi	r2,r2,255
 8000608:	103ff91e 	bne	r2,zero,80005f0 <__alt_data_end+0xfc0005f0>
        // read unwanted char out of fifo receiver buffer
        read_s();
    }
    return; // no more characters so return 
 800060c:	0001883a 	nop
 8000610:	e037883a 	mov	sp,fp
 8000614:	dfc00117 	ldw	ra,4(sp)
 8000618:	df000017 	ldw	fp,0(sp)
 800061c:	dec00204 	addi	sp,sp,8
 8000620:	f800283a 	ret

08000624 <_ZN8WiFiUartC1Ev>:
#include "WiFiUart.h"
#include "sys/alt_dev.h"
#include "altera_up_avalon_rs232.h"


WiFiUart::WiFiUart()
 8000624:	defffe04 	addi	sp,sp,-8
 8000628:	df000115 	stw	fp,4(sp)
 800062c:	df000104 	addi	fp,sp,4
 8000630:	e13fff15 	stw	r4,-4(fp)
 8000634:	e0ffff17 	ldw	r3,-4(fp)
 8000638:	008200b4 	movhi	r2,2050
 800063c:	10b69004 	addi	r2,r2,-9664
 8000640:	18800015 	stw	r2,0(r3)
{
    // TODO Auto-generated constructor stub
}
 8000644:	e037883a 	mov	sp,fp
 8000648:	df000017 	ldw	fp,0(sp)
 800064c:	dec00104 	addi	sp,sp,4
 8000650:	f800283a 	ret

08000654 <_ZN8WiFiUartD1Ev>:


WiFiUart::~WiFiUart()
 8000654:	defffd04 	addi	sp,sp,-12
 8000658:	dfc00215 	stw	ra,8(sp)
 800065c:	df000115 	stw	fp,4(sp)
 8000660:	df000104 	addi	fp,sp,4
 8000664:	e13fff15 	stw	r4,-4(fp)
 8000668:	e0ffff17 	ldw	r3,-4(fp)
 800066c:	008200b4 	movhi	r2,2050
 8000670:	10b69004 	addi	r2,r2,-9664
 8000674:	18800015 	stw	r2,0(r3)
{
	// TODO Auto-generated destructor stub
}
 8000678:	0005883a 	mov	r2,zero
 800067c:	10000226 	beq	r2,zero,8000688 <_ZN8WiFiUartD1Ev+0x34>
 8000680:	e13fff17 	ldw	r4,-4(fp)
 8000684:	80029680 	call	8002968 <_ZdlPv>
 8000688:	e037883a 	mov	sp,fp
 800068c:	dfc00117 	ldw	ra,4(sp)
 8000690:	df000017 	ldw	fp,0(sp)
 8000694:	dec00204 	addi	sp,sp,8
 8000698:	f800283a 	ret

0800069c <_ZN8WiFiUartD0Ev>:
{
    // TODO Auto-generated constructor stub
}


WiFiUart::~WiFiUart()
 800069c:	defffd04 	addi	sp,sp,-12
 80006a0:	dfc00215 	stw	ra,8(sp)
 80006a4:	df000115 	stw	fp,4(sp)
 80006a8:	df000104 	addi	fp,sp,4
 80006ac:	e13fff15 	stw	r4,-4(fp)
{
	// TODO Auto-generated destructor stub
}
 80006b0:	e13fff17 	ldw	r4,-4(fp)
 80006b4:	80006540 	call	8000654 <_ZN8WiFiUartD1Ev>
 80006b8:	e13fff17 	ldw	r4,-4(fp)
 80006bc:	80029680 	call	8002968 <_ZdlPv>
 80006c0:	e037883a 	mov	sp,fp
 80006c4:	dfc00117 	ldw	ra,4(sp)
 80006c8:	df000017 	ldw	fp,0(sp)
 80006cc:	dec00204 	addi	sp,sp,8
 80006d0:	f800283a 	ret

080006d4 <_ZN8WiFiUart4openEPKc>:


int WiFiUart::open(const char *device_name)
{
 80006d4:	defffc04 	addi	sp,sp,-16
 80006d8:	dfc00315 	stw	ra,12(sp)
 80006dc:	df000215 	stw	fp,8(sp)
 80006e0:	df000204 	addi	fp,sp,8
 80006e4:	e13ffe15 	stw	r4,-8(fp)
 80006e8:	e17fff15 	stw	r5,-4(fp)
	RS232_DEV = alt_up_rs232_open_dev(device_name);
 80006ec:	e13fff17 	ldw	r4,-4(fp)
 80006f0:	801c9580 	call	801c958 <alt_up_rs232_open_dev>
 80006f4:	1007883a 	mov	r3,r2
 80006f8:	e0bffe17 	ldw	r2,-8(fp)
 80006fc:	10c00115 	stw	r3,4(r2)

    // Enable the read interrupts for the RS232 UART core 
    alt_up_rs232_enable_read_interrupt(RS232_DEV);
 8000700:	e0bffe17 	ldw	r2,-8(fp)
 8000704:	10800117 	ldw	r2,4(r2)
 8000708:	1009883a 	mov	r4,r2
 800070c:	801c60c0 	call	801c60c <alt_up_rs232_enable_read_interrupt>

    if (RS232_DEV == NULL) {
 8000710:	e0bffe17 	ldw	r2,-8(fp)
 8000714:	10800117 	ldw	r2,4(r2)
 8000718:	1000021e 	bne	r2,zero,8000724 <_ZN8WiFiUart4openEPKc+0x50>
        return 0;
 800071c:	0005883a 	mov	r2,zero
 8000720:	00000106 	br	8000728 <_ZN8WiFiUart4openEPKc+0x54>
    }
        
    return 1;
 8000724:	00800044 	movi	r2,1
}
 8000728:	e037883a 	mov	sp,fp
 800072c:	dfc00117 	ldw	ra,4(sp)
 8000730:	df000017 	ldw	fp,0(sp)
 8000734:	dec00204 	addi	sp,sp,8
 8000738:	f800283a 	ret

0800073c <_ZN8WiFiUart7connectEv>:


int WiFiUart::connect()
{
 800073c:	deffda04 	addi	sp,sp,-152
 8000740:	dfc02515 	stw	ra,148(sp)
 8000744:	df002415 	stw	fp,144(sp)
 8000748:	df002404 	addi	fp,sp,144
 800074c:	e13fff15 	stw	r4,-4(fp)
	if (RS232_DEV == NULL) {
 8000750:	e0bfff17 	ldw	r2,-4(fp)
 8000754:	10800117 	ldw	r2,4(r2)
 8000758:	1000051e 	bne	r2,zero,8000770 <_ZN8WiFiUart7connectEv+0x34>
        printf("ERROR: Open RS232 port before conencting.\n");
 800075c:	010200b4 	movhi	r4,2050
 8000760:	21363904 	addi	r4,r4,-10012
 8000764:	80043180 	call	8004318 <puts>
        return 0;
 8000768:	0005883a 	mov	r2,zero
 800076c:	00003206 	br	8000838 <_ZN8WiFiUart7connectEv+0xfc>
    }

    char ssid[20], passwd[20];

    send_command("AT+CWMODE_CUR=1");    // Obtain current AT command version
 8000770:	e13fff17 	ldw	r4,-4(fp)
 8000774:	014200b4 	movhi	r5,2050
 8000778:	29764404 	addi	r5,r5,-9968
 800077c:	800084c0 	call	800084c <_ZN8WiFiUart12send_commandEPKc>
    send_command("AT+CWLAPOPT=1,0x2");  // Get avaialble wifi ssid, sorted according to RSSI (signal strength)
 8000780:	e13fff17 	ldw	r4,-4(fp)
 8000784:	014200b4 	movhi	r5,2050
 8000788:	29764804 	addi	r5,r5,-9952
 800078c:	800084c0 	call	800084c <_ZN8WiFiUart12send_commandEPKc>

    printf("Network Name (SSID) List:\n");
 8000790:	010200b4 	movhi	r4,2050
 8000794:	21364d04 	addi	r4,r4,-9932
 8000798:	80043180 	call	8004318 <puts>
    send_command("AT+CWLAP");           // List available APs
 800079c:	e13fff17 	ldw	r4,-4(fp)
 80007a0:	014200b4 	movhi	r5,2050
 80007a4:	29765404 	addi	r5,r5,-9904
 80007a8:	800084c0 	call	800084c <_ZN8WiFiUart12send_commandEPKc>

    // Collect user input
    printf("Enter the Network Name (SSID): ");
 80007ac:	010200b4 	movhi	r4,2050
 80007b0:	21365704 	addi	r4,r4,-9892
 80007b4:	80042040 	call	8004204 <printf>
    scanf("%s", ssid);
 80007b8:	010200b4 	movhi	r4,2050
 80007bc:	21365f04 	addi	r4,r4,-9860
 80007c0:	e17fdc04 	addi	r5,fp,-144
 80007c4:	80043800 	call	8004380 <scanf>
    printf("\n");
 80007c8:	01000284 	movi	r4,10
 80007cc:	80042480 	call	8004248 <putchar>

    printf("Enter the Password of Network Name (SSID): ");
 80007d0:	010200b4 	movhi	r4,2050
 80007d4:	21366004 	addi	r4,r4,-9856
 80007d8:	80042040 	call	8004204 <printf>
    scanf("%s", passwd);
 80007dc:	e0bfe104 	addi	r2,fp,-124
 80007e0:	010200b4 	movhi	r4,2050
 80007e4:	21365f04 	addi	r4,r4,-9860
 80007e8:	100b883a 	mov	r5,r2
 80007ec:	80043800 	call	8004380 <scanf>
    printf("\n");
 80007f0:	01000284 	movi	r4,10
 80007f4:	80042480 	call	8004248 <putchar>

    printf("Connecting to WiFi AP (SSID: %s)\n", ssid);
 80007f8:	010200b4 	movhi	r4,2050
 80007fc:	21366b04 	addi	r4,r4,-9812
 8000800:	e17fdc04 	addi	r5,fp,-144
 8000804:	80042040 	call	8004204 <printf>

    char cmd[100];
    sprintf(cmd, "AT+CWJAP_CUR=\"%s\",\"%s\"", ssid, passwd);   // Connects to an AP
 8000808:	e0ffe604 	addi	r3,fp,-104
 800080c:	e0bfe104 	addi	r2,fp,-124
 8000810:	1809883a 	mov	r4,r3
 8000814:	014200b4 	movhi	r5,2050
 8000818:	29767404 	addi	r5,r5,-9776
 800081c:	e1bfdc04 	addi	r6,fp,-144
 8000820:	100f883a 	mov	r7,r2
 8000824:	80047400 	call	8004740 <sprintf>

    // Return the response obtained after sending AT command
    // requesting wifi connection
    return send_command(cmd);
 8000828:	e0bfe604 	addi	r2,fp,-104
 800082c:	e13fff17 	ldw	r4,-4(fp)
 8000830:	100b883a 	mov	r5,r2
 8000834:	800084c0 	call	800084c <_ZN8WiFiUart12send_commandEPKc>
    return 1;
}
 8000838:	e037883a 	mov	sp,fp
 800083c:	dfc00117 	ldw	ra,4(sp)
 8000840:	df000017 	ldw	fp,0(sp)
 8000844:	dec00204 	addi	sp,sp,8
 8000848:	f800283a 	ret

0800084c <_ZN8WiFiUart12send_commandEPKc>:


int WiFiUart::send_command(const char *cmd)
{
 800084c:	defeff04 	addi	sp,sp,-1028
 8000850:	dfc10015 	stw	ra,1024(sp)
 8000854:	df00ff15 	stw	fp,1020(sp)
 8000858:	dc00fe15 	stw	r16,1016(sp)
 800085c:	df00ff04 	addi	fp,sp,1020
 8000860:	e13ffd15 	stw	r4,-12(fp)
 8000864:	e17ffe15 	stw	r5,-8(fp)
    int count;

	for (count = 0; count < strlen(cmd); count++) {
 8000868:	e03f0115 	stw	zero,-1020(fp)
 800086c:	00000b06 	br	800089c <_ZN8WiFiUart12send_commandEPKc+0x50>
		write_s(cmd[count]);
 8000870:	e0bf0117 	ldw	r2,-1020(fp)
 8000874:	e0fffe17 	ldw	r3,-8(fp)
 8000878:	1885883a 	add	r2,r3,r2
 800087c:	10800003 	ldbu	r2,0(r2)
 8000880:	10803fcc 	andi	r2,r2,255
 8000884:	e13ffd17 	ldw	r4,-12(fp)
 8000888:	100b883a 	mov	r5,r2
 800088c:	8000b6c0 	call	8000b6c <_ZN8WiFiUart7write_sEh>

int WiFiUart::send_command(const char *cmd)
{
    int count;

	for (count = 0; count < strlen(cmd); count++) {
 8000890:	e0bf0117 	ldw	r2,-1020(fp)
 8000894:	10800044 	addi	r2,r2,1
 8000898:	e0bf0115 	stw	r2,-1020(fp)
 800089c:	e43f0117 	ldw	r16,-1020(fp)
 80008a0:	e13ffe17 	ldw	r4,-8(fp)
 80008a4:	80049680 	call	8004968 <strlen>
 80008a8:	80bff136 	bltu	r16,r2,8000870 <__alt_data_end+0xfc000870>
		write_s(cmd[count]);
	}
    alt_u8 c = {'\r'};
 80008ac:	00800344 	movi	r2,13
 80008b0:	e0bf0205 	stb	r2,-1016(fp)
    write_s(c);
 80008b4:	e0bf0203 	ldbu	r2,-1016(fp)
 80008b8:	e13ffd17 	ldw	r4,-12(fp)
 80008bc:	100b883a 	mov	r5,r2
 80008c0:	8000b6c0 	call	8000b6c <_ZN8WiFiUart7write_sEh>
    c = {'\n'};
 80008c4:	00800284 	movi	r2,10
 80008c8:	e0bf0205 	stb	r2,-1016(fp)
    write_s(c);
 80008cc:	e0bf0203 	ldbu	r2,-1016(fp)
 80008d0:	e13ffd17 	ldw	r4,-12(fp)
 80008d4:	100b883a 	mov	r5,r2
 80008d8:	8000b6c0 	call	8000b6c <_ZN8WiFiUart7write_sEh>

    char buffer[1000];
    count = 0;
 80008dc:	e03f0115 	stw	zero,-1020(fp)

    while (read_ready()) {
 80008e0:	00000a06 	br	800090c <_ZN8WiFiUart12send_commandEPKc+0xc0>
        // read unwanted char out of fifo receiver buffer
        buffer[count] = read_s();
 80008e4:	e13ffd17 	ldw	r4,-12(fp)
 80008e8:	8000c240 	call	8000c24 <_ZN8WiFiUart6read_sEv>
 80008ec:	1009883a 	mov	r4,r2
 80008f0:	e0ff0244 	addi	r3,fp,-1015
 80008f4:	e0bf0117 	ldw	r2,-1020(fp)
 80008f8:	1885883a 	add	r2,r3,r2
 80008fc:	11000005 	stb	r4,0(r2)
        count++;
 8000900:	e0bf0117 	ldw	r2,-1020(fp)
 8000904:	10800044 	addi	r2,r2,1
 8000908:	e0bf0115 	stw	r2,-1020(fp)
    write_s(c);

    char buffer[1000];
    count = 0;

    while (read_ready()) {
 800090c:	e13ffd17 	ldw	r4,-12(fp)
 8000910:	8000c840 	call	8000c84 <_ZN8WiFiUart10read_readyEv>
 8000914:	1004c03a 	cmpne	r2,r2,zero
 8000918:	10803fcc 	andi	r2,r2,255
 800091c:	103ff11e 	bne	r2,zero,80008e4 <__alt_data_end+0xfc0008e4>
        // read unwanted char out of fifo receiver buffer
        buffer[count] = read_s();
        count++;
    }

    if (strstr(buffer, "OK") != NULL) {
 8000920:	e0bf0244 	addi	r2,fp,-1015
 8000924:	1009883a 	mov	r4,r2
 8000928:	014200b4 	movhi	r5,2050
 800092c:	29767a04 	addi	r5,r5,-9752
 8000930:	8004e700 	call	8004e70 <strstr>
 8000934:	10000a26 	beq	r2,zero,8000960 <_ZN8WiFiUart12send_commandEPKc+0x114>
        if (strcmp("AT+CWLAP", cmd) == 0)
 8000938:	010200b4 	movhi	r4,2050
 800093c:	21365404 	addi	r4,r4,-9904
 8000940:	e17ffe17 	ldw	r5,-8(fp)
 8000944:	80048340 	call	8004834 <strcmp>
 8000948:	1000031e 	bne	r2,zero,8000958 <_ZN8WiFiUart12send_commandEPKc+0x10c>
            printf("%s\n", buffer);
 800094c:	e0bf0244 	addi	r2,fp,-1015
 8000950:	1009883a 	mov	r4,r2
 8000954:	80043180 	call	8004318 <puts>
        return true;
 8000958:	00800044 	movi	r2,1
 800095c:	00001e06 	br	80009d8 <_ZN8WiFiUart12send_commandEPKc+0x18c>
    } else if (strstr(buffer, "ERROR") != NULL) {
 8000960:	e0bf0244 	addi	r2,fp,-1015
 8000964:	1009883a 	mov	r4,r2
 8000968:	014200b4 	movhi	r5,2050
 800096c:	29767b04 	addi	r5,r5,-9748
 8000970:	8004e700 	call	8004e70 <strstr>
 8000974:	10000726 	beq	r2,zero,8000994 <_ZN8WiFiUart12send_commandEPKc+0x148>
        printf("AT ERROR: %s\n", buffer);
 8000978:	e0bf0244 	addi	r2,fp,-1015
 800097c:	010200b4 	movhi	r4,2050
 8000980:	21367d04 	addi	r4,r4,-9740
 8000984:	100b883a 	mov	r5,r2
 8000988:	80042040 	call	8004204 <printf>
        return false;
 800098c:	0005883a 	mov	r2,zero
 8000990:	00001106 	br	80009d8 <_ZN8WiFiUart12send_commandEPKc+0x18c>
    } else if (strstr(buffer, "FAIL") != NULL) {
 8000994:	e0bf0244 	addi	r2,fp,-1015
 8000998:	1009883a 	mov	r4,r2
 800099c:	014200b4 	movhi	r5,2050
 80009a0:	29768104 	addi	r5,r5,-9724
 80009a4:	8004e700 	call	8004e70 <strstr>
 80009a8:	10000726 	beq	r2,zero,80009c8 <_ZN8WiFiUart12send_commandEPKc+0x17c>
        printf("AT ERROR: %s\n", buffer);
 80009ac:	e0bf0244 	addi	r2,fp,-1015
 80009b0:	010200b4 	movhi	r4,2050
 80009b4:	21367d04 	addi	r4,r4,-9740
 80009b8:	100b883a 	mov	r5,r2
 80009bc:	80042040 	call	8004204 <printf>
        return false;
 80009c0:	0005883a 	mov	r2,zero
 80009c4:	00000406 	br	80009d8 <_ZN8WiFiUart12send_commandEPKc+0x18c>
    }

    printf("AT ERROR: Buffer empty.\n");
 80009c8:	010200b4 	movhi	r4,2050
 80009cc:	21368304 	addi	r4,r4,-9716
 80009d0:	80043180 	call	8004318 <puts>
    return false;
 80009d4:	0005883a 	mov	r2,zero
}
 80009d8:	e6ffff04 	addi	sp,fp,-4
 80009dc:	dfc00217 	ldw	ra,8(sp)
 80009e0:	df000117 	ldw	fp,4(sp)
 80009e4:	dc000017 	ldw	r16,0(sp)
 80009e8:	dec00304 	addi	sp,sp,12
 80009ec:	f800283a 	ret

080009f0 <_ZN8WiFiUart9send_dataEPKci>:


int WiFiUart::send_data(const char *data, int length)
{
 80009f0:	deff0004 	addi	sp,sp,-1024
 80009f4:	dfc0ff15 	stw	ra,1020(sp)
 80009f8:	df00fe15 	stw	fp,1016(sp)
 80009fc:	df00fe04 	addi	fp,sp,1016
 8000a00:	e13ffd15 	stw	r4,-12(fp)
 8000a04:	e17ffe15 	stw	r5,-8(fp)
 8000a08:	e1bfff15 	stw	r6,-4(fp)
    int count;

	for (count = 0; count < length; count++) {
 8000a0c:	e03f0215 	stw	zero,-1016(fp)
 8000a10:	00000b06 	br	8000a40 <_ZN8WiFiUart9send_dataEPKci+0x50>
		write_s(data[count]);
 8000a14:	e0bf0217 	ldw	r2,-1016(fp)
 8000a18:	e0fffe17 	ldw	r3,-8(fp)
 8000a1c:	1885883a 	add	r2,r3,r2
 8000a20:	10800003 	ldbu	r2,0(r2)
 8000a24:	10803fcc 	andi	r2,r2,255
 8000a28:	e13ffd17 	ldw	r4,-12(fp)
 8000a2c:	100b883a 	mov	r5,r2
 8000a30:	8000b6c0 	call	8000b6c <_ZN8WiFiUart7write_sEh>

int WiFiUart::send_data(const char *data, int length)
{
    int count;

	for (count = 0; count < length; count++) {
 8000a34:	e0bf0217 	ldw	r2,-1016(fp)
 8000a38:	10800044 	addi	r2,r2,1
 8000a3c:	e0bf0215 	stw	r2,-1016(fp)
 8000a40:	e0ff0217 	ldw	r3,-1016(fp)
 8000a44:	e0bfff17 	ldw	r2,-4(fp)
 8000a48:	18bff216 	blt	r3,r2,8000a14 <__alt_data_end+0xfc000a14>
		write_s(data[count]);
	}

    char buffer[1000];
    count = 0;
 8000a4c:	e03f0215 	stw	zero,-1016(fp)

    while (read_ready()) {
 8000a50:	00000a06 	br	8000a7c <_ZN8WiFiUart9send_dataEPKci+0x8c>
        // read unwanted char out of fifo receiver buffer
        buffer[count] = read_s();
 8000a54:	e13ffd17 	ldw	r4,-12(fp)
 8000a58:	8000c240 	call	8000c24 <_ZN8WiFiUart6read_sEv>
 8000a5c:	1009883a 	mov	r4,r2
 8000a60:	e0ff0304 	addi	r3,fp,-1012
 8000a64:	e0bf0217 	ldw	r2,-1016(fp)
 8000a68:	1885883a 	add	r2,r3,r2
 8000a6c:	11000005 	stb	r4,0(r2)
        count++;
 8000a70:	e0bf0217 	ldw	r2,-1016(fp)
 8000a74:	10800044 	addi	r2,r2,1
 8000a78:	e0bf0215 	stw	r2,-1016(fp)
	}

    char buffer[1000];
    count = 0;

    while (read_ready()) {
 8000a7c:	e13ffd17 	ldw	r4,-12(fp)
 8000a80:	8000c840 	call	8000c84 <_ZN8WiFiUart10read_readyEv>
 8000a84:	1004c03a 	cmpne	r2,r2,zero
 8000a88:	10803fcc 	andi	r2,r2,255
 8000a8c:	103ff11e 	bne	r2,zero,8000a54 <__alt_data_end+0xfc000a54>
        // read unwanted char out of fifo receiver buffer
        buffer[count] = read_s();
        count++;
    }

    if (strstr(buffer, "SEND OK") != NULL) {
 8000a90:	e0bf0304 	addi	r2,fp,-1012
 8000a94:	1009883a 	mov	r4,r2
 8000a98:	014200b4 	movhi	r5,2050
 8000a9c:	29768904 	addi	r5,r5,-9692
 8000aa0:	8004e700 	call	8004e70 <strstr>
 8000aa4:	10000226 	beq	r2,zero,8000ab0 <_ZN8WiFiUart9send_dataEPKci+0xc0>
        return true;
 8000aa8:	00800044 	movi	r2,1
 8000aac:	00000e06 	br	8000ae8 <_ZN8WiFiUart9send_dataEPKci+0xf8>
    } else if (strstr(buffer, "SEND FAIL") != NULL) {
 8000ab0:	e0bf0304 	addi	r2,fp,-1012
 8000ab4:	1009883a 	mov	r4,r2
 8000ab8:	014200b4 	movhi	r5,2050
 8000abc:	29768b04 	addi	r5,r5,-9684
 8000ac0:	8004e700 	call	8004e70 <strstr>
 8000ac4:	10000726 	beq	r2,zero,8000ae4 <_ZN8WiFiUart9send_dataEPKci+0xf4>
        printf("%s", buffer);
 8000ac8:	e0bf0304 	addi	r2,fp,-1012
 8000acc:	010200b4 	movhi	r4,2050
 8000ad0:	21365f04 	addi	r4,r4,-9860
 8000ad4:	100b883a 	mov	r5,r2
 8000ad8:	80042040 	call	8004204 <printf>
        return false;
 8000adc:	0005883a 	mov	r2,zero
 8000ae0:	00000106 	br	8000ae8 <_ZN8WiFiUart9send_dataEPKci+0xf8>
    }

    return false;
 8000ae4:	0005883a 	mov	r2,zero
}
 8000ae8:	e037883a 	mov	sp,fp
 8000aec:	dfc00117 	ldw	ra,4(sp)
 8000af0:	df000017 	ldw	fp,0(sp)
 8000af4:	dec00204 	addi	sp,sp,8
 8000af8:	f800283a 	ret

08000afc <_ZN8WiFiUart4getsEPci>:


void WiFiUart::gets(char *buffer, int length)
{
 8000afc:	defff904 	addi	sp,sp,-28
 8000b00:	dfc00615 	stw	ra,24(sp)
 8000b04:	df000515 	stw	fp,20(sp)
 8000b08:	dc000415 	stw	r16,16(sp)
 8000b0c:	df000504 	addi	fp,sp,20
 8000b10:	e13ffc15 	stw	r4,-16(fp)
 8000b14:	e17ffd15 	stw	r5,-12(fp)
 8000b18:	e1bffe15 	stw	r6,-8(fp)
	int count;

    for (count = 0; count < length; count++) {
 8000b1c:	e03ffb15 	stw	zero,-20(fp)
 8000b20:	00000906 	br	8000b48 <_ZN8WiFiUart4getsEPci+0x4c>
		buffer[count] = read_s();
 8000b24:	e0bffb17 	ldw	r2,-20(fp)
 8000b28:	e0fffd17 	ldw	r3,-12(fp)
 8000b2c:	18a1883a 	add	r16,r3,r2
 8000b30:	e13ffc17 	ldw	r4,-16(fp)
 8000b34:	8000c240 	call	8000c24 <_ZN8WiFiUart6read_sEv>
 8000b38:	80800005 	stb	r2,0(r16)

void WiFiUart::gets(char *buffer, int length)
{
	int count;

    for (count = 0; count < length; count++) {
 8000b3c:	e0bffb17 	ldw	r2,-20(fp)
 8000b40:	10800044 	addi	r2,r2,1
 8000b44:	e0bffb15 	stw	r2,-20(fp)
 8000b48:	e0fffb17 	ldw	r3,-20(fp)
 8000b4c:	e0bffe17 	ldw	r2,-8(fp)
 8000b50:	18bff416 	blt	r3,r2,8000b24 <__alt_data_end+0xfc000b24>
		buffer[count] = read_s();
	}
}
 8000b54:	e6ffff04 	addi	sp,fp,-4
 8000b58:	dfc00217 	ldw	ra,8(sp)
 8000b5c:	df000117 	ldw	fp,4(sp)
 8000b60:	dc000017 	ldw	r16,0(sp)
 8000b64:	dec00304 	addi	sp,sp,12
 8000b68:	f800283a 	ret

08000b6c <_ZN8WiFiUart7write_sEh>:


int WiFiUart::write_s(alt_u8 data)
{
 8000b6c:	defffb04 	addi	sp,sp,-20
 8000b70:	dfc00415 	stw	ra,16(sp)
 8000b74:	df000315 	stw	fp,12(sp)
 8000b78:	df000304 	addi	fp,sp,12
 8000b7c:	e13ffe15 	stw	r4,-8(fp)
 8000b80:	2805883a 	mov	r2,r5
 8000b84:	e0bfff05 	stb	r2,-4(fp)
    alt_up_rs232_disable_read_interrupt(RS232_DEV);
 8000b88:	e0bffe17 	ldw	r2,-8(fp)
 8000b8c:	10800117 	ldw	r2,4(r2)
 8000b90:	1009883a 	mov	r4,r2
 8000b94:	801c6640 	call	801c664 <alt_up_rs232_disable_read_interrupt>

    int result = 0;
 8000b98:	e03ffd15 	stw	zero,-12(fp)
    WRITE_FIFO_SPACE = alt_up_rs232_get_available_space_in_write_FIFO(RS232_DEV);
 8000b9c:	e0bffe17 	ldw	r2,-8(fp)
 8000ba0:	10800117 	ldw	r2,4(r2)
 8000ba4:	1009883a 	mov	r4,r2
 8000ba8:	801c7000 	call	801c700 <alt_up_rs232_get_available_space_in_write_FIFO>
 8000bac:	1007883a 	mov	r3,r2
 8000bb0:	e0bffe17 	ldw	r2,-8(fp)
 8000bb4:	10c00215 	stw	r3,8(r2)

    if (WRITE_FIFO_SPACE >= WRITE_FIFO_EMPTY) {
 8000bb8:	e0bffe17 	ldw	r2,-8(fp)
 8000bbc:	10800217 	ldw	r2,8(r2)
 8000bc0:	10802030 	cmpltui	r2,r2,128
 8000bc4:	10000d1e 	bne	r2,zero,8000bfc <_ZN8WiFiUart7write_sEh+0x90>
        alt_up_rs232_write_data(RS232_DEV, data);
 8000bc8:	e0bffe17 	ldw	r2,-8(fp)
 8000bcc:	10c00117 	ldw	r3,4(r2)
 8000bd0:	e0bfff03 	ldbu	r2,-4(fp)
 8000bd4:	1809883a 	mov	r4,r3
 8000bd8:	100b883a 	mov	r5,r2
 8000bdc:	801c7800 	call	801c780 <alt_up_rs232_write_data>
        printf("%s", data);
 8000be0:	e0bfff03 	ldbu	r2,-4(fp)
 8000be4:	010200b4 	movhi	r4,2050
 8000be8:	21365f04 	addi	r4,r4,-9860
 8000bec:	100b883a 	mov	r5,r2
 8000bf0:	80042040 	call	8004204 <printf>
        result = 1;
 8000bf4:	00800044 	movi	r2,1
 8000bf8:	e0bffd15 	stw	r2,-12(fp)
    }

    // Enable the read interrupts for the RS232 UART core 
    alt_up_rs232_enable_read_interrupt(RS232_DEV);
 8000bfc:	e0bffe17 	ldw	r2,-8(fp)
 8000c00:	10800117 	ldw	r2,4(r2)
 8000c04:	1009883a 	mov	r4,r2
 8000c08:	801c60c0 	call	801c60c <alt_up_rs232_enable_read_interrupt>
    return result;
 8000c0c:	e0bffd17 	ldw	r2,-12(fp)
}
 8000c10:	e037883a 	mov	sp,fp
 8000c14:	dfc00117 	ldw	ra,4(sp)
 8000c18:	df000017 	ldw	fp,0(sp)
 8000c1c:	dec00204 	addi	sp,sp,8
 8000c20:	f800283a 	ret

08000c24 <_ZN8WiFiUart6read_sEv>:


unsigned char WiFiUart::read_s(void)
{
 8000c24:	defffc04 	addi	sp,sp,-16
 8000c28:	dfc00315 	stw	ra,12(sp)
 8000c2c:	df000215 	stw	fp,8(sp)
 8000c30:	df000204 	addi	fp,sp,8
 8000c34:	e13fff15 	stw	r4,-4(fp)
    while (!read_ready()) {}    // Wait for data to be available to read
 8000c38:	0001883a 	nop
 8000c3c:	e13fff17 	ldw	r4,-4(fp)
 8000c40:	8000c840 	call	8000c84 <_ZN8WiFiUart10read_readyEv>
 8000c44:	1005003a 	cmpeq	r2,r2,zero
 8000c48:	10803fcc 	andi	r2,r2,255
 8000c4c:	103ffb1e 	bne	r2,zero,8000c3c <__alt_data_end+0xfc000c3c>

    alt_u8 buffer;
    alt_u8 parity_error;

    alt_up_rs232_read_data(RS232_DEV, &buffer, &parity_error);
 8000c50:	e0bfff17 	ldw	r2,-4(fp)
 8000c54:	10c00117 	ldw	r3,4(r2)
 8000c58:	e0bffe44 	addi	r2,fp,-7
 8000c5c:	1809883a 	mov	r4,r3
 8000c60:	e17ffe04 	addi	r5,fp,-8
 8000c64:	100d883a 	mov	r6,r2
 8000c68:	801c7c00 	call	801c7c0 <alt_up_rs232_read_data>

    return (unsigned char) buffer;
 8000c6c:	e0bffe03 	ldbu	r2,-8(fp)
}
 8000c70:	e037883a 	mov	sp,fp
 8000c74:	dfc00117 	ldw	ra,4(sp)
 8000c78:	df000017 	ldw	fp,0(sp)
 8000c7c:	dec00204 	addi	sp,sp,8
 8000c80:	f800283a 	ret

08000c84 <_ZN8WiFiUart10read_readyEv>:


int WiFiUart::read_ready(void)
{
 8000c84:	defffc04 	addi	sp,sp,-16
 8000c88:	dfc00315 	stw	ra,12(sp)
 8000c8c:	df000215 	stw	fp,8(sp)
 8000c90:	df000204 	addi	fp,sp,8
 8000c94:	e13fff15 	stw	r4,-4(fp)
    alt_u16 read_fifo_used = alt_up_rs232_get_used_space_in_read_FIFO(RS232_DEV);
 8000c98:	e0bfff17 	ldw	r2,-4(fp)
 8000c9c:	10800117 	ldw	r2,4(r2)
 8000ca0:	1009883a 	mov	r4,r2
 8000ca4:	801c6c00 	call	801c6c0 <alt_up_rs232_get_used_space_in_read_FIFO>
 8000ca8:	e0bffe0d 	sth	r2,-8(fp)
    return (read_fifo_used > READ_FIFO_EMPTY);
 8000cac:	e0bffe0b 	ldhu	r2,-8(fp)
 8000cb0:	1004c03a 	cmpne	r2,r2,zero
 8000cb4:	10803fcc 	andi	r2,r2,255
}
 8000cb8:	e037883a 	mov	sp,fp
 8000cbc:	dfc00117 	ldw	ra,4(sp)
 8000cc0:	df000017 	ldw	fp,0(sp)
 8000cc4:	dec00204 	addi	sp,sp,8
 8000cc8:	f800283a 	ret

08000ccc <_ZN8WiFiUart5flushEv>:


void WiFiUart::flush(void)
{
 8000ccc:	defffd04 	addi	sp,sp,-12
 8000cd0:	dfc00215 	stw	ra,8(sp)
 8000cd4:	df000115 	stw	fp,4(sp)
 8000cd8:	df000104 	addi	fp,sp,4
 8000cdc:	e13fff15 	stw	r4,-4(fp)
    while (read_ready()) {
 8000ce0:	00000206 	br	8000cec <_ZN8WiFiUart5flushEv+0x20>
        // read unwanted char out of fifo receiver buffer
        read_s();
 8000ce4:	e13fff17 	ldw	r4,-4(fp)
 8000ce8:	8000c240 	call	8000c24 <_ZN8WiFiUart6read_sEv>
}


void WiFiUart::flush(void)
{
    while (read_ready()) {
 8000cec:	e13fff17 	ldw	r4,-4(fp)
 8000cf0:	8000c840 	call	8000c84 <_ZN8WiFiUart10read_readyEv>
 8000cf4:	1004c03a 	cmpne	r2,r2,zero
 8000cf8:	10803fcc 	andi	r2,r2,255
 8000cfc:	103ff91e 	bne	r2,zero,8000ce4 <__alt_data_end+0xfc000ce4>
        // read unwanted char out of fifo receiver buffer
        read_s();
    }
    return; // no more characters so return 
 8000d00:	0001883a 	nop
 8000d04:	e037883a 	mov	sp,fp
 8000d08:	dfc00117 	ldw	ra,4(sp)
 8000d0c:	df000017 	ldw	fp,0(sp)
 8000d10:	dec00204 	addi	sp,sp,8
 8000d14:	f800283a 	ret

08000d18 <alt_dma_txchan_close>:
 * system that it has finished with a given DMA transmit channel. This is only
 * provided for completness.
 */

static ALT_INLINE int alt_dma_txchan_close (alt_dma_txchan dma)
{
 8000d18:	defffe04 	addi	sp,sp,-8
 8000d1c:	df000115 	stw	fp,4(sp)
 8000d20:	df000104 	addi	fp,sp,4
 8000d24:	e13fff15 	stw	r4,-4(fp)
  return 0;
 8000d28:	0005883a 	mov	r2,zero
}
 8000d2c:	e037883a 	mov	sp,fp
 8000d30:	df000017 	ldw	fp,0(sp)
 8000d34:	dec00104 	addi	sp,sp,4
 8000d38:	f800283a 	ret

08000d3c <alt_dma_txchan_send>:
static ALT_INLINE int alt_dma_txchan_send (alt_dma_txchan dma, 
             const void* from, 
             alt_u32 length,
             alt_txchan_done* done, 
             void* handle)
{
 8000d3c:	defff904 	addi	sp,sp,-28
 8000d40:	dfc00615 	stw	ra,24(sp)
 8000d44:	df000515 	stw	fp,20(sp)
 8000d48:	df000504 	addi	fp,sp,20
 8000d4c:	e13ffc15 	stw	r4,-16(fp)
 8000d50:	e17ffd15 	stw	r5,-12(fp)
 8000d54:	e1bffe15 	stw	r6,-8(fp)
 8000d58:	e1ffff15 	stw	r7,-4(fp)
  return dma ? dma->dma_send (dma, 
        from, 
        length,
        done, 
        handle) : -ENODEV;
 8000d5c:	e0bffc17 	ldw	r2,-16(fp)
 8000d60:	10000a26 	beq	r2,zero,8000d8c <alt_dma_txchan_send+0x50>
 8000d64:	e0bffc17 	ldw	r2,-16(fp)
 8000d68:	10800417 	ldw	r2,16(r2)
 8000d6c:	e0c00217 	ldw	r3,8(fp)
 8000d70:	d8c00015 	stw	r3,0(sp)
 8000d74:	e13ffc17 	ldw	r4,-16(fp)
 8000d78:	e17ffd17 	ldw	r5,-12(fp)
 8000d7c:	e1bffe17 	ldw	r6,-8(fp)
 8000d80:	e1ffff17 	ldw	r7,-4(fp)
 8000d84:	103ee83a 	callr	r2
 8000d88:	00000106 	br	8000d90 <alt_dma_txchan_send+0x54>
 8000d8c:	00bffb44 	movi	r2,-19
}
 8000d90:	e037883a 	mov	sp,fp
 8000d94:	dfc00117 	ldw	ra,4(sp)
 8000d98:	df000017 	ldw	fp,0(sp)
 8000d9c:	dec00204 	addi	sp,sp,8
 8000da0:	f800283a 	ret

08000da4 <alt_dma_txchan_ioctl>:
 */

static ALT_INLINE int alt_dma_txchan_ioctl (alt_dma_txchan dma, 
              int            req, 
              void*          arg)
{
 8000da4:	defffb04 	addi	sp,sp,-20
 8000da8:	dfc00415 	stw	ra,16(sp)
 8000dac:	df000315 	stw	fp,12(sp)
 8000db0:	df000304 	addi	fp,sp,12
 8000db4:	e13ffd15 	stw	r4,-12(fp)
 8000db8:	e17ffe15 	stw	r5,-8(fp)
 8000dbc:	e1bfff15 	stw	r6,-4(fp)
  return dma ? dma->ioctl (dma, req, arg) : -ENODEV;
 8000dc0:	e0bffd17 	ldw	r2,-12(fp)
 8000dc4:	10000726 	beq	r2,zero,8000de4 <alt_dma_txchan_ioctl+0x40>
 8000dc8:	e0bffd17 	ldw	r2,-12(fp)
 8000dcc:	10800517 	ldw	r2,20(r2)
 8000dd0:	e13ffd17 	ldw	r4,-12(fp)
 8000dd4:	e17ffe17 	ldw	r5,-8(fp)
 8000dd8:	e1bfff17 	ldw	r6,-4(fp)
 8000ddc:	103ee83a 	callr	r2
 8000de0:	00000106 	br	8000de8 <alt_dma_txchan_ioctl+0x44>
 8000de4:	00bffb44 	movi	r2,-19
}
 8000de8:	e037883a 	mov	sp,fp
 8000dec:	dfc00117 	ldw	ra,4(sp)
 8000df0:	df000017 	ldw	fp,0(sp)
 8000df4:	dec00204 	addi	sp,sp,8
 8000df8:	f800283a 	ret

08000dfc <_Z8dma_donePv>:
volatile int dma_complete = 0; /* flag used to indicate the transaction is complete */


/* function that is called when the transaction completes */
void dma_done(void* handle)
{
 8000dfc:	defffe04 	addi	sp,sp,-8
 8000e00:	df000115 	stw	fp,4(sp)
 8000e04:	df000104 	addi	fp,sp,4
 8000e08:	e13fff15 	stw	r4,-4(fp)
    dma_complete = 1;
 8000e0c:	00800044 	movi	r2,1
 8000e10:	d0a76215 	stw	r2,-25208(gp)
}
 8000e14:	e037883a 	mov	sp,fp
 8000e18:	df000017 	ldw	fp,0(sp)
 8000e1c:	dec00104 	addi	sp,sp,4
 8000e20:	f800283a 	ret

08000e24 <_Z9start_dmav>:


int start_dma(void)
{
 8000e24:	defffc04 	addi	sp,sp,-16
 8000e28:	dfc00315 	stw	ra,12(sp)
 8000e2c:	df000215 	stw	fp,8(sp)
 8000e30:	df000204 	addi	fp,sp,8
    alt_dma_txchan tx;

    /* Obtain a handle for the device */
    if ((tx = alt_dma_txchan_open (DMA_FPGA_TO_HPS_NAME)) == NULL)
 8000e34:	010200b4 	movhi	r4,2050
 8000e38:	21369504 	addi	r4,r4,-9644
 8000e3c:	801a1600 	call	801a160 <alt_dma_txchan_open>
 8000e40:	e0bfff15 	stw	r2,-4(fp)
 8000e44:	e0bfff17 	ldw	r2,-4(fp)
 8000e48:	1005003a 	cmpeq	r2,r2,zero
 8000e4c:	10803fcc 	andi	r2,r2,255
 8000e50:	10000526 	beq	r2,zero,8000e68 <_Z9start_dmav+0x44>
    {
        printf ("Error: failed to open device\n");
 8000e54:	010200b4 	movhi	r4,2050
 8000e58:	21369b04 	addi	r4,r4,-9620
 8000e5c:	80043180 	call	8004318 <puts>
        exit (1);
 8000e60:	01000044 	movi	r4,1
 8000e64:	80038ac0 	call	80038ac <exit>
    }
    else
    {
        alt_dma_txchan_ioctl(tx, ALT_DMA_TX_ONLY_ON, dnn_acc);
 8000e68:	d0a00617 	ldw	r2,-32744(gp)
 8000e6c:	e13fff17 	ldw	r4,-4(fp)
 8000e70:	014000c4 	movi	r5,3
 8000e74:	100d883a 	mov	r6,r2
 8000e78:	8000da40 	call	8000da4 <alt_dma_txchan_ioctl>

        /* Post the transmit request */
        if (alt_dma_txchan_send (tx, tag_id, 1, dma_done, NULL) < 0)
 8000e7c:	d0a00717 	ldw	r2,-32740(gp)
 8000e80:	d8000015 	stw	zero,0(sp)
 8000e84:	e13fff17 	ldw	r4,-4(fp)
 8000e88:	100b883a 	mov	r5,r2
 8000e8c:	01800044 	movi	r6,1
 8000e90:	01c20034 	movhi	r7,2048
 8000e94:	39c37f04 	addi	r7,r7,3580
 8000e98:	8000d3c0 	call	8000d3c <alt_dma_txchan_send>
 8000e9c:	1004d7fa 	srli	r2,r2,31
 8000ea0:	10803fcc 	andi	r2,r2,255
 8000ea4:	10000526 	beq	r2,zero,8000ebc <_Z9start_dmav+0x98>
        {
            printf ("Error: failed to post transmit request\n");
 8000ea8:	010200b4 	movhi	r4,2050
 8000eac:	2136a304 	addi	r4,r4,-9588
 8000eb0:	80043180 	call	8004318 <puts>
            exit (1);
 8000eb4:	01000044 	movi	r4,1
 8000eb8:	80038ac0 	call	80038ac <exit>
        }
        /* Wait for the transaction to complete */
        while (!dma_complete);
 8000ebc:	0001883a 	nop
 8000ec0:	d0a76217 	ldw	r2,-25208(gp)
 8000ec4:	1005003a 	cmpeq	r2,r2,zero
 8000ec8:	10803fcc 	andi	r2,r2,255
 8000ecc:	103ffc1e 	bne	r2,zero,8000ec0 <__alt_data_end+0xfc000ec0>
        
        printf ("Transaction complete\n");
 8000ed0:	010200b4 	movhi	r4,2050
 8000ed4:	2136ad04 	addi	r4,r4,-9548
 8000ed8:	80043180 	call	8004318 <puts>
        alt_dma_txchan_close (tx);
 8000edc:	e13fff17 	ldw	r4,-4(fp)
 8000ee0:	8000d180 	call	8000d18 <alt_dma_txchan_close>
    }

    return dma_complete;
 8000ee4:	d0a76217 	ldw	r2,-25208(gp)
 8000ee8:	e037883a 	mov	sp,fp
 8000eec:	dfc00117 	ldw	ra,4(sp)
 8000ef0:	df000017 	ldw	fp,0(sp)
 8000ef4:	dec00204 	addi	sp,sp,8
 8000ef8:	f800283a 	ret

08000efc <main>:
volatile int *id = (volatile int *) 0x0A900000; /* tag id */
volatile int *res = (volatile int *) 0x0B000000; /* dnn result */


int main()
{
 8000efc:	deffe004 	addi	sp,sp,-128
 8000f00:	dfc01f15 	stw	ra,124(sp)
 8000f04:	df001e15 	stw	fp,120(sp)
 8000f08:	ddc01d15 	stw	r23,116(sp)
 8000f0c:	dd801c15 	stw	r22,112(sp)
 8000f10:	dd401b15 	stw	r21,108(sp)
 8000f14:	dd001a15 	stw	r20,104(sp)
 8000f18:	dcc01915 	stw	r19,100(sp)
 8000f1c:	dc801815 	stw	r18,96(sp)
 8000f20:	dc401715 	stw	r17,92(sp)
 8000f24:	dc001615 	stw	r16,88(sp)
 8000f28:	df001e04 	addi	fp,sp,120
 8000f2c:	00820034 	movhi	r2,2048
 8000f30:	1087d504 	addi	r2,r2,8020
 8000f34:	e0bfee15 	stw	r2,-72(fp)
 8000f38:	008200b4 	movhi	r2,2050
 8000f3c:	10b61d04 	addi	r2,r2,-10124
 8000f40:	e0bfef15 	stw	r2,-68(fp)
 8000f44:	e0bff004 	addi	r2,fp,-64
 8000f48:	e0ffe204 	addi	r3,fp,-120
 8000f4c:	10c00015 	stw	r3,0(r2)
 8000f50:	00c20034 	movhi	r3,2048
 8000f54:	18c44104 	addi	r3,r3,4356
 8000f58:	10c00115 	stw	r3,4(r2)
 8000f5c:	16c00215 	stw	sp,8(r2)
 8000f60:	e0bfe804 	addi	r2,fp,-96
 8000f64:	1009883a 	mov	r4,r2
 8000f68:	800357c0 	call	800357c <_Unwind_SjLj_Register>
  printf("NIOS II SOFTWARE APPLICATION\n");
 8000f6c:	010200b4 	movhi	r4,2050
 8000f70:	00bfffc4 	movi	r2,-1
 8000f74:	e0bfe915 	stw	r2,-92(fp)
 8000f78:	2136b304 	addi	r4,r4,-9524
 8000f7c:	80043180 	call	8004318 <puts>
  printf("===========================================\n\n");
 8000f80:	010200b4 	movhi	r4,2050
 8000f84:	2136bb04 	addi	r4,r4,-9492
 8000f88:	80043180 	call	8004318 <puts>

  BTUart BT_UART;
 8000f8c:	e0bfe504 	addi	r2,fp,-108
 8000f90:	1009883a 	mov	r4,r2
 8000f94:	800026c0 	call	800026c <_ZN6BTUartC1Ev>
  int dma_done = 0, count = 0;
 8000f98:	e03fe315 	stw	zero,-116(fp)
 8000f9c:	e03fe215 	stw	zero,-120(fp)

  int init_success = BT_UART.open(BT_RS232_UART_NAME);
 8000fa0:	e0bfe504 	addi	r2,fp,-108
 8000fa4:	1009883a 	mov	r4,r2
 8000fa8:	014200b4 	movhi	r5,2050
 8000fac:	00800044 	movi	r2,1
 8000fb0:	e0bfe915 	stw	r2,-92(fp)
 8000fb4:	2976c704 	addi	r5,r5,-9444
 8000fb8:	800031c0 	call	800031c <_ZN6BTUart4openEPKc>
 8000fbc:	e0bfe415 	stw	r2,-112(fp)
  BT_UART.flush();
 8000fc0:	e0bfe504 	addi	r2,fp,-108
 8000fc4:	1009883a 	mov	r4,r2
 8000fc8:	80005d80 	call	80005d8 <_ZN6BTUart5flushEv>

  if (init_success)
 8000fcc:	e0bfe417 	ldw	r2,-112(fp)
 8000fd0:	10000326 	beq	r2,zero,8000fe0 <main+0xe4>
    printf("INIT SUCCESS: RS232 UART port.\n");
 8000fd4:	010200b4 	movhi	r4,2050
 8000fd8:	2136cc04 	addi	r4,r4,-9424
 8000fdc:	80043180 	call	8004318 <puts>


  printf("START READING FROM UART FIFO ...\n");
 8000fe0:	010200b4 	movhi	r4,2050
 8000fe4:	00800044 	movi	r2,1
 8000fe8:	e0bfe915 	stw	r2,-92(fp)
 8000fec:	2136d404 	addi	r4,r4,-9392
 8000ff0:	80043180 	call	8004318 <puts>

  while (1) {
    if (BT_UART.read_ready()) {
 8000ff4:	e0ffe504 	addi	r3,fp,-108
 8000ff8:	00800044 	movi	r2,1
 8000ffc:	e0bfe915 	stw	r2,-92(fp)
 8001000:	1809883a 	mov	r4,r3
 8001004:	80005900 	call	8000590 <_ZN6BTUart10read_readyEv>
 8001008:	1004c03a 	cmpne	r2,r2,zero
 800100c:	10803fcc 	andi	r2,r2,255
 8001010:	103ff826 	beq	r2,zero,8000ff4 <__alt_data_end+0xfc000ff4>
      if (count < INPUT_SIZE) {
 8001014:	e0bfe217 	ldw	r2,-120(fp)
 8001018:	10815e08 	cmpgei	r2,r2,1400
 800101c:	10000f1e 	bne	r2,zero,800105c <main+0x160>
        input[count] = BT_UART.read_s();  // Store received image data in 'input' array
 8001020:	d0e00817 	ldw	r3,-32736(gp)
 8001024:	e0bfe217 	ldw	r2,-120(fp)
 8001028:	1085883a 	add	r2,r2,r2
 800102c:	1085883a 	add	r2,r2,r2
 8001030:	1885883a 	add	r2,r3,r2
 8001034:	e0bff515 	stw	r2,-44(fp)
 8001038:	e0bfe504 	addi	r2,fp,-108
 800103c:	1009883a 	mov	r4,r2
 8001040:	80003840 	call	8000384 <_ZN6BTUart6read_sEv>
 8001044:	e0fff517 	ldw	r3,-44(fp)
 8001048:	18800015 	stw	r2,0(r3)
        count++;
 800104c:	e0bfe217 	ldw	r2,-120(fp)
 8001050:	10800044 	addi	r2,r2,1
 8001054:	e0bfe215 	stw	r2,-120(fp)
 8001058:	003fe606 	br	8000ff4 <__alt_data_end+0xfc000ff4>
      } else {
        while (!BT_UART.read_ready()) {} // Wait for next integer (dynamodb entry id: require to store result in the correct entry in db)
 800105c:	0001883a 	nop
 8001060:	e0ffe504 	addi	r3,fp,-108
 8001064:	00800044 	movi	r2,1
 8001068:	e0bfe915 	stw	r2,-92(fp)
 800106c:	1809883a 	mov	r4,r3
 8001070:	80005900 	call	8000590 <_ZN6BTUart10read_readyEv>
 8001074:	1005003a 	cmpeq	r2,r2,zero
 8001078:	10803fcc 	andi	r2,r2,255
 800107c:	103ff81e 	bne	r2,zero,8001060 <__alt_data_end+0xfc001060>
        id[0] = BT_UART.read_s();
 8001080:	d0a00917 	ldw	r2,-32732(gp)
 8001084:	e0bff615 	stw	r2,-40(fp)
 8001088:	e0bfe504 	addi	r2,fp,-108
 800108c:	1009883a 	mov	r4,r2
 8001090:	80003840 	call	8000384 <_ZN6BTUart6read_sEv>
 8001094:	e0fff617 	ldw	r3,-40(fp)
 8001098:	18800015 	stw	r2,0(r3)
        printf("\nTAG ID: %d\n", id[0]);
 800109c:	d0a00917 	ldw	r2,-32732(gp)
 80010a0:	10800017 	ldw	r2,0(r2)
 80010a4:	010200b4 	movhi	r4,2050
 80010a8:	2136dd04 	addi	r4,r4,-9356
 80010ac:	100b883a 	mov	r5,r2
 80010b0:	80042040 	call	8004204 <printf>

        // Write to DMA control port slave address to start DNN accelerator on HPS side
        dma_done = start_dma();
 80010b4:	8000e240 	call	8000e24 <_Z9start_dmav>
 80010b8:	e0bfe315 	stw	r2,-116(fp)

        if (dma_done)
 80010bc:	e0bfe317 	ldw	r2,-116(fp)
 80010c0:	10000226 	beq	r2,zero,80010cc <main+0x1d0>
          dma_done = 0;
 80010c4:	e03fe315 	stw	zero,-116(fp)
 80010c8:	00000506 	br	80010e0 <main+0x1e4>
        else
          printf("DMA ERROR: Start DMA falied.\n");
 80010cc:	010200b4 	movhi	r4,2050
 80010d0:	00800044 	movi	r2,1
 80010d4:	e0bfe915 	stw	r2,-92(fp)
 80010d8:	2136e104 	addi	r4,r4,-9340
 80010dc:	80043180 	call	8004318 <puts>

        while (res != id) {} // wait for dnn to finish
 80010e0:	0001883a 	nop
 80010e4:	d0e00a17 	ldw	r3,-32728(gp)
 80010e8:	d0a00917 	ldw	r2,-32732(gp)
 80010ec:	18bffd1e 	bne	r3,r2,80010e4 <__alt_data_end+0xfc0010e4>
        wifi_task();
 80010f0:	00800044 	movi	r2,1
 80010f4:	e0bfe915 	stw	r2,-92(fp)
 80010f8:	80011340 	call	8001134 <_Z9wifi_taskv>

        count = 0;  // Reset counter, wait for next image
 80010fc:	e03fe215 	stw	zero,-120(fp)
 8001100:	003fbc06 	br	8000ff4 <__alt_data_end+0xfc000ff4>
 8001104:	e7001e04 	addi	fp,fp,120
 8001108:	e0bfea17 	ldw	r2,-88(fp)
 800110c:	e0bff715 	stw	r2,-36(fp)
      }
    }
  }

  return 0;
 8001110:	e0bfe504 	addi	r2,fp,-108
 8001114:	e03fe915 	stw	zero,-92(fp)
 8001118:	1009883a 	mov	r4,r2
 800111c:	800029c0 	call	800029c <_ZN6BTUartD1Ev>
 8001120:	e0fff717 	ldw	r3,-36(fp)
 8001124:	00bfffc4 	movi	r2,-1
 8001128:	e0bfe915 	stw	r2,-92(fp)
 800112c:	1809883a 	mov	r4,r3
 8001130:	80037780 	call	8003778 <_Unwind_SjLj_Resume>

08001134 <_Z9wifi_taskv>:
char *patch_dnn_res(char *str);
WiFiUart WiFi_UART;


int wifi_task()
{
 8001134:	deffe304 	addi	sp,sp,-116
 8001138:	dfc01c15 	stw	ra,112(sp)
 800113c:	df001b15 	stw	fp,108(sp)
 8001140:	df001b04 	addi	fp,sp,108
    int open_success = WiFi_UART.open(WIFI_RS232_UART_NAME);
 8001144:	010200b4 	movhi	r4,2050
 8001148:	2107ee04 	addi	r4,r4,8120
 800114c:	014200b4 	movhi	r5,2050
 8001150:	2976e904 	addi	r5,r5,-9308
 8001154:	80006d40 	call	80006d4 <_ZN8WiFiUart4openEPKc>
 8001158:	e0bfe515 	stw	r2,-108(fp)
    WiFi_UART.flush();
 800115c:	010200b4 	movhi	r4,2050
 8001160:	2107ee04 	addi	r4,r4,8120
 8001164:	8000ccc0 	call	8000ccc <_ZN8WiFiUart5flushEv>

    if (!open_success) {
 8001168:	e0bfe517 	ldw	r2,-108(fp)
 800116c:	1000051e 	bne	r2,zero,8001184 <_Z9wifi_taskv+0x50>
        printf("OPEN ERROR: RS232 UART port fail to open.\n");
 8001170:	010200b4 	movhi	r4,2050
 8001174:	2136ef04 	addi	r4,r4,-9284
 8001178:	80043180 	call	8004318 <puts>
        return 0;
 800117c:	0005883a 	mov	r2,zero
 8001180:	00001406 	br	80011d4 <_Z9wifi_taskv+0xa0>
    }

    int connect_success = WiFi_UART.connect();
 8001184:	010200b4 	movhi	r4,2050
 8001188:	2107ee04 	addi	r4,r4,8120
 800118c:	800073c0 	call	800073c <_ZN8WiFiUart7connectEv>
 8001190:	e0bfe615 	stw	r2,-104(fp)

    if (!connect_success)
 8001194:	e0bfe617 	ldw	r2,-104(fp)
 8001198:	1000021e 	bne	r2,zero,80011a4 <_Z9wifi_taskv+0x70>
        return 0;
 800119c:	0005883a 	mov	r2,zero
 80011a0:	00000c06 	br	80011d4 <_Z9wifi_taskv+0xa0>

    char str[100];
    if (patch_dnn_res(str) != NULL)
 80011a4:	e0bfe704 	addi	r2,fp,-100
 80011a8:	1009883a 	mov	r4,r2
 80011ac:	80012280 	call	8001228 <_Z13patch_dnn_resPc>
 80011b0:	1004c03a 	cmpne	r2,r2,zero
 80011b4:	10803fcc 	andi	r2,r2,255
 80011b8:	10000526 	beq	r2,zero,80011d0 <_Z9wifi_taskv+0x9c>
        printf("Response: %s\n", str);
 80011bc:	e0bfe704 	addi	r2,fp,-100
 80011c0:	010200b4 	movhi	r4,2050
 80011c4:	2136fa04 	addi	r4,r4,-9240
 80011c8:	100b883a 	mov	r5,r2
 80011cc:	80042040 	call	8004204 <printf>

    return 0;
 80011d0:	0005883a 	mov	r2,zero
}
 80011d4:	e037883a 	mov	sp,fp
 80011d8:	dfc00117 	ldw	ra,4(sp)
 80011dc:	df000017 	ldw	fp,0(sp)
 80011e0:	dec00204 	addi	sp,sp,8
 80011e4:	f800283a 	ret

080011e8 <_Z3strPVi>:
const char *rid_str = str(rid);
const char *result_str = (result) ? "true" : "false";


/* Convert integer to string */
char * str(volatile int *num) {
 80011e8:	defffb04 	addi	sp,sp,-20
 80011ec:	dfc00415 	stw	ra,16(sp)
 80011f0:	df000315 	stw	fp,12(sp)
 80011f4:	df000304 	addi	fp,sp,12
 80011f8:	e13fff15 	stw	r4,-4(fp)
    char snum[5];
    sprintf(snum, "%i", num);
 80011fc:	e13ffd04 	addi	r4,fp,-12
 8001200:	014200b4 	movhi	r5,2050
 8001204:	29773b04 	addi	r5,r5,-8980
 8001208:	e1bfff17 	ldw	r6,-4(fp)
 800120c:	80047400 	call	8004740 <sprintf>
    return snum;
 8001210:	e0bffd04 	addi	r2,fp,-12
}
 8001214:	e037883a 	mov	sp,fp
 8001218:	dfc00117 	ldw	ra,4(sp)
 800121c:	df000017 	ldw	fp,0(sp)
 8001220:	dec00204 	addi	sp,sp,8
 8001224:	f800283a 	ret

08001228 <_Z13patch_dnn_resPc>:


char *patch_dnn_res(char *str)
{
 8001228:	defee604 	addi	sp,sp,-1128
 800122c:	dfc11915 	stw	ra,1124(sp)
 8001230:	df011815 	stw	fp,1120(sp)
 8001234:	dc011715 	stw	r16,1116(sp)
 8001238:	df011804 	addi	fp,sp,1120
 800123c:	e13ffe15 	stw	r4,-8(fp)
    char *patch_result_req;
    patch_result_req = (char *) malloc(strlen(req) + strlen(tagid_str) + strlen(rid_str) + strlen(result_str) + 1); /* make space for the new string */
 8001240:	d0a00f17 	ldw	r2,-32708(gp)
 8001244:	1009883a 	mov	r4,r2
 8001248:	80049680 	call	8004968 <strlen>
 800124c:	1021883a 	mov	r16,r2
 8001250:	d0a76317 	ldw	r2,-25204(gp)
 8001254:	1009883a 	mov	r4,r2
 8001258:	80049680 	call	8004968 <strlen>
 800125c:	80a1883a 	add	r16,r16,r2
 8001260:	d0a76417 	ldw	r2,-25200(gp)
 8001264:	1009883a 	mov	r4,r2
 8001268:	80049680 	call	8004968 <strlen>
 800126c:	80a1883a 	add	r16,r16,r2
 8001270:	d0a76517 	ldw	r2,-25196(gp)
 8001274:	1009883a 	mov	r4,r2
 8001278:	80049680 	call	8004968 <strlen>
 800127c:	8085883a 	add	r2,r16,r2
 8001280:	10800044 	addi	r2,r2,1
 8001284:	1009883a 	mov	r4,r2
 8001288:	80038e40 	call	80038e4 <malloc>
 800128c:	e0beea15 	stw	r2,-1112(fp)
    strcpy(patch_result_req, req);
 8001290:	d0a00f17 	ldw	r2,-32708(gp)
 8001294:	e13eea17 	ldw	r4,-1112(fp)
 8001298:	100b883a 	mov	r5,r2
 800129c:	80048d80 	call	80048d8 <strcpy>
    strcat(patch_result_req, tagid_str);
 80012a0:	d0a76317 	ldw	r2,-25204(gp)
 80012a4:	e13eea17 	ldw	r4,-1112(fp)
 80012a8:	100b883a 	mov	r5,r2
 80012ac:	80047ac0 	call	80047ac <strcat>
    strcat(patch_result_req, "&readingId=");
 80012b0:	e13eea17 	ldw	r4,-1112(fp)
 80012b4:	80049680 	call	8004968 <strlen>
 80012b8:	1007883a 	mov	r3,r2
 80012bc:	e0beea17 	ldw	r2,-1112(fp)
 80012c0:	10c5883a 	add	r2,r2,r3
 80012c4:	00c00984 	movi	r3,38
 80012c8:	10c00005 	stb	r3,0(r2)
 80012cc:	00c01c84 	movi	r3,114
 80012d0:	10c00045 	stb	r3,1(r2)
 80012d4:	00c01944 	movi	r3,101
 80012d8:	10c00085 	stb	r3,2(r2)
 80012dc:	00c01844 	movi	r3,97
 80012e0:	10c000c5 	stb	r3,3(r2)
 80012e4:	00c01904 	movi	r3,100
 80012e8:	10c00105 	stb	r3,4(r2)
 80012ec:	00c01a44 	movi	r3,105
 80012f0:	10c00145 	stb	r3,5(r2)
 80012f4:	00c01b84 	movi	r3,110
 80012f8:	10c00185 	stb	r3,6(r2)
 80012fc:	00c019c4 	movi	r3,103
 8001300:	10c001c5 	stb	r3,7(r2)
 8001304:	00c01244 	movi	r3,73
 8001308:	10c00205 	stb	r3,8(r2)
 800130c:	00c01904 	movi	r3,100
 8001310:	10c00245 	stb	r3,9(r2)
 8001314:	00c00f44 	movi	r3,61
 8001318:	10c00285 	stb	r3,10(r2)
 800131c:	100002c5 	stb	zero,11(r2)
    strcat(patch_result_req, rid_str);
 8001320:	d0a76417 	ldw	r2,-25200(gp)
 8001324:	e13eea17 	ldw	r4,-1112(fp)
 8001328:	100b883a 	mov	r5,r2
 800132c:	80047ac0 	call	80047ac <strcat>
    strcat(patch_result_req, "&poach=");
 8001330:	e13eea17 	ldw	r4,-1112(fp)
 8001334:	80049680 	call	8004968 <strlen>
 8001338:	1007883a 	mov	r3,r2
 800133c:	e0beea17 	ldw	r2,-1112(fp)
 8001340:	10c5883a 	add	r2,r2,r3
 8001344:	00c00984 	movi	r3,38
 8001348:	10c00005 	stb	r3,0(r2)
 800134c:	00c01c04 	movi	r3,112
 8001350:	10c00045 	stb	r3,1(r2)
 8001354:	00c01bc4 	movi	r3,111
 8001358:	10c00085 	stb	r3,2(r2)
 800135c:	00c01844 	movi	r3,97
 8001360:	10c000c5 	stb	r3,3(r2)
 8001364:	00c018c4 	movi	r3,99
 8001368:	10c00105 	stb	r3,4(r2)
 800136c:	00c01a04 	movi	r3,104
 8001370:	10c00145 	stb	r3,5(r2)
 8001374:	00c00f44 	movi	r3,61
 8001378:	10c00185 	stb	r3,6(r2)
 800137c:	100001c5 	stb	zero,7(r2)
    strcat(patch_result_req, result_str);
 8001380:	d0a76517 	ldw	r2,-25196(gp)
 8001384:	e13eea17 	ldw	r4,-1112(fp)
 8001388:	100b883a 	mov	r5,r2
 800138c:	80047ac0 	call	80047ac <strcat>
    strcat(patch_result_req, "\r\n\r\n");
 8001390:	e13eea17 	ldw	r4,-1112(fp)
 8001394:	80049680 	call	8004968 <strlen>
 8001398:	1007883a 	mov	r3,r2
 800139c:	e0beea17 	ldw	r2,-1112(fp)
 80013a0:	10c5883a 	add	r2,r2,r3
 80013a4:	00c00344 	movi	r3,13
 80013a8:	10c00005 	stb	r3,0(r2)
 80013ac:	00c00284 	movi	r3,10
 80013b0:	10c00045 	stb	r3,1(r2)
 80013b4:	00c00344 	movi	r3,13
 80013b8:	10c00085 	stb	r3,2(r2)
 80013bc:	00c00284 	movi	r3,10
 80013c0:	10c000c5 	stb	r3,3(r2)
 80013c4:	10000105 	stb	zero,4(r2)

    bool success = true;
 80013c8:	00800044 	movi	r2,1
 80013cc:	e0bee805 	stb	r2,-1120(fp)
    char cmd_buffer[100];
    char buffer[1000];

    if (success) {
 80013d0:	e0bee803 	ldbu	r2,-1120(fp)
 80013d4:	10000e26 	beq	r2,zero,8001410 <_Z13patch_dnn_resPc+0x1e8>
        sprintf(cmd_buffer, "AT+CIPSTART=\"TCP\",\"%s\",80", server_endpoint);
 80013d8:	d0a00e17 	ldw	r2,-32712(gp)
 80013dc:	e0ffe504 	addi	r3,fp,-108
 80013e0:	1809883a 	mov	r4,r3
 80013e4:	014200b4 	movhi	r5,2050
 80013e8:	29773c04 	addi	r5,r5,-8976
 80013ec:	100d883a 	mov	r6,r2
 80013f0:	80047400 	call	8004740 <sprintf>
        success = WiFi_UART.send_command(cmd_buffer);
 80013f4:	e0bfe504 	addi	r2,fp,-108
 80013f8:	010200b4 	movhi	r4,2050
 80013fc:	2107ee04 	addi	r4,r4,8120
 8001400:	100b883a 	mov	r5,r2
 8001404:	800084c0 	call	800084c <_ZN8WiFiUart12send_commandEPKc>
 8001408:	1004c03a 	cmpne	r2,r2,zero
 800140c:	e0bee805 	stb	r2,-1120(fp)
    }
    if (success) {
 8001410:	e0bee803 	ldbu	r2,-1120(fp)
 8001414:	10001026 	beq	r2,zero,8001458 <_Z13patch_dnn_resPc+0x230>
        sprintf(cmd_buffer, "AT+CIPSEND=%d", strlen(patch_result_req));
 8001418:	e13eea17 	ldw	r4,-1112(fp)
 800141c:	80049680 	call	8004968 <strlen>
 8001420:	1007883a 	mov	r3,r2
 8001424:	e0bfe504 	addi	r2,fp,-108
 8001428:	1009883a 	mov	r4,r2
 800142c:	014200b4 	movhi	r5,2050
 8001430:	29774304 	addi	r5,r5,-8948
 8001434:	180d883a 	mov	r6,r3
 8001438:	80047400 	call	8004740 <sprintf>
        success = WiFi_UART.send_command(cmd_buffer);
 800143c:	e0bfe504 	addi	r2,fp,-108
 8001440:	010200b4 	movhi	r4,2050
 8001444:	2107ee04 	addi	r4,r4,8120
 8001448:	100b883a 	mov	r5,r2
 800144c:	800084c0 	call	800084c <_ZN8WiFiUart12send_commandEPKc>
 8001450:	1004c03a 	cmpne	r2,r2,zero
 8001454:	e0bee805 	stb	r2,-1120(fp)
    }
    if (success) {
 8001458:	e0bee803 	ldbu	r2,-1120(fp)
 800145c:	10000926 	beq	r2,zero,8001484 <_Z13patch_dnn_resPc+0x25c>
        success = WiFi_UART.send_data(patch_result_req, strlen(patch_result_req));
 8001460:	e13eea17 	ldw	r4,-1112(fp)
 8001464:	80049680 	call	8004968 <strlen>
 8001468:	010200b4 	movhi	r4,2050
 800146c:	2107ee04 	addi	r4,r4,8120
 8001470:	e17eea17 	ldw	r5,-1112(fp)
 8001474:	100d883a 	mov	r6,r2
 8001478:	80009f00 	call	80009f0 <_ZN8WiFiUart9send_dataEPKci>
 800147c:	1004c03a 	cmpne	r2,r2,zero
 8001480:	e0bee805 	stb	r2,-1120(fp)
    }

    int length = 0;
 8001484:	e03ee915 	stw	zero,-1116(fp)

    if (success) {
 8001488:	e0bee803 	ldbu	r2,-1120(fp)
 800148c:	10003c26 	beq	r2,zero,8001580 <_Z13patch_dnn_resPc+0x358>
        while (1) {
            WiFi_UART.gets(buffer, sizeof(buffer));
 8001490:	0080fa04 	movi	r2,1000
 8001494:	e0feeb04 	addi	r3,fp,-1108
 8001498:	010200b4 	movhi	r4,2050
 800149c:	2107ee04 	addi	r4,r4,8120
 80014a0:	180b883a 	mov	r5,r3
 80014a4:	100d883a 	mov	r6,r2
 80014a8:	8000afc0 	call	8000afc <_ZN8WiFiUart4getsEPci>
            if (strstr(buffer, "+IPD") != NULL) {
 80014ac:	e0beeb04 	addi	r2,fp,-1108
 80014b0:	1009883a 	mov	r4,r2
 80014b4:	014200b4 	movhi	r5,2050
 80014b8:	29774704 	addi	r5,r5,-8932
 80014bc:	8004e700 	call	8004e70 <strstr>
 80014c0:	10002e26 	beq	r2,zero,800157c <_Z13patch_dnn_resPc+0x354>
                length = strlen(buffer);
 80014c4:	e0beeb04 	addi	r2,fp,-1108
 80014c8:	1009883a 	mov	r4,r2
 80014cc:	80049680 	call	8004968 <strlen>
 80014d0:	e0bee915 	stw	r2,-1116(fp)
                while (1) {
                    WiFi_UART.gets(buffer + length, sizeof(buffer) - length);
 80014d4:	e0bee917 	ldw	r2,-1116(fp)
 80014d8:	e0feeb04 	addi	r3,fp,-1108
 80014dc:	188b883a 	add	r5,r3,r2
 80014e0:	e0bee917 	ldw	r2,-1116(fp)
 80014e4:	00c0fa04 	movi	r3,1000
 80014e8:	1885c83a 	sub	r2,r3,r2
 80014ec:	010200b4 	movhi	r4,2050
 80014f0:	2107ee04 	addi	r4,r4,8120
 80014f4:	100d883a 	mov	r6,r2
 80014f8:	8000afc0 	call	8000afc <_ZN8WiFiUart4getsEPci>
                    if (strcmp(buffer + length, "\r\n") == 0)
 80014fc:	e0bee917 	ldw	r2,-1116(fp)
 8001500:	e0feeb04 	addi	r3,fp,-1108
 8001504:	1885883a 	add	r2,r3,r2
 8001508:	1009883a 	mov	r4,r2
 800150c:	014200b4 	movhi	r5,2050
 8001510:	29774904 	addi	r5,r5,-8924
 8001514:	80048340 	call	8004834 <strcmp>
 8001518:	10000e1e 	bne	r2,zero,8001554 <_Z13patch_dnn_resPc+0x32c>
                        break;
 800151c:	0001883a 	nop
                    length += strlen(buffer + length);
                }
                break;
 8001520:	0001883a 	nop
            }
        }
        WiFi_UART.gets(buffer, 9);
 8001524:	e0beeb04 	addi	r2,fp,-1108
 8001528:	010200b4 	movhi	r4,2050
 800152c:	2107ee04 	addi	r4,r4,8120
 8001530:	100b883a 	mov	r5,r2
 8001534:	01800244 	movi	r6,9
 8001538:	8000afc0 	call	8000afc <_ZN8WiFiUart4getsEPci>
        printf("Response: %s\n", buffer);
 800153c:	e0beeb04 	addi	r2,fp,-1108
 8001540:	010200b4 	movhi	r4,2050
 8001544:	2136fa04 	addi	r4,r4,-9240
 8001548:	100b883a 	mov	r5,r2
 800154c:	80042040 	call	8004204 <printf>
 8001550:	00000b06 	br	8001580 <_Z13patch_dnn_resPc+0x358>
                length = strlen(buffer);
                while (1) {
                    WiFi_UART.gets(buffer + length, sizeof(buffer) - length);
                    if (strcmp(buffer + length, "\r\n") == 0)
                        break;
                    length += strlen(buffer + length);
 8001554:	e0bee917 	ldw	r2,-1116(fp)
 8001558:	e0feeb04 	addi	r3,fp,-1108
 800155c:	1885883a 	add	r2,r3,r2
 8001560:	1009883a 	mov	r4,r2
 8001564:	80049680 	call	8004968 <strlen>
 8001568:	1007883a 	mov	r3,r2
 800156c:	e0bee917 	ldw	r2,-1116(fp)
 8001570:	1885883a 	add	r2,r3,r2
 8001574:	e0bee915 	stw	r2,-1116(fp)
    int length = 0;

    if (success) {
        while (1) {
            WiFi_UART.gets(buffer, sizeof(buffer));
            if (strstr(buffer, "+IPD") != NULL) {
 8001578:	003fd606 	br	80014d4 <__alt_data_end+0xfc0014d4>
        success = WiFi_UART.send_data(patch_result_req, strlen(patch_result_req));
    }

    int length = 0;

    if (success) {
 800157c:	003fc406 	br	8001490 <__alt_data_end+0xfc001490>
        }
        WiFi_UART.gets(buffer, 9);
        printf("Response: %s\n", buffer);
    }

    if (success) {
 8001580:	e0bee803 	ldbu	r2,-1120(fp)
 8001584:	10000626 	beq	r2,zero,80015a0 <_Z13patch_dnn_resPc+0x378>
        strcpy(str, buffer);
 8001588:	e0beeb04 	addi	r2,fp,-1108
 800158c:	e13ffe17 	ldw	r4,-8(fp)
 8001590:	100b883a 	mov	r5,r2
 8001594:	80048d80 	call	80048d8 <strcpy>
        return str;
 8001598:	e0bffe17 	ldw	r2,-8(fp)
 800159c:	00000106 	br	80015a4 <_Z13patch_dnn_resPc+0x37c>
    } else {
        return NULL;
 80015a0:	0005883a 	mov	r2,zero
    }
 80015a4:	e6ffff04 	addi	sp,fp,-4
 80015a8:	dfc00217 	ldw	ra,8(sp)
 80015ac:	df000117 	ldw	fp,4(sp)
 80015b0:	dc000017 	ldw	r16,0(sp)
 80015b4:	dec00304 	addi	sp,sp,12
 80015b8:	f800283a 	ret

080015bc <_Z41__static_initialization_and_destruction_0ii>:
 80015bc:	defffc04 	addi	sp,sp,-16
 80015c0:	dfc00315 	stw	ra,12(sp)
 80015c4:	df000215 	stw	fp,8(sp)
 80015c8:	df000204 	addi	fp,sp,8
 80015cc:	e13ffe15 	stw	r4,-8(fp)
 80015d0:	e17fff15 	stw	r5,-4(fp)
 80015d4:	e0bffe17 	ldw	r2,-8(fp)
 80015d8:	10800058 	cmpnei	r2,r2,1
 80015dc:	1000161e 	bne	r2,zero,8001638 <_Z41__static_initialization_and_destruction_0ii+0x7c>
 80015e0:	e0ffff17 	ldw	r3,-4(fp)
 80015e4:	00bfffd4 	movui	r2,65535
 80015e8:	1880131e 	bne	r3,r2,8001638 <_Z41__static_initialization_and_destruction_0ii+0x7c>
#include "../../src/terasic_includes.h"
#include "../../src/tasks.h"

char *str(volatile int *num);
char *patch_dnn_res(char *str);
WiFiUart WiFi_UART;
 80015ec:	010200b4 	movhi	r4,2050
 80015f0:	2107ee04 	addi	r4,r4,8120
 80015f4:	80006240 	call	8000624 <_ZN8WiFiUartC1Ev>
                  Host: k7t0ap6b0i.execute-api.us-west-2.amazonaws.com\r\n\
                  Content-Type: application/json\r\n\
                  \r\n\
                  tagId=";

const char *tagid_str = str(tagid);
 80015f8:	d0a00b17 	ldw	r2,-32724(gp)
 80015fc:	1009883a 	mov	r4,r2
 8001600:	80011e80 	call	80011e8 <_Z3strPVi>
 8001604:	d0a76315 	stw	r2,-25204(gp)
const char *rid_str = str(rid);
 8001608:	d0a00c17 	ldw	r2,-32720(gp)
 800160c:	1009883a 	mov	r4,r2
 8001610:	80011e80 	call	80011e8 <_Z3strPVi>
 8001614:	d0a76415 	stw	r2,-25200(gp)
const char *result_str = (result) ? "true" : "false";
 8001618:	d0a00d17 	ldw	r2,-32716(gp)
 800161c:	10000326 	beq	r2,zero,800162c <_Z41__static_initialization_and_destruction_0ii+0x70>
 8001620:	008200b4 	movhi	r2,2050
 8001624:	10b74a04 	addi	r2,r2,-8920
 8001628:	00000206 	br	8001634 <_Z41__static_initialization_and_destruction_0ii+0x78>
 800162c:	008200b4 	movhi	r2,2050
 8001630:	10b74c04 	addi	r2,r2,-8912
 8001634:	d0a76515 	stw	r2,-25196(gp)
 8001638:	e0bffe17 	ldw	r2,-8(fp)
 800163c:	1000061e 	bne	r2,zero,8001658 <_Z41__static_initialization_and_destruction_0ii+0x9c>
 8001640:	e0ffff17 	ldw	r3,-4(fp)
 8001644:	00bfffd4 	movui	r2,65535
 8001648:	1880031e 	bne	r3,r2,8001658 <_Z41__static_initialization_and_destruction_0ii+0x9c>
#include "../../src/terasic_includes.h"
#include "../../src/tasks.h"

char *str(volatile int *num);
char *patch_dnn_res(char *str);
WiFiUart WiFi_UART;
 800164c:	010200b4 	movhi	r4,2050
 8001650:	2107ee04 	addi	r4,r4,8120
 8001654:	80006540 	call	8000654 <_ZN8WiFiUartD1Ev>
        strcpy(str, buffer);
        return str;
    } else {
        return NULL;
    }
 8001658:	e037883a 	mov	sp,fp
 800165c:	dfc00117 	ldw	ra,4(sp)
 8001660:	df000017 	ldw	fp,0(sp)
 8001664:	dec00204 	addi	sp,sp,8
 8001668:	f800283a 	ret

0800166c <_GLOBAL__sub_I_WiFi_UART>:
 800166c:	defffe04 	addi	sp,sp,-8
 8001670:	dfc00115 	stw	ra,4(sp)
 8001674:	df000015 	stw	fp,0(sp)
 8001678:	d839883a 	mov	fp,sp
 800167c:	01000044 	movi	r4,1
 8001680:	017fffd4 	movui	r5,65535
 8001684:	80015bc0 	call	80015bc <_Z41__static_initialization_and_destruction_0ii>
 8001688:	e037883a 	mov	sp,fp
 800168c:	dfc00117 	ldw	ra,4(sp)
 8001690:	df000017 	ldw	fp,0(sp)
 8001694:	dec00204 	addi	sp,sp,8
 8001698:	f800283a 	ret

0800169c <_GLOBAL__sub_D_WiFi_UART>:
 800169c:	defffe04 	addi	sp,sp,-8
 80016a0:	dfc00115 	stw	ra,4(sp)
 80016a4:	df000015 	stw	fp,0(sp)
 80016a8:	d839883a 	mov	fp,sp
 80016ac:	0009883a 	mov	r4,zero
 80016b0:	017fffd4 	movui	r5,65535
 80016b4:	80015bc0 	call	80015bc <_Z41__static_initialization_and_destruction_0ii>
 80016b8:	e037883a 	mov	sp,fp
 80016bc:	dfc00117 	ldw	ra,4(sp)
 80016c0:	df000017 	ldw	fp,0(sp)
 80016c4:	dec00204 	addi	sp,sp,8
 80016c8:	f800283a 	ret

080016cc <_ZL12read_sleb128PKhPl>:
 80016cc:	0011883a 	mov	r8,zero
 80016d0:	000d883a 	mov	r6,zero
 80016d4:	21c00003 	ldbu	r7,0(r4)
 80016d8:	20800044 	addi	r2,r4,1
 80016dc:	1009883a 	mov	r4,r2
 80016e0:	38c01fcc 	andi	r3,r7,127
 80016e4:	1986983a 	sll	r3,r3,r6
 80016e8:	3a403fcc 	andi	r9,r7,255
 80016ec:	4a40201c 	xori	r9,r9,128
 80016f0:	4a7fe004 	addi	r9,r9,-128
 80016f4:	40d0b03a 	or	r8,r8,r3
 80016f8:	318001c4 	addi	r6,r6,7
 80016fc:	483ff516 	blt	r9,zero,80016d4 <__alt_data_end+0xfc0016d4>
 8001700:	00c007c4 	movi	r3,31
 8001704:	19800536 	bltu	r3,r6,800171c <_ZL12read_sleb128PKhPl+0x50>
 8001708:	39c0100c 	andi	r7,r7,64
 800170c:	38000326 	beq	r7,zero,800171c <_ZL12read_sleb128PKhPl+0x50>
 8001710:	00ffffc4 	movi	r3,-1
 8001714:	198c983a 	sll	r6,r3,r6
 8001718:	3210b03a 	or	r8,r6,r8
 800171c:	2a000015 	stw	r8,0(r5)
 8001720:	f800283a 	ret

08001724 <_ZL16get_adjusted_ptrPKSt9type_infoS1_PPv>:
 8001724:	28800017 	ldw	r2,0(r5)
 8001728:	30c00017 	ldw	r3,0(r6)
 800172c:	defffb04 	addi	sp,sp,-20
 8001730:	10800217 	ldw	r2,8(r2)
 8001734:	dc400315 	stw	r17,12(sp)
 8001738:	dc000215 	stw	r16,8(sp)
 800173c:	d9400115 	stw	r5,4(sp)
 8001740:	dfc00415 	stw	ra,16(sp)
 8001744:	2021883a 	mov	r16,r4
 8001748:	d8c00015 	stw	r3,0(sp)
 800174c:	2809883a 	mov	r4,r5
 8001750:	3023883a 	mov	r17,r6
 8001754:	103ee83a 	callr	r2
 8001758:	10803fcc 	andi	r2,r2,255
 800175c:	d9400117 	ldw	r5,4(sp)
 8001760:	10000326 	beq	r2,zero,8001770 <_ZL16get_adjusted_ptrPKSt9type_infoS1_PPv+0x4c>
 8001764:	d8800017 	ldw	r2,0(sp)
 8001768:	10800017 	ldw	r2,0(r2)
 800176c:	d8800015 	stw	r2,0(sp)
 8001770:	80800017 	ldw	r2,0(r16)
 8001774:	8009883a 	mov	r4,r16
 8001778:	d80d883a 	mov	r6,sp
 800177c:	10800417 	ldw	r2,16(r2)
 8001780:	01c00044 	movi	r7,1
 8001784:	103ee83a 	callr	r2
 8001788:	10c03fcc 	andi	r3,r2,255
 800178c:	18000226 	beq	r3,zero,8001798 <_ZL16get_adjusted_ptrPKSt9type_infoS1_PPv+0x74>
 8001790:	d8c00017 	ldw	r3,0(sp)
 8001794:	88c00015 	stw	r3,0(r17)
 8001798:	dfc00417 	ldw	ra,16(sp)
 800179c:	dc400317 	ldw	r17,12(sp)
 80017a0:	dc000217 	ldw	r16,8(sp)
 80017a4:	dec00504 	addi	sp,sp,20
 80017a8:	f800283a 	ret

080017ac <_ZL21size_of_encoded_valueh>:
 80017ac:	deffff04 	addi	sp,sp,-4
 80017b0:	dfc00015 	stw	ra,0(sp)
 80017b4:	00803fc4 	movi	r2,255
 80017b8:	20802026 	beq	r4,r2,800183c <_ZL21size_of_encoded_valueh+0x90>
 80017bc:	210001cc 	andi	r4,r4,7
 80017c0:	00800144 	movi	r2,5
 80017c4:	11001c36 	bltu	r2,r4,8001838 <_ZL21size_of_encoded_valueh+0x8c>
 80017c8:	200890ba 	slli	r4,r4,2
 80017cc:	00820034 	movhi	r2,2048
 80017d0:	1085f804 	addi	r2,r2,6112
 80017d4:	2089883a 	add	r4,r4,r2
 80017d8:	20800017 	ldw	r2,0(r4)
 80017dc:	1000683a 	jmp	r2
 80017e0:	080017f8 	rdprs	zero,at,95
 80017e4:	08001838 	rdprs	zero,at,96
 80017e8:	08001808 	cmpgei	zero,at,96
 80017ec:	080017f8 	rdprs	zero,at,95
 80017f0:	08001828 	cmpgeui	zero,at,96
 80017f4:	08001818 	cmpnei	zero,at,96
 80017f8:	00800104 	movi	r2,4
 80017fc:	dfc00017 	ldw	ra,0(sp)
 8001800:	dec00104 	addi	sp,sp,4
 8001804:	f800283a 	ret
 8001808:	00800084 	movi	r2,2
 800180c:	dfc00017 	ldw	ra,0(sp)
 8001810:	dec00104 	addi	sp,sp,4
 8001814:	f800283a 	ret
 8001818:	00800044 	movi	r2,1
 800181c:	dfc00017 	ldw	ra,0(sp)
 8001820:	dec00104 	addi	sp,sp,4
 8001824:	f800283a 	ret
 8001828:	00800204 	movi	r2,8
 800182c:	dfc00017 	ldw	ra,0(sp)
 8001830:	dec00104 	addi	sp,sp,4
 8001834:	f800283a 	ret
 8001838:	80038940 	call	8003894 <abort>
 800183c:	0005883a 	mov	r2,zero
 8001840:	dfc00017 	ldw	ra,0(sp)
 8001844:	dec00104 	addi	sp,sp,4
 8001848:	f800283a 	ret

0800184c <_ZL28read_encoded_value_with_basehjPKhPj>:
 800184c:	defffa04 	addi	sp,sp,-24
 8001850:	dc000315 	stw	r16,12(sp)
 8001854:	dfc00515 	stw	ra,20(sp)
 8001858:	dc400415 	stw	r17,16(sp)
 800185c:	00801404 	movi	r2,80
 8001860:	2021883a 	mov	r16,r4
 8001864:	20807526 	beq	r4,r2,8001a3c <_ZL28read_encoded_value_with_basehjPKhPj+0x1f0>
 8001868:	208003cc 	andi	r2,r4,15
 800186c:	00c00304 	movi	r3,12
 8001870:	18807136 	bltu	r3,r2,8001a38 <_ZL28read_encoded_value_with_basehjPKhPj+0x1ec>
 8001874:	100490ba 	slli	r2,r2,2
 8001878:	00c20034 	movhi	r3,2048
 800187c:	18c62404 	addi	r3,r3,6288
 8001880:	10c5883a 	add	r2,r2,r3
 8001884:	10800017 	ldw	r2,0(r2)
 8001888:	2823883a 	mov	r17,r5
 800188c:	1000683a 	jmp	r2
 8001890:	08001978 	rdprs	zero,at,101
 8001894:	080019a8 	cmpgeui	zero,at,102
 8001898:	08001960 	cmpeqi	zero,at,101
 800189c:	080018c4 	addi	zero,at,99
 80018a0:	08001930 	cmpltui	zero,at,100
 80018a4:	080019e4 	muli	zero,at,103
 80018a8:	08001a38 	rdprs	zero,at,104
 80018ac:	08001a38 	rdprs	zero,at,104
 80018b0:	08001a38 	rdprs	zero,at,104
 80018b4:	080019f0 	cmpltui	zero,at,103
 80018b8:	08001a14 	ori	zero,at,104
 80018bc:	080018c4 	addi	zero,at,99
 80018c0:	08001930 	cmpltui	zero,at,100
 80018c4:	30800043 	ldbu	r2,1(r6)
 80018c8:	30c00083 	ldbu	r3,2(r6)
 80018cc:	310000c3 	ldbu	r4,3(r6)
 80018d0:	32000003 	ldbu	r8,0(r6)
 80018d4:	1004923a 	slli	r2,r2,8
 80018d8:	1806943a 	slli	r3,r3,16
 80018dc:	2008963a 	slli	r4,r4,24
 80018e0:	1204b03a 	or	r2,r2,r8
 80018e4:	1884b03a 	or	r2,r3,r2
 80018e8:	2086b03a 	or	r3,r4,r2
 80018ec:	30800104 	addi	r2,r6,4
 80018f0:	18000926 	beq	r3,zero,8001918 <_ZL28read_encoded_value_with_basehjPKhPj+0xcc>
 80018f4:	81401c0c 	andi	r5,r16,112
 80018f8:	01000404 	movi	r4,16
 80018fc:	29005526 	beq	r5,r4,8001a54 <_ZL28read_encoded_value_with_basehjPKhPj+0x208>
 8001900:	84003fcc 	andi	r16,r16,255
 8001904:	8400201c 	xori	r16,r16,128
 8001908:	843fe004 	addi	r16,r16,-128
 800190c:	1c47883a 	add	r3,r3,r17
 8001910:	8000010e 	bge	r16,zero,8001918 <_ZL28read_encoded_value_with_basehjPKhPj+0xcc>
 8001914:	18c00017 	ldw	r3,0(r3)
 8001918:	38c00015 	stw	r3,0(r7)
 800191c:	dfc00517 	ldw	ra,20(sp)
 8001920:	dc400417 	ldw	r17,16(sp)
 8001924:	dc000317 	ldw	r16,12(sp)
 8001928:	dec00604 	addi	sp,sp,24
 800192c:	f800283a 	ret
 8001930:	30800043 	ldbu	r2,1(r6)
 8001934:	30c00083 	ldbu	r3,2(r6)
 8001938:	310000c3 	ldbu	r4,3(r6)
 800193c:	32000003 	ldbu	r8,0(r6)
 8001940:	1004923a 	slli	r2,r2,8
 8001944:	1806943a 	slli	r3,r3,16
 8001948:	2008963a 	slli	r4,r4,24
 800194c:	1204b03a 	or	r2,r2,r8
 8001950:	1884b03a 	or	r2,r3,r2
 8001954:	2086b03a 	or	r3,r4,r2
 8001958:	30800204 	addi	r2,r6,8
 800195c:	003fe406 	br	80018f0 <__alt_data_end+0xfc0018f0>
 8001960:	30c00043 	ldbu	r3,1(r6)
 8001964:	32000003 	ldbu	r8,0(r6)
 8001968:	30800084 	addi	r2,r6,2
 800196c:	1806923a 	slli	r3,r3,8
 8001970:	1a06b03a 	or	r3,r3,r8
 8001974:	003fde06 	br	80018f0 <__alt_data_end+0xfc0018f0>
 8001978:	30800043 	ldbu	r2,1(r6)
 800197c:	30c00083 	ldbu	r3,2(r6)
 8001980:	314000c3 	ldbu	r5,3(r6)
 8001984:	31000003 	ldbu	r4,0(r6)
 8001988:	1004923a 	slli	r2,r2,8
 800198c:	1806943a 	slli	r3,r3,16
 8001990:	280a963a 	slli	r5,r5,24
 8001994:	1104b03a 	or	r2,r2,r4
 8001998:	1884b03a 	or	r2,r3,r2
 800199c:	2886b03a 	or	r3,r5,r2
 80019a0:	30800104 	addi	r2,r6,4
 80019a4:	003fd206 	br	80018f0 <__alt_data_end+0xfc0018f0>
 80019a8:	3013883a 	mov	r9,r6
 80019ac:	0007883a 	mov	r3,zero
 80019b0:	0011883a 	mov	r8,zero
 80019b4:	49000003 	ldbu	r4,0(r9)
 80019b8:	48800044 	addi	r2,r9,1
 80019bc:	1013883a 	mov	r9,r2
 80019c0:	21401fcc 	andi	r5,r4,127
 80019c4:	2a0a983a 	sll	r5,r5,r8
 80019c8:	21003fcc 	andi	r4,r4,255
 80019cc:	2100201c 	xori	r4,r4,128
 80019d0:	213fe004 	addi	r4,r4,-128
 80019d4:	1946b03a 	or	r3,r3,r5
 80019d8:	420001c4 	addi	r8,r8,7
 80019dc:	203ff516 	blt	r4,zero,80019b4 <__alt_data_end+0xfc0019b4>
 80019e0:	003fc306 	br	80018f0 <__alt_data_end+0xfc0018f0>
 80019e4:	30c00003 	ldbu	r3,0(r6)
 80019e8:	30800044 	addi	r2,r6,1
 80019ec:	003fc006 	br	80018f0 <__alt_data_end+0xfc0018f0>
 80019f0:	3009883a 	mov	r4,r6
 80019f4:	d80b883a 	mov	r5,sp
 80019f8:	d9800115 	stw	r6,4(sp)
 80019fc:	d9c00215 	stw	r7,8(sp)
 8001a00:	80016cc0 	call	80016cc <_ZL12read_sleb128PKhPl>
 8001a04:	d8c00017 	ldw	r3,0(sp)
 8001a08:	d9800117 	ldw	r6,4(sp)
 8001a0c:	d9c00217 	ldw	r7,8(sp)
 8001a10:	003fb706 	br	80018f0 <__alt_data_end+0xfc0018f0>
 8001a14:	30c00043 	ldbu	r3,1(r6)
 8001a18:	32000003 	ldbu	r8,0(r6)
 8001a1c:	30800084 	addi	r2,r6,2
 8001a20:	1806923a 	slli	r3,r3,8
 8001a24:	1a06b03a 	or	r3,r3,r8
 8001a28:	18ffffcc 	andi	r3,r3,65535
 8001a2c:	18e0001c 	xori	r3,r3,32768
 8001a30:	18e00004 	addi	r3,r3,-32768
 8001a34:	003fae06 	br	80018f0 <__alt_data_end+0xfc0018f0>
 8001a38:	80038940 	call	8003894 <abort>
 8001a3c:	318000c4 	addi	r6,r6,3
 8001a40:	00bfff04 	movi	r2,-4
 8001a44:	3084703a 	and	r2,r6,r2
 8001a48:	10c00017 	ldw	r3,0(r2)
 8001a4c:	10800104 	addi	r2,r2,4
 8001a50:	003fb106 	br	8001918 <__alt_data_end+0xfc001918>
 8001a54:	3023883a 	mov	r17,r6
 8001a58:	003fa906 	br	8001900 <__alt_data_end+0xfc001900>

08001a5c <_ZL15get_ttype_entryP16lsda_header_infom>:
 8001a5c:	defffc04 	addi	sp,sp,-16
 8001a60:	dfc00315 	stw	ra,12(sp)
 8001a64:	dc000215 	stw	r16,8(sp)
 8001a68:	2021883a 	mov	r16,r4
 8001a6c:	21000503 	ldbu	r4,20(r4)
 8001a70:	d9400115 	stw	r5,4(sp)
 8001a74:	80017ac0 	call	80017ac <_ZL21size_of_encoded_valueh>
 8001a78:	d9400117 	ldw	r5,4(sp)
 8001a7c:	1009883a 	mov	r4,r2
 8001a80:	800334c0 	call	800334c <__mulsi3>
 8001a84:	81800317 	ldw	r6,12(r16)
 8001a88:	81000503 	ldbu	r4,20(r16)
 8001a8c:	81400217 	ldw	r5,8(r16)
 8001a90:	308dc83a 	sub	r6,r6,r2
 8001a94:	d80f883a 	mov	r7,sp
 8001a98:	800184c0 	call	800184c <_ZL28read_encoded_value_with_basehjPKhPj>
 8001a9c:	d8800017 	ldw	r2,0(sp)
 8001aa0:	dfc00317 	ldw	ra,12(sp)
 8001aa4:	dc000217 	ldw	r16,8(sp)
 8001aa8:	dec00404 	addi	sp,sp,16
 8001aac:	f800283a 	ret

08001ab0 <_ZL20check_exception_specP16lsda_header_infoPKSt9type_infoPvl>:
 8001ab0:	defffb04 	addi	sp,sp,-20
 8001ab4:	dc000115 	stw	r16,4(sp)
 8001ab8:	24000317 	ldw	r16,12(r4)
 8001abc:	01ce303a 	nor	r7,zero,r7
 8001ac0:	dc800315 	stw	r18,12(sp)
 8001ac4:	dc400215 	stw	r17,8(sp)
 8001ac8:	dfc00415 	stw	ra,16(sp)
 8001acc:	2023883a 	mov	r17,r4
 8001ad0:	2825883a 	mov	r18,r5
 8001ad4:	d9800015 	stw	r6,0(sp)
 8001ad8:	81e1883a 	add	r16,r16,r7
 8001adc:	8009883a 	mov	r4,r16
 8001ae0:	000b883a 	mov	r5,zero
 8001ae4:	000d883a 	mov	r6,zero
 8001ae8:	20800003 	ldbu	r2,0(r4)
 8001aec:	84000044 	addi	r16,r16,1
 8001af0:	8009883a 	mov	r4,r16
 8001af4:	10c01fcc 	andi	r3,r2,127
 8001af8:	1986983a 	sll	r3,r3,r6
 8001afc:	10803fcc 	andi	r2,r2,255
 8001b00:	1080201c 	xori	r2,r2,128
 8001b04:	10bfe004 	addi	r2,r2,-128
 8001b08:	28cab03a 	or	r5,r5,r3
 8001b0c:	318001c4 	addi	r6,r6,7
 8001b10:	103ff516 	blt	r2,zero,8001ae8 <__alt_data_end+0xfc001ae8>
 8001b14:	28000e26 	beq	r5,zero,8001b50 <_ZL20check_exception_specP16lsda_header_infoPKSt9type_infoPvl+0xa0>
 8001b18:	8809883a 	mov	r4,r17
 8001b1c:	8001a5c0 	call	8001a5c <_ZL15get_ttype_entryP16lsda_header_infom>
 8001b20:	1009883a 	mov	r4,r2
 8001b24:	900b883a 	mov	r5,r18
 8001b28:	d80d883a 	mov	r6,sp
 8001b2c:	80017240 	call	8001724 <_ZL16get_adjusted_ptrPKSt9type_infoS1_PPv>
 8001b30:	10c03fcc 	andi	r3,r2,255
 8001b34:	183fe926 	beq	r3,zero,8001adc <__alt_data_end+0xfc001adc>
 8001b38:	dfc00417 	ldw	ra,16(sp)
 8001b3c:	dc800317 	ldw	r18,12(sp)
 8001b40:	dc400217 	ldw	r17,8(sp)
 8001b44:	dc000117 	ldw	r16,4(sp)
 8001b48:	dec00504 	addi	sp,sp,20
 8001b4c:	f800283a 	ret
 8001b50:	0005883a 	mov	r2,zero
 8001b54:	003ff806 	br	8001b38 <__alt_data_end+0xfc001b38>

08001b58 <_ZL21base_of_encoded_valuehP15_Unwind_Context>:
 8001b58:	deffff04 	addi	sp,sp,-4
 8001b5c:	dfc00015 	stw	ra,0(sp)
 8001b60:	00803fc4 	movi	r2,255
 8001b64:	20800e26 	beq	r4,r2,8001ba0 <_ZL21base_of_encoded_valuehP15_Unwind_Context+0x48>
 8001b68:	20801c0c 	andi	r2,r4,112
 8001b6c:	00c00804 	movi	r3,32
 8001b70:	10c01726 	beq	r2,r3,8001bd0 <_ZL21base_of_encoded_valuehP15_Unwind_Context+0x78>
 8001b74:	18800e2e 	bgeu	r3,r2,8001bb0 <_ZL21base_of_encoded_valuehP15_Unwind_Context+0x58>
 8001b78:	00c01004 	movi	r3,64
 8001b7c:	10c01026 	beq	r2,r3,8001bc0 <_ZL21base_of_encoded_valuehP15_Unwind_Context+0x68>
 8001b80:	00c01404 	movi	r3,80
 8001b84:	10c00626 	beq	r2,r3,8001ba0 <_ZL21base_of_encoded_valuehP15_Unwind_Context+0x48>
 8001b88:	00c00c04 	movi	r3,48
 8001b8c:	10c00b1e 	bne	r2,r3,8001bbc <_ZL21base_of_encoded_valuehP15_Unwind_Context+0x64>
 8001b90:	2809883a 	mov	r4,r5
 8001b94:	dfc00017 	ldw	ra,0(sp)
 8001b98:	dec00104 	addi	sp,sp,4
 8001b9c:	80036541 	jmpi	8003654 <_Unwind_GetDataRelBase>
 8001ba0:	0005883a 	mov	r2,zero
 8001ba4:	dfc00017 	ldw	ra,0(sp)
 8001ba8:	dec00104 	addi	sp,sp,4
 8001bac:	f800283a 	ret
 8001bb0:	103ffb26 	beq	r2,zero,8001ba0 <__alt_data_end+0xfc001ba0>
 8001bb4:	00c00404 	movi	r3,16
 8001bb8:	10fff926 	beq	r2,r3,8001ba0 <__alt_data_end+0xfc001ba0>
 8001bbc:	80038940 	call	8003894 <abort>
 8001bc0:	2809883a 	mov	r4,r5
 8001bc4:	dfc00017 	ldw	ra,0(sp)
 8001bc8:	dec00104 	addi	sp,sp,4
 8001bcc:	80036441 	jmpi	8003644 <_Unwind_GetRegionStart>
 8001bd0:	2809883a 	mov	r4,r5
 8001bd4:	dfc00017 	ldw	ra,0(sp)
 8001bd8:	dec00104 	addi	sp,sp,4
 8001bdc:	800365c1 	jmpi	800365c <_Unwind_GetTextRelBase>

08001be0 <_ZL28check_compact_exception_specPKSt9type_infoPvPKhij>:
 8001be0:	defff104 	addi	sp,sp,-60
 8001be4:	dd800b15 	stw	r22,44(sp)
 8001be8:	382dd23a 	srai	r22,r7,8
 8001bec:	dd400a15 	stw	r21,40(sp)
 8001bf0:	dd000915 	stw	r20,36(sp)
 8001bf4:	dfc00e15 	stw	ra,56(sp)
 8001bf8:	df000d15 	stw	fp,52(sp)
 8001bfc:	ddc00c15 	stw	r23,48(sp)
 8001c00:	dcc00815 	stw	r19,32(sp)
 8001c04:	dc800715 	stw	r18,28(sp)
 8001c08:	dc400615 	stw	r17,24(sp)
 8001c0c:	dc000515 	stw	r16,20(sp)
 8001c10:	d9c00315 	stw	r7,12(sp)
 8001c14:	d9400215 	stw	r5,8(sp)
 8001c18:	2029883a 	mov	r20,r4
 8001c1c:	dd400f17 	ldw	r21,60(sp)
 8001c20:	b000010e 	bge	r22,zero,8001c28 <_ZL28check_compact_exception_specPKSt9type_infoPvPKhij+0x48>
 8001c24:	05adc83a 	sub	r22,zero,r22
 8001c28:	01000144 	movi	r4,5
 8001c2c:	000b883a 	mov	r5,zero
 8001c30:	d9800415 	stw	r6,16(sp)
 8001c34:	8001b580 	call	8001b58 <_ZL21base_of_encoded_valuehP15_Unwind_Context>
 8001c38:	d9800417 	ldw	r6,16(sp)
 8001c3c:	100b883a 	mov	r5,r2
 8001c40:	d9c00104 	addi	r7,sp,4
 8001c44:	01000144 	movi	r4,5
 8001c48:	800184c0 	call	800184c <_ZL28read_encoded_value_with_basehjPKhPj>
 8001c4c:	1009883a 	mov	r4,r2
 8001c50:	017ffe44 	movi	r5,-7
 8001c54:	1021883a 	mov	r16,r2
 8001c58:	800334c0 	call	800334c <__mulsi3>
 8001c5c:	1027883a 	mov	r19,r2
 8001c60:	002f883a 	mov	r23,zero
 8001c64:	84400003 	ldbu	r17,0(r16)
 8001c68:	8009883a 	mov	r4,r16
 8001c6c:	014001c4 	movi	r5,7
 8001c70:	800334c0 	call	800334c <__mulsi3>
 8001c74:	88c01fcc 	andi	r3,r17,127
 8001c78:	14c5883a 	add	r2,r2,r19
 8001c7c:	1886983a 	sll	r3,r3,r2
 8001c80:	8c403fcc 	andi	r17,r17,255
 8001c84:	8c40201c 	xori	r17,r17,128
 8001c88:	8c7fe004 	addi	r17,r17,-128
 8001c8c:	84000044 	addi	r16,r16,1
 8001c90:	b8eeb03a 	or	r23,r23,r3
 8001c94:	883ff316 	blt	r17,zero,8001c64 <__alt_data_end+0xfc001c64>
 8001c98:	85e1883a 	add	r16,r16,r23
 8001c9c:	8009883a 	mov	r4,r16
 8001ca0:	017ffe44 	movi	r5,-7
 8001ca4:	800334c0 	call	800334c <__mulsi3>
 8001ca8:	102f883a 	mov	r23,r2
 8001cac:	8007883a 	mov	r3,r16
 8001cb0:	0025883a 	mov	r18,zero
 8001cb4:	1cc00003 	ldbu	r19,0(r3)
 8001cb8:	1809883a 	mov	r4,r3
 8001cbc:	014001c4 	movi	r5,7
 8001cc0:	1c400044 	addi	r17,r3,1
 8001cc4:	800334c0 	call	800334c <__mulsi3>
 8001cc8:	98c01fcc 	andi	r3,r19,127
 8001ccc:	15c5883a 	add	r2,r2,r23
 8001cd0:	1884983a 	sll	r2,r3,r2
 8001cd4:	9cc03fcc 	andi	r19,r19,255
 8001cd8:	9cc0201c 	xori	r19,r19,128
 8001cdc:	9cffe004 	addi	r19,r19,-128
 8001ce0:	8807883a 	mov	r3,r17
 8001ce4:	90a4b03a 	or	r18,r18,r2
 8001ce8:	983ff216 	blt	r19,zero,8001cb4 <__alt_data_end+0xfc001cb4>
 8001cec:	b7003fcc 	andi	fp,r22,255
 8001cf0:	e73fffc4 	addi	fp,fp,-1
 8001cf4:	8f39883a 	add	fp,r17,fp
 8001cf8:	840000c4 	addi	r16,r16,3
 8001cfc:	848d883a 	add	r6,r16,r18
 8001d00:	e009883a 	mov	r4,fp
 8001d04:	017ffe44 	movi	r5,-7
 8001d08:	04ffff04 	movi	r19,-4
 8001d0c:	34e6703a 	and	r19,r6,r19
 8001d10:	800334c0 	call	800334c <__mulsi3>
 8001d14:	002f883a 	mov	r23,zero
 8001d18:	102d883a 	mov	r22,r2
 8001d1c:	e4400003 	ldbu	r17,0(fp)
 8001d20:	e009883a 	mov	r4,fp
 8001d24:	014001c4 	movi	r5,7
 8001d28:	800334c0 	call	800334c <__mulsi3>
 8001d2c:	88c01fcc 	andi	r3,r17,127
 8001d30:	1585883a 	add	r2,r2,r22
 8001d34:	1886983a 	sll	r3,r3,r2
 8001d38:	8c403fcc 	andi	r17,r17,255
 8001d3c:	8c40201c 	xori	r17,r17,128
 8001d40:	e4000044 	addi	r16,fp,1
 8001d44:	8c7fe004 	addi	r17,r17,-128
 8001d48:	b8eeb03a 	or	r23,r23,r3
 8001d4c:	8039883a 	mov	fp,r16
 8001d50:	883ff216 	blt	r17,zero,8001d1c <__alt_data_end+0xfc001d1c>
 8001d54:	d8800317 	ldw	r2,12(sp)
 8001d58:	14803fcc 	andi	r18,r2,255
 8001d5c:	b8002326 	beq	r23,zero,8001dec <_ZL28check_compact_exception_specPKSt9type_infoPvPKhij+0x20c>
 8001d60:	9009883a 	mov	r4,r18
 8001d64:	80017ac0 	call	80017ac <_ZL21size_of_encoded_valueh>
 8001d68:	1009883a 	mov	r4,r2
 8001d6c:	b97fffc4 	addi	r5,r23,-1
 8001d70:	800334c0 	call	800334c <__mulsi3>
 8001d74:	9009883a 	mov	r4,r18
 8001d78:	a80b883a 	mov	r5,r21
 8001d7c:	14cd883a 	add	r6,r2,r19
 8001d80:	d80f883a 	mov	r7,sp
 8001d84:	800184c0 	call	800184c <_ZL28read_encoded_value_with_basehjPKhPj>
 8001d88:	d9000017 	ldw	r4,0(sp)
 8001d8c:	a00b883a 	mov	r5,r20
 8001d90:	d9800204 	addi	r6,sp,8
 8001d94:	80017240 	call	8001724 <_ZL16get_adjusted_ptrPKSt9type_infoS1_PPv>
 8001d98:	10c03fcc 	andi	r3,r2,255
 8001d9c:	1800141e 	bne	r3,zero,8001df0 <_ZL28check_compact_exception_specPKSt9type_infoPvPKhij+0x210>
 8001da0:	8009883a 	mov	r4,r16
 8001da4:	017ffe44 	movi	r5,-7
 8001da8:	800334c0 	call	800334c <__mulsi3>
 8001dac:	102d883a 	mov	r22,r2
 8001db0:	002f883a 	mov	r23,zero
 8001db4:	84400003 	ldbu	r17,0(r16)
 8001db8:	8009883a 	mov	r4,r16
 8001dbc:	014001c4 	movi	r5,7
 8001dc0:	800334c0 	call	800334c <__mulsi3>
 8001dc4:	88c01fcc 	andi	r3,r17,127
 8001dc8:	1585883a 	add	r2,r2,r22
 8001dcc:	1886983a 	sll	r3,r3,r2
 8001dd0:	8c403fcc 	andi	r17,r17,255
 8001dd4:	8c40201c 	xori	r17,r17,128
 8001dd8:	8c7fe004 	addi	r17,r17,-128
 8001ddc:	84000044 	addi	r16,r16,1
 8001de0:	b8eeb03a 	or	r23,r23,r3
 8001de4:	883ff316 	blt	r17,zero,8001db4 <__alt_data_end+0xfc001db4>
 8001de8:	003fdc06 	br	8001d5c <__alt_data_end+0xfc001d5c>
 8001dec:	0005883a 	mov	r2,zero
 8001df0:	dfc00e17 	ldw	ra,56(sp)
 8001df4:	df000d17 	ldw	fp,52(sp)
 8001df8:	ddc00c17 	ldw	r23,48(sp)
 8001dfc:	dd800b17 	ldw	r22,44(sp)
 8001e00:	dd400a17 	ldw	r21,40(sp)
 8001e04:	dd000917 	ldw	r20,36(sp)
 8001e08:	dcc00817 	ldw	r19,32(sp)
 8001e0c:	dc800717 	ldw	r18,28(sp)
 8001e10:	dc400617 	ldw	r17,24(sp)
 8001e14:	dc000517 	ldw	r16,20(sp)
 8001e18:	dec00f04 	addi	sp,sp,60
 8001e1c:	f800283a 	ret

08001e20 <_ZL17parse_lsda_headerP15_Unwind_ContextPKhP16lsda_header_info>:
 8001e20:	defffb04 	addi	sp,sp,-20
 8001e24:	dcc00315 	stw	r19,12(sp)
 8001e28:	dc400115 	stw	r17,4(sp)
 8001e2c:	dc000015 	stw	r16,0(sp)
 8001e30:	dfc00415 	stw	ra,16(sp)
 8001e34:	dc800215 	stw	r18,8(sp)
 8001e38:	2027883a 	mov	r19,r4
 8001e3c:	2821883a 	mov	r16,r5
 8001e40:	3023883a 	mov	r17,r6
 8001e44:	20003f26 	beq	r4,zero,8001f44 <_ZL17parse_lsda_headerP15_Unwind_ContextPKhP16lsda_header_info+0x124>
 8001e48:	80036440 	call	8003644 <_Unwind_GetRegionStart>
 8001e4c:	88800015 	stw	r2,0(r17)
 8001e50:	84800003 	ldbu	r18,0(r16)
 8001e54:	00c03fc4 	movi	r3,255
 8001e58:	84000044 	addi	r16,r16,1
 8001e5c:	90c03726 	beq	r18,r3,8001f3c <_ZL17parse_lsda_headerP15_Unwind_ContextPKhP16lsda_header_info+0x11c>
 8001e60:	9009883a 	mov	r4,r18
 8001e64:	980b883a 	mov	r5,r19
 8001e68:	8001b580 	call	8001b58 <_ZL21base_of_encoded_valuehP15_Unwind_Context>
 8001e6c:	800d883a 	mov	r6,r16
 8001e70:	9009883a 	mov	r4,r18
 8001e74:	100b883a 	mov	r5,r2
 8001e78:	89c00104 	addi	r7,r17,4
 8001e7c:	800184c0 	call	800184c <_ZL28read_encoded_value_with_basehjPKhPj>
 8001e80:	1021883a 	mov	r16,r2
 8001e84:	80c00003 	ldbu	r3,0(r16)
 8001e88:	01003fc4 	movi	r4,255
 8001e8c:	80800044 	addi	r2,r16,1
 8001e90:	88c00505 	stb	r3,20(r17)
 8001e94:	18c03fcc 	andi	r3,r3,255
 8001e98:	19002c26 	beq	r3,r4,8001f4c <_ZL17parse_lsda_headerP15_Unwind_ContextPKhP16lsda_header_info+0x12c>
 8001e9c:	100d883a 	mov	r6,r2
 8001ea0:	000f883a 	mov	r7,zero
 8001ea4:	000b883a 	mov	r5,zero
 8001ea8:	30c00003 	ldbu	r3,0(r6)
 8001eac:	10800044 	addi	r2,r2,1
 8001eb0:	100d883a 	mov	r6,r2
 8001eb4:	19001fcc 	andi	r4,r3,127
 8001eb8:	2148983a 	sll	r4,r4,r5
 8001ebc:	18c03fcc 	andi	r3,r3,255
 8001ec0:	18c0201c 	xori	r3,r3,128
 8001ec4:	18ffe004 	addi	r3,r3,-128
 8001ec8:	390eb03a 	or	r7,r7,r4
 8001ecc:	294001c4 	addi	r5,r5,7
 8001ed0:	183ff516 	blt	r3,zero,8001ea8 <__alt_data_end+0xfc001ea8>
 8001ed4:	11cf883a 	add	r7,r2,r7
 8001ed8:	89c00315 	stw	r7,12(r17)
 8001edc:	10c00003 	ldbu	r3,0(r2)
 8001ee0:	000f883a 	mov	r7,zero
 8001ee4:	10800044 	addi	r2,r2,1
 8001ee8:	88c00545 	stb	r3,21(r17)
 8001eec:	000b883a 	mov	r5,zero
 8001ef0:	10c00003 	ldbu	r3,0(r2)
 8001ef4:	10800044 	addi	r2,r2,1
 8001ef8:	19001fcc 	andi	r4,r3,127
 8001efc:	2148983a 	sll	r4,r4,r5
 8001f00:	18c03fcc 	andi	r3,r3,255
 8001f04:	18c0201c 	xori	r3,r3,128
 8001f08:	18ffe004 	addi	r3,r3,-128
 8001f0c:	390eb03a 	or	r7,r7,r4
 8001f10:	294001c4 	addi	r5,r5,7
 8001f14:	183ff616 	blt	r3,zero,8001ef0 <__alt_data_end+0xfc001ef0>
 8001f18:	11cf883a 	add	r7,r2,r7
 8001f1c:	89c00415 	stw	r7,16(r17)
 8001f20:	dfc00417 	ldw	ra,16(sp)
 8001f24:	dcc00317 	ldw	r19,12(sp)
 8001f28:	dc800217 	ldw	r18,8(sp)
 8001f2c:	dc400117 	ldw	r17,4(sp)
 8001f30:	dc000017 	ldw	r16,0(sp)
 8001f34:	dec00504 	addi	sp,sp,20
 8001f38:	f800283a 	ret
 8001f3c:	88800115 	stw	r2,4(r17)
 8001f40:	003fd006 	br	8001e84 <__alt_data_end+0xfc001e84>
 8001f44:	0005883a 	mov	r2,zero
 8001f48:	003fc006 	br	8001e4c <__alt_data_end+0xfc001e4c>
 8001f4c:	88000315 	stw	zero,12(r17)
 8001f50:	003fe206 	br	8001edc <__alt_data_end+0xfc001edc>

08001f54 <__gxx_personality_sj0>:
 8001f54:	00820034 	movhi	r2,2048
 8001f58:	deffde04 	addi	sp,sp,-136
 8001f5c:	1087d504 	addi	r2,r2,8020
 8001f60:	d8801015 	stw	r2,64(sp)
 8001f64:	008200b4 	movhi	r2,2050
 8001f68:	10b61f04 	addi	r2,r2,-10116
 8001f6c:	d8801115 	stw	r2,68(sp)
 8001f70:	00820034 	movhi	r2,2048
 8001f74:	10891004 	addi	r2,r2,9280
 8001f78:	d9001715 	stw	r4,92(sp)
 8001f7c:	d9000a04 	addi	r4,sp,40
 8001f80:	d8801315 	stw	r2,76(sp)
 8001f84:	dfc02115 	stw	ra,132(sp)
 8001f88:	df002015 	stw	fp,128(sp)
 8001f8c:	dec01215 	stw	sp,72(sp)
 8001f90:	dec01415 	stw	sp,80(sp)
 8001f94:	d9401a15 	stw	r5,104(sp)
 8001f98:	d9801815 	stw	r6,96(sp)
 8001f9c:	d9c01915 	stw	r7,100(sp)
 8001fa0:	800357c0 	call	800357c <_Unwind_SjLj_Register>
 8001fa4:	d8c01717 	ldw	r3,92(sp)
 8001fa8:	d8000915 	stw	zero,36(sp)
 8001fac:	d8000815 	stw	zero,32(sp)
 8001fb0:	00800044 	movi	r2,1
 8001fb4:	18800926 	beq	r3,r2,8001fdc <__gxx_personality_sj0+0x88>
 8001fb8:	014000c4 	movi	r5,3
 8001fbc:	d9401715 	stw	r5,92(sp)
 8001fc0:	d9000a04 	addi	r4,sp,40
 8001fc4:	80035940 	call	8003594 <_Unwind_SjLj_Unregister>
 8001fc8:	d8801717 	ldw	r2,92(sp)
 8001fcc:	dfc02117 	ldw	ra,132(sp)
 8001fd0:	df002017 	ldw	fp,128(sp)
 8001fd4:	dec02204 	addi	sp,sp,136
 8001fd8:	f800283a 	ret
 8001fdc:	d9401817 	ldw	r5,96(sp)
 8001fe0:	012f3574 	movhi	r4,48341
 8001fe4:	21354004 	addi	r4,r4,-11008
 8001fe8:	2909883a 	add	r4,r5,r4
 8001fec:	2145803a 	cmpltu	r2,r4,r5
 8001ff0:	d9401917 	ldw	r5,100(sp)
 8001ff4:	d8c01b05 	stb	r3,108(sp)
 8001ff8:	00ee2cb4 	movhi	r3,47282
 8001ffc:	18eaaf04 	addi	r3,r3,-21828
 8002000:	28c7883a 	add	r3,r5,r3
 8002004:	10c5883a 	add	r2,r2,r3
 8002008:	10003526 	beq	r2,zero,80020e0 <__gxx_personality_sj0+0x18c>
 800200c:	d8c01a17 	ldw	r3,104(sp)
 8002010:	00800184 	movi	r2,6
 8002014:	18803826 	beq	r3,r2,80020f8 <__gxx_personality_sj0+0x1a4>
 8002018:	d9002317 	ldw	r4,140(sp)
 800201c:	00ffffc4 	movi	r3,-1
 8002020:	d8c00b15 	stw	r3,44(sp)
 8002024:	80036380 	call	8003638 <_Unwind_GetLanguageSpecificData>
 8002028:	d8801915 	stw	r2,100(sp)
 800202c:	1000a326 	beq	r2,zero,80022bc <__gxx_personality_sj0+0x368>
 8002030:	d9002317 	ldw	r4,140(sp)
 8002034:	d9401917 	ldw	r5,100(sp)
 8002038:	d80d883a 	mov	r6,sp
 800203c:	00bfffc4 	movi	r2,-1
 8002040:	d8800b15 	stw	r2,44(sp)
 8002044:	8001e200 	call	8001e20 <_ZL17parse_lsda_headerP15_Unwind_ContextPKhP16lsda_header_info>
 8002048:	d9000503 	ldbu	r4,20(sp)
 800204c:	d9402317 	ldw	r5,140(sp)
 8002050:	d8801715 	stw	r2,92(sp)
 8002054:	8001b580 	call	8001b58 <_ZL21base_of_encoded_valuehP15_Unwind_Context>
 8002058:	d9002317 	ldw	r4,140(sp)
 800205c:	d9400804 	addi	r5,sp,32
 8002060:	d8800215 	stw	r2,8(sp)
 8002064:	80036080 	call	8003608 <_Unwind_GetIPInfo>
 8002068:	d8c00817 	ldw	r3,32(sp)
 800206c:	1800011e 	bne	r3,zero,8002074 <__gxx_personality_sj0+0x120>
 8002070:	10bfffc4 	addi	r2,r2,-1
 8002074:	10009116 	blt	r2,zero,80022bc <__gxx_personality_sj0+0x368>
 8002078:	10004c1e 	bne	r2,zero,80021ac <__gxx_personality_sj0+0x258>
 800207c:	d8001c15 	stw	zero,112(sp)
 8002080:	00800044 	movi	r2,1
 8002084:	d8001715 	stw	zero,92(sp)
 8002088:	d8001815 	stw	zero,96(sp)
 800208c:	d9001a17 	ldw	r4,104(sp)
 8002090:	20c0004c 	andi	r3,r4,1
 8002094:	18008c26 	beq	r3,zero,80022c8 <__gxx_personality_sj0+0x374>
 8002098:	00c00084 	movi	r3,2
 800209c:	10c08726 	beq	r2,r3,80022bc <__gxx_personality_sj0+0x368>
 80020a0:	d8801b03 	ldbu	r2,108(sp)
 80020a4:	1000d21e 	bne	r2,zero,80023f0 <__gxx_personality_sj0+0x49c>
 80020a8:	d9402217 	ldw	r5,136(sp)
 80020ac:	d8801717 	ldw	r2,92(sp)
 80020b0:	d8c01817 	ldw	r3,96(sp)
 80020b4:	d9001917 	ldw	r4,100(sp)
 80020b8:	28bffb15 	stw	r2,-20(r5)
 80020bc:	d8800917 	ldw	r2,36(sp)
 80020c0:	28fffc15 	stw	r3,-16(r5)
 80020c4:	00c00184 	movi	r3,6
 80020c8:	28bfff15 	stw	r2,-4(r5)
 80020cc:	d8801c17 	ldw	r2,112(sp)
 80020d0:	293ffd15 	stw	r4,-12(r5)
 80020d4:	d8c01715 	stw	r3,92(sp)
 80020d8:	28bffe15 	stw	r2,-8(r5)
 80020dc:	003fb806 	br	8001fc0 <__alt_data_end+0xfc001fc0>
 80020e0:	d8801717 	ldw	r2,92(sp)
 80020e4:	113fc936 	bltu	r2,r4,800200c <__alt_data_end+0xfc00200c>
 80020e8:	d8c01a17 	ldw	r3,104(sp)
 80020ec:	d8001b05 	stb	zero,108(sp)
 80020f0:	00800184 	movi	r2,6
 80020f4:	18bfc81e 	bne	r3,r2,8002018 <__alt_data_end+0xfc002018>
 80020f8:	d8801b03 	ldbu	r2,108(sp)
 80020fc:	103fc61e 	bne	r2,zero,8002018 <__alt_data_end+0xfc002018>
 8002100:	d9002217 	ldw	r4,136(sp)
 8002104:	d9402217 	ldw	r5,136(sp)
 8002108:	d8802217 	ldw	r2,136(sp)
 800210c:	213ffe17 	ldw	r4,-8(r4)
 8002110:	297ffb17 	ldw	r5,-20(r5)
 8002114:	10bffd17 	ldw	r2,-12(r2)
 8002118:	d9001c15 	stw	r4,112(sp)
 800211c:	d9401715 	stw	r5,92(sp)
 8002120:	d8801915 	stw	r2,100(sp)
 8002124:	20008726 	beq	r4,zero,8002344 <__gxx_personality_sj0+0x3f0>
 8002128:	d8801717 	ldw	r2,92(sp)
 800212c:	10006f0e 	bge	r2,zero,80022ec <__gxx_personality_sj0+0x398>
 8002130:	d9002317 	ldw	r4,140(sp)
 8002134:	d9401917 	ldw	r5,100(sp)
 8002138:	d80d883a 	mov	r6,sp
 800213c:	00bfffc4 	movi	r2,-1
 8002140:	d8800b15 	stw	r2,44(sp)
 8002144:	8001e200 	call	8001e20 <_ZL17parse_lsda_headerP15_Unwind_ContextPKhP16lsda_header_info>
 8002148:	d9000503 	ldbu	r4,20(sp)
 800214c:	d9402317 	ldw	r5,140(sp)
 8002150:	8001b580 	call	8001b58 <_ZL21base_of_encoded_valuehP15_Unwind_Context>
 8002154:	d9000503 	ldbu	r4,20(sp)
 8002158:	d9402317 	ldw	r5,140(sp)
 800215c:	d8800215 	stw	r2,8(sp)
 8002160:	8001b580 	call	8001b58 <_ZL21base_of_encoded_valuehP15_Unwind_Context>
 8002164:	d8c02217 	ldw	r3,136(sp)
 8002168:	18bffe15 	stw	r2,-8(r3)
 800216c:	00005f06 	br	80022ec <__gxx_personality_sj0+0x398>
 8002170:	000f883a 	mov	r7,zero
 8002174:	000d883a 	mov	r6,zero
 8002178:	19000003 	ldbu	r4,0(r3)
 800217c:	18c00044 	addi	r3,r3,1
 8002180:	d8c01715 	stw	r3,92(sp)
 8002184:	21401fcc 	andi	r5,r4,127
 8002188:	298a983a 	sll	r5,r5,r6
 800218c:	21003fcc 	andi	r4,r4,255
 8002190:	2100201c 	xori	r4,r4,128
 8002194:	213fe004 	addi	r4,r4,-128
 8002198:	394eb03a 	or	r7,r7,r5
 800219c:	318001c4 	addi	r6,r6,7
 80021a0:	203ff516 	blt	r4,zero,8002178 <__alt_data_end+0xfc002178>
 80021a4:	10bfffc4 	addi	r2,r2,-1
 80021a8:	10000e26 	beq	r2,zero,80021e4 <__gxx_personality_sj0+0x290>
 80021ac:	d8c01717 	ldw	r3,92(sp)
 80021b0:	0011883a 	mov	r8,zero
 80021b4:	000d883a 	mov	r6,zero
 80021b8:	19000003 	ldbu	r4,0(r3)
 80021bc:	18c00044 	addi	r3,r3,1
 80021c0:	21401fcc 	andi	r5,r4,127
 80021c4:	298a983a 	sll	r5,r5,r6
 80021c8:	21003fcc 	andi	r4,r4,255
 80021cc:	2100201c 	xori	r4,r4,128
 80021d0:	213fe004 	addi	r4,r4,-128
 80021d4:	4150b03a 	or	r8,r8,r5
 80021d8:	318001c4 	addi	r6,r6,7
 80021dc:	203ff616 	blt	r4,zero,80021b8 <__alt_data_end+0xfc0021b8>
 80021e0:	003fe306 	br	8002170 <__alt_data_end+0xfc002170>
 80021e4:	42000044 	addi	r8,r8,1
 80021e8:	da001c15 	stw	r8,112(sp)
 80021ec:	38004f26 	beq	r7,zero,800232c <__gxx_personality_sj0+0x3d8>
 80021f0:	d8800417 	ldw	r2,16(sp)
 80021f4:	39ffffc4 	addi	r7,r7,-1
 80021f8:	11c5883a 	add	r2,r2,r7
 80021fc:	d8801815 	stw	r2,96(sp)
 8002200:	40002e26 	beq	r8,zero,80022bc <__gxx_personality_sj0+0x368>
 8002204:	10004b26 	beq	r2,zero,8002334 <__gxx_personality_sj0+0x3e0>
 8002208:	d8c01a17 	ldw	r3,104(sp)
 800220c:	18c0020c 	andi	r3,r3,8
 8002210:	d8c01e15 	stw	r3,120(sp)
 8002214:	1800801e 	bne	r3,zero,8002418 <__gxx_personality_sj0+0x4c4>
 8002218:	d8801b03 	ldbu	r2,108(sp)
 800221c:	1000821e 	bne	r2,zero,8002428 <__gxx_personality_sj0+0x4d4>
 8002220:	d9002217 	ldw	r4,136(sp)
 8002224:	20800017 	ldw	r2,0(r4)
 8002228:	1080004c 	andi	r2,r2,1
 800222c:	1000821e 	bne	r2,zero,8002438 <__gxx_personality_sj0+0x4e4>
 8002230:	d9402217 	ldw	r5,136(sp)
 8002234:	28800504 	addi	r2,r5,20
 8002238:	d8800915 	stw	r2,36(sp)
 800223c:	10bff017 	ldw	r2,-64(r2)
 8002240:	d8801d15 	stw	r2,116(sp)
 8002244:	d9001b03 	ldbu	r4,108(sp)
 8002248:	d8001b45 	stb	zero,109(sp)
 800224c:	d9001f15 	stw	r4,124(sp)
 8002250:	00000e06 	br	800228c <__gxx_personality_sj0+0x338>
 8002254:	01c03d0e 	bge	zero,r7,800234c <__gxx_personality_sj0+0x3f8>
 8002258:	017fffc4 	movi	r5,-1
 800225c:	d9400b15 	stw	r5,44(sp)
 8002260:	d809883a 	mov	r4,sp
 8002264:	380b883a 	mov	r5,r7
 8002268:	8001a5c0 	call	8001a5c <_ZL15get_ttype_entryP16lsda_header_infom>
 800226c:	10004f26 	beq	r2,zero,80023ac <__gxx_personality_sj0+0x458>
 8002270:	d8c01d17 	ldw	r3,116(sp)
 8002274:	1800611e 	bne	r3,zero,80023fc <__gxx_personality_sj0+0x4a8>
 8002278:	d8800617 	ldw	r2,24(sp)
 800227c:	10005726 	beq	r2,zero,80023dc <__gxx_personality_sj0+0x488>
 8002280:	d9401717 	ldw	r5,92(sp)
 8002284:	2885883a 	add	r2,r5,r2
 8002288:	d8801815 	stw	r2,96(sp)
 800228c:	d9001817 	ldw	r4,96(sp)
 8002290:	d9400704 	addi	r5,sp,28
 8002294:	80016cc0 	call	80016cc <_ZL12read_sleb128PKhPl>
 8002298:	1009883a 	mov	r4,r2
 800229c:	d9400604 	addi	r5,sp,24
 80022a0:	d8801715 	stw	r2,92(sp)
 80022a4:	80016cc0 	call	80016cc <_ZL12read_sleb128PKhPl>
 80022a8:	d9c00717 	ldw	r7,28(sp)
 80022ac:	383fe91e 	bne	r7,zero,8002254 <__alt_data_end+0xfc002254>
 80022b0:	01000044 	movi	r4,1
 80022b4:	d9001b45 	stb	r4,109(sp)
 80022b8:	003fef06 	br	8002278 <__alt_data_end+0xfc002278>
 80022bc:	01000204 	movi	r4,8
 80022c0:	d9001715 	stw	r4,92(sp)
 80022c4:	003f3e06 	br	8001fc0 <__alt_data_end+0xfc001fc0>
 80022c8:	d9001a17 	ldw	r4,104(sp)
 80022cc:	20c0020c 	andi	r3,r4,8
 80022d0:	1800021e 	bne	r3,zero,80022dc <__gxx_personality_sj0+0x388>
 80022d4:	d8c01b03 	ldbu	r3,108(sp)
 80022d8:	18001826 	beq	r3,zero,800233c <__gxx_personality_sj0+0x3e8>
 80022dc:	00c00044 	movi	r3,1
 80022e0:	10c05926 	beq	r2,r3,8002448 <__gxx_personality_sj0+0x4f4>
 80022e4:	d9401717 	ldw	r5,92(sp)
 80022e8:	28005816 	blt	r5,zero,800244c <__gxx_personality_sj0+0x4f8>
 80022ec:	d9802217 	ldw	r6,136(sp)
 80022f0:	d9002317 	ldw	r4,140(sp)
 80022f4:	00bfffc4 	movi	r2,-1
 80022f8:	000b883a 	mov	r5,zero
 80022fc:	d8800b15 	stw	r2,44(sp)
 8002300:	80035dc0 	call	80035dc <_Unwind_SetGR>
 8002304:	d9002317 	ldw	r4,140(sp)
 8002308:	d9801717 	ldw	r6,92(sp)
 800230c:	01400044 	movi	r5,1
 8002310:	80035dc0 	call	80035dc <_Unwind_SetGR>
 8002314:	d9002317 	ldw	r4,140(sp)
 8002318:	d9401c17 	ldw	r5,112(sp)
 800231c:	80036280 	call	8003628 <_Unwind_SetIP>
 8002320:	010001c4 	movi	r4,7
 8002324:	d9001715 	stw	r4,92(sp)
 8002328:	003f2506 	br	8001fc0 <__alt_data_end+0xfc001fc0>
 800232c:	d8c01c17 	ldw	r3,112(sp)
 8002330:	183fe226 	beq	r3,zero,80022bc <__alt_data_end+0xfc0022bc>
 8002334:	00800084 	movi	r2,2
 8002338:	003f5206 	br	8002084 <__alt_data_end+0xfc002084>
 800233c:	00c00044 	movi	r3,1
 8002340:	10ff791e 	bne	r2,r3,8002128 <__alt_data_end+0xfc002128>
 8002344:	d9002217 	ldw	r4,136(sp)
 8002348:	8002f040 	call	8002f04 <__cxa_call_terminate>
 800234c:	d9001d17 	ldw	r4,116(sp)
 8002350:	20000426 	beq	r4,zero,8002364 <__gxx_personality_sj0+0x410>
 8002354:	d9401e17 	ldw	r5,120(sp)
 8002358:	2800021e 	bne	r5,zero,8002364 <__gxx_personality_sj0+0x410>
 800235c:	d8801f17 	ldw	r2,124(sp)
 8002360:	10001626 	beq	r2,zero,80023bc <__gxx_personality_sj0+0x468>
 8002364:	d8c00317 	ldw	r3,12(sp)
 8002368:	01ce303a 	nor	r7,zero,r7
 800236c:	000d883a 	mov	r6,zero
 8002370:	19c7883a 	add	r3,r3,r7
 8002374:	000b883a 	mov	r5,zero
 8002378:	18800003 	ldbu	r2,0(r3)
 800237c:	18c00044 	addi	r3,r3,1
 8002380:	11001fcc 	andi	r4,r2,127
 8002384:	2148983a 	sll	r4,r4,r5
 8002388:	10803fcc 	andi	r2,r2,255
 800238c:	1080201c 	xori	r2,r2,128
 8002390:	10bfe004 	addi	r2,r2,-128
 8002394:	310cb03a 	or	r6,r6,r4
 8002398:	294001c4 	addi	r5,r5,7
 800239c:	103ff616 	blt	r2,zero,8002378 <__alt_data_end+0xfc002378>
 80023a0:	3005003a 	cmpeq	r2,r6,zero
 80023a4:	10803fcc 	andi	r2,r2,255
 80023a8:	103fb326 	beq	r2,zero,8002278 <__alt_data_end+0xfc002278>
 80023ac:	d8800717 	ldw	r2,28(sp)
 80023b0:	d8801715 	stw	r2,92(sp)
 80023b4:	008000c4 	movi	r2,3
 80023b8:	003f3406 	br	800208c <__alt_data_end+0xfc00208c>
 80023bc:	d9401d17 	ldw	r5,116(sp)
 80023c0:	d9800917 	ldw	r6,36(sp)
 80023c4:	00ffffc4 	movi	r3,-1
 80023c8:	d809883a 	mov	r4,sp
 80023cc:	d8c00b15 	stw	r3,44(sp)
 80023d0:	8001ab00 	call	8001ab0 <_ZL20check_exception_specP16lsda_header_infoPKSt9type_infoPvl>
 80023d4:	1080005c 	xori	r2,r2,1
 80023d8:	003ff206 	br	80023a4 <__alt_data_end+0xfc0023a4>
 80023dc:	d8801b43 	ldbu	r2,109(sp)
 80023e0:	103fb626 	beq	r2,zero,80022bc <__alt_data_end+0xfc0022bc>
 80023e4:	d8001715 	stw	zero,92(sp)
 80023e8:	00800084 	movi	r2,2
 80023ec:	003f2706 	br	800208c <__alt_data_end+0xfc00208c>
 80023f0:	00800184 	movi	r2,6
 80023f4:	d8801715 	stw	r2,92(sp)
 80023f8:	003ef106 	br	8001fc0 <__alt_data_end+0xfc001fc0>
 80023fc:	1009883a 	mov	r4,r2
 8002400:	180b883a 	mov	r5,r3
 8002404:	d9800904 	addi	r6,sp,36
 8002408:	80017240 	call	8001724 <_ZL16get_adjusted_ptrPKSt9type_infoS1_PPv>
 800240c:	10803fcc 	andi	r2,r2,255
 8002410:	103fe61e 	bne	r2,zero,80023ac <__alt_data_end+0xfc0023ac>
 8002414:	003f9806 	br	8002278 <__alt_data_end+0xfc002278>
 8002418:	008200b4 	movhi	r2,2050
 800241c:	10808a04 	addi	r2,r2,552
 8002420:	d8801d15 	stw	r2,116(sp)
 8002424:	003f8706 	br	8002244 <__alt_data_end+0xfc002244>
 8002428:	00c200b4 	movhi	r3,2050
 800242c:	18c08c04 	addi	r3,r3,560
 8002430:	d8c01d15 	stw	r3,116(sp)
 8002434:	003f8306 	br	8002244 <__alt_data_end+0xfc002244>
 8002438:	20bff517 	ldw	r2,-44(r4)
 800243c:	003f7e06 	br	8002238 <__alt_data_end+0xfc002238>
 8002440:	d9000c17 	ldw	r4,48(sp)
 8002444:	8002d800 	call	8002d80 <__cxa_begin_catch>
 8002448:	8002a2c0 	call	8002a2c <_ZSt9terminatev>
 800244c:	d8c00b15 	stw	r3,44(sp)
 8002450:	8002a540 	call	8002a54 <_ZSt10unexpectedv>

08002454 <__cxa_call_unexpected>:
 8002454:	00820034 	movhi	r2,2048
 8002458:	deffe604 	addi	sp,sp,-104
 800245c:	1087d504 	addi	r2,r2,8020
 8002460:	d8800d15 	stw	r2,52(sp)
 8002464:	008200b4 	movhi	r2,2050
 8002468:	10b62304 	addi	r2,r2,-10100
 800246c:	d8800e15 	stw	r2,56(sp)
 8002470:	d8800104 	addi	r2,sp,4
 8002474:	d8800f15 	stw	r2,60(sp)
 8002478:	00820034 	movhi	r2,2048
 800247c:	10893804 	addi	r2,r2,9440
 8002480:	d9001415 	stw	r4,80(sp)
 8002484:	d9000704 	addi	r4,sp,28
 8002488:	dfc01915 	stw	ra,100(sp)
 800248c:	d8801015 	stw	r2,64(sp)
 8002490:	df001815 	stw	fp,96(sp)
 8002494:	dec01115 	stw	sp,68(sp)
 8002498:	800357c0 	call	800357c <_Unwind_SjLj_Register>
 800249c:	d9001417 	ldw	r4,80(sp)
 80024a0:	8002d800 	call	8002d80 <__cxa_begin_catch>
 80024a4:	d8c01417 	ldw	r3,80(sp)
 80024a8:	18bffe17 	ldw	r2,-8(r3)
 80024ac:	193ff717 	ldw	r4,-36(r3)
 80024b0:	18fffd17 	ldw	r3,-12(r3)
 80024b4:	d8800315 	stw	r2,12(sp)
 80024b8:	d8c01615 	stw	r3,88(sp)
 80024bc:	d8c01417 	ldw	r3,80(sp)
 80024c0:	18fffb17 	ldw	r3,-20(r3)
 80024c4:	d8c01515 	stw	r3,84(sp)
 80024c8:	d8c01417 	ldw	r3,80(sp)
 80024cc:	18fff817 	ldw	r3,-32(r3)
 80024d0:	d8c01415 	stw	r3,80(sp)
 80024d4:	00c00044 	movi	r3,1
 80024d8:	d8c00815 	stw	r3,32(sp)
 80024dc:	8002a440 	call	8002a44 <_ZN10__cxxabiv112__unexpectedEPFvvE>
 80024e0:	d8c00917 	ldw	r3,36(sp)
 80024e4:	d8800817 	ldw	r2,32(sp)
 80024e8:	d8c01715 	stw	r3,92(sp)
 80024ec:	10000a26 	beq	r2,zero,8002518 <__cxa_call_unexpected+0xc4>
 80024f0:	10bfffc4 	addi	r2,r2,-1
 80024f4:	10000126 	beq	r2,zero,80024fc <__cxa_call_unexpected+0xa8>
 80024f8:	003da0fa 	break	3
 80024fc:	d8000815 	stw	zero,32(sp)
 8002500:	8002e340 	call	8002e34 <__cxa_end_catch>
 8002504:	8002e340 	call	8002e34 <__cxa_end_catch>
 8002508:	d9001717 	ldw	r4,92(sp)
 800250c:	00bfffc4 	movi	r2,-1
 8002510:	d8800815 	stw	r2,32(sp)
 8002514:	80037780 	call	8003778 <_Unwind_SjLj_Resume>
 8002518:	d9001717 	ldw	r4,92(sp)
 800251c:	8002d800 	call	8002d80 <__cxa_begin_catch>
 8002520:	80026880 	call	8002688 <__cxa_get_globals_fast>
 8002524:	10800017 	ldw	r2,0(r2)
 8002528:	10c00b17 	ldw	r3,44(r2)
 800252c:	18c0004c 	andi	r3,r3,1
 8002530:	18001e26 	beq	r3,zero,80025ac <__cxa_call_unexpected+0x158>
 8002534:	10800017 	ldw	r2,0(r2)
 8002538:	d8801715 	stw	r2,92(sp)
 800253c:	d8801517 	ldw	r2,84(sp)
 8002540:	00802b0e 	bge	zero,r2,80025f0 <__cxa_call_unexpected+0x19c>
 8002544:	d8c01717 	ldw	r3,92(sp)
 8002548:	d8800317 	ldw	r2,12(sp)
 800254c:	d9801617 	ldw	r6,88(sp)
 8002550:	193ff017 	ldw	r4,-64(r3)
 8002554:	d9c01517 	ldw	r7,84(sp)
 8002558:	d8800015 	stw	r2,0(sp)
 800255c:	180b883a 	mov	r5,r3
 8002560:	00800084 	movi	r2,2
 8002564:	d8800815 	stw	r2,32(sp)
 8002568:	8001be00 	call	8001be0 <_ZL28check_compact_exception_specPKSt9type_infoPvPKhij>
 800256c:	10803fcc 	andi	r2,r2,255
 8002570:	10001e1e 	bne	r2,zero,80025ec <__cxa_call_unexpected+0x198>
 8002574:	d8800317 	ldw	r2,12(sp)
 8002578:	d9801617 	ldw	r6,88(sp)
 800257c:	d9c01517 	ldw	r7,84(sp)
 8002580:	010200b4 	movhi	r4,2050
 8002584:	d8800015 	stw	r2,0(sp)
 8002588:	21379b04 	addi	r4,r4,-8596
 800258c:	00800084 	movi	r2,2
 8002590:	000b883a 	mov	r5,zero
 8002594:	d8800815 	stw	r2,32(sp)
 8002598:	8001be00 	call	8001be0 <_ZL28check_compact_exception_specPKSt9type_infoPvPKhij>
 800259c:	10803fcc 	andi	r2,r2,255
 80025a0:	1000051e 	bne	r2,zero,80025b8 <__cxa_call_unexpected+0x164>
 80025a4:	d9001417 	ldw	r4,80(sp)
 80025a8:	800296c0 	call	800296c <_ZN10__cxxabiv111__terminateEPFvvE>
 80025ac:	10801004 	addi	r2,r2,64
 80025b0:	d8801715 	stw	r2,92(sp)
 80025b4:	003fe106 	br	800253c <__alt_data_end+0xfc00253c>
 80025b8:	01000104 	movi	r4,4
 80025bc:	80031180 	call	8003118 <__cxa_allocate_exception>
 80025c0:	00c200b4 	movhi	r3,2050
 80025c4:	18f7b604 	addi	r3,r3,-8488
 80025c8:	014200b4 	movhi	r5,2050
 80025cc:	01820034 	movhi	r6,2048
 80025d0:	10c00015 	stw	r3,0(r2)
 80025d4:	29779b04 	addi	r5,r5,-8596
 80025d8:	00c00084 	movi	r3,2
 80025dc:	318cb604 	addi	r6,r6,13016
 80025e0:	1009883a 	mov	r4,r2
 80025e4:	d8c00815 	stw	r3,32(sp)
 80025e8:	8002fa00 	call	8002fa0 <__cxa_throw>
 80025ec:	80030300 	call	8003030 <__cxa_rethrow>
 80025f0:	d9401617 	ldw	r5,88(sp)
 80025f4:	00800084 	movi	r2,2
 80025f8:	0009883a 	mov	r4,zero
 80025fc:	d9800104 	addi	r6,sp,4
 8002600:	d8800815 	stw	r2,32(sp)
 8002604:	8001e200 	call	8001e20 <_ZL17parse_lsda_headerP15_Unwind_ContextPKhP16lsda_header_info>
 8002608:	d8801717 	ldw	r2,92(sp)
 800260c:	d9c01517 	ldw	r7,84(sp)
 8002610:	d9000104 	addi	r4,sp,4
 8002614:	117ff017 	ldw	r5,-64(r2)
 8002618:	100d883a 	mov	r6,r2
 800261c:	8001ab00 	call	8001ab0 <_ZL20check_exception_specP16lsda_header_infoPKSt9type_infoPvl>
 8002620:	10803fcc 	andi	r2,r2,255
 8002624:	1000171e 	bne	r2,zero,8002684 <__cxa_call_unexpected+0x230>
 8002628:	d9c01517 	ldw	r7,84(sp)
 800262c:	014200b4 	movhi	r5,2050
 8002630:	00800084 	movi	r2,2
 8002634:	29779b04 	addi	r5,r5,-8596
 8002638:	d9000104 	addi	r4,sp,4
 800263c:	000d883a 	mov	r6,zero
 8002640:	d8800815 	stw	r2,32(sp)
 8002644:	8001ab00 	call	8001ab0 <_ZL20check_exception_specP16lsda_header_infoPKSt9type_infoPvl>
 8002648:	10803fcc 	andi	r2,r2,255
 800264c:	103fd526 	beq	r2,zero,80025a4 <__alt_data_end+0xfc0025a4>
 8002650:	01000104 	movi	r4,4
 8002654:	80031180 	call	8003118 <__cxa_allocate_exception>
 8002658:	00c200b4 	movhi	r3,2050
 800265c:	18f7b604 	addi	r3,r3,-8488
 8002660:	014200b4 	movhi	r5,2050
 8002664:	01820034 	movhi	r6,2048
 8002668:	10c00015 	stw	r3,0(r2)
 800266c:	29779b04 	addi	r5,r5,-8596
 8002670:	00c00084 	movi	r3,2
 8002674:	318cb604 	addi	r6,r6,13016
 8002678:	1009883a 	mov	r4,r2
 800267c:	d8c00815 	stw	r3,32(sp)
 8002680:	8002fa00 	call	8002fa0 <__cxa_throw>
 8002684:	80030300 	call	8003030 <__cxa_rethrow>

08002688 <__cxa_get_globals_fast>:
 8002688:	008200b4 	movhi	r2,2050
 800268c:	1087db04 	addi	r2,r2,8044
 8002690:	f800283a 	ret

08002694 <__cxa_get_globals>:
 8002694:	008200b4 	movhi	r2,2050
 8002698:	1087db04 	addi	r2,r2,8044
 800269c:	f800283a 	ret

080026a0 <_ZNK10__cxxabiv117__class_type_info11__do_upcastEPKS0_PPv>:
 80026a0:	20800017 	ldw	r2,0(r4)
 80026a4:	defffa04 	addi	sp,sp,-24
 80026a8:	dc000415 	stw	r16,16(sp)
 80026ac:	10800617 	ldw	r2,24(r2)
 80026b0:	3021883a 	mov	r16,r6
 80026b4:	31800017 	ldw	r6,0(r6)
 80026b8:	00c00404 	movi	r3,16
 80026bc:	d8c00215 	stw	r3,8(sp)
 80026c0:	dfc00515 	stw	ra,20(sp)
 80026c4:	d8000015 	stw	zero,0(sp)
 80026c8:	d8000115 	stw	zero,4(sp)
 80026cc:	d8000315 	stw	zero,12(sp)
 80026d0:	d80f883a 	mov	r7,sp
 80026d4:	103ee83a 	callr	r2
 80026d8:	d8800117 	ldw	r2,4(sp)
 80026dc:	00c00184 	movi	r3,6
 80026e0:	1080018c 	andi	r2,r2,6
 80026e4:	10c00526 	beq	r2,r3,80026fc <_ZNK10__cxxabiv117__class_type_info11__do_upcastEPKS0_PPv+0x5c>
 80026e8:	0005883a 	mov	r2,zero
 80026ec:	dfc00517 	ldw	ra,20(sp)
 80026f0:	dc000417 	ldw	r16,16(sp)
 80026f4:	dec00604 	addi	sp,sp,24
 80026f8:	f800283a 	ret
 80026fc:	d8c00017 	ldw	r3,0(sp)
 8002700:	00800044 	movi	r2,1
 8002704:	80c00015 	stw	r3,0(r16)
 8002708:	dfc00517 	ldw	ra,20(sp)
 800270c:	dc000417 	ldw	r16,16(sp)
 8002710:	dec00604 	addi	sp,sp,24
 8002714:	f800283a 	ret

08002718 <_ZNK10__cxxabiv117__class_type_info20__do_find_public_srcEiPKvPKS0_S2_>:
 8002718:	d8800017 	ldw	r2,0(sp)
 800271c:	11800226 	beq	r2,r6,8002728 <_ZNK10__cxxabiv117__class_type_info20__do_find_public_srcEiPKvPKS0_S2_+0x10>
 8002720:	00800044 	movi	r2,1
 8002724:	f800283a 	ret
 8002728:	00800184 	movi	r2,6
 800272c:	f800283a 	ret

08002730 <_ZN10__cxxabiv117__class_type_infoD1Ev>:
 8002730:	008200b4 	movhi	r2,2050
 8002734:	10b75c04 	addi	r2,r2,-8848
 8002738:	20800015 	stw	r2,0(r4)
 800273c:	80030b41 	jmpi	80030b4 <_ZNSt9type_infoD1Ev>

08002740 <_ZN10__cxxabiv117__class_type_infoD0Ev>:
 8002740:	defffe04 	addi	sp,sp,-8
 8002744:	008200b4 	movhi	r2,2050
 8002748:	dc000015 	stw	r16,0(sp)
 800274c:	dfc00115 	stw	ra,4(sp)
 8002750:	10b75c04 	addi	r2,r2,-8848
 8002754:	20800015 	stw	r2,0(r4)
 8002758:	2021883a 	mov	r16,r4
 800275c:	80030b40 	call	80030b4 <_ZNSt9type_infoD1Ev>
 8002760:	8009883a 	mov	r4,r16
 8002764:	dfc00117 	ldw	ra,4(sp)
 8002768:	dc000017 	ldw	r16,0(sp)
 800276c:	dec00204 	addi	sp,sp,8
 8002770:	80029681 	jmpi	8002968 <_ZdlPv>

08002774 <_ZNK10__cxxabiv117__class_type_info11__do_upcastEPKS0_PKvRNS0_15__upcast_resultE>:
 8002774:	21000117 	ldw	r4,4(r4)
 8002778:	29400117 	ldw	r5,4(r5)
 800277c:	defffd04 	addi	sp,sp,-12
 8002780:	dc400115 	stw	r17,4(sp)
 8002784:	dc000015 	stw	r16,0(sp)
 8002788:	dfc00215 	stw	ra,8(sp)
 800278c:	3023883a 	mov	r17,r6
 8002790:	3821883a 	mov	r16,r7
 8002794:	21400b26 	beq	r4,r5,80027c4 <_ZNK10__cxxabiv117__class_type_info11__do_upcastEPKS0_PKvRNS0_15__upcast_resultE+0x50>
 8002798:	20c00007 	ldb	r3,0(r4)
 800279c:	00800a84 	movi	r2,42
 80027a0:	18800226 	beq	r3,r2,80027ac <_ZNK10__cxxabiv117__class_type_info11__do_upcastEPKS0_PKvRNS0_15__upcast_resultE+0x38>
 80027a4:	80048340 	call	8004834 <strcmp>
 80027a8:	10000626 	beq	r2,zero,80027c4 <_ZNK10__cxxabiv117__class_type_info11__do_upcastEPKS0_PKvRNS0_15__upcast_resultE+0x50>
 80027ac:	0005883a 	mov	r2,zero
 80027b0:	dfc00217 	ldw	ra,8(sp)
 80027b4:	dc400117 	ldw	r17,4(sp)
 80027b8:	dc000017 	ldw	r16,0(sp)
 80027bc:	dec00304 	addi	sp,sp,12
 80027c0:	f800283a 	ret
 80027c4:	00800204 	movi	r2,8
 80027c8:	80800315 	stw	r2,12(r16)
 80027cc:	00800184 	movi	r2,6
 80027d0:	80800115 	stw	r2,4(r16)
 80027d4:	84400015 	stw	r17,0(r16)
 80027d8:	00800044 	movi	r2,1
 80027dc:	003ff406 	br	80027b0 <__alt_data_end+0xfc0027b0>

080027e0 <_ZNK10__cxxabiv117__class_type_info10__do_catchEPKSt9type_infoPPvj>:
 80027e0:	20800117 	ldw	r2,4(r4)
 80027e4:	28c00117 	ldw	r3,4(r5)
 80027e8:	10c02926 	beq	r2,r3,8002890 <_ZNK10__cxxabiv117__class_type_info10__do_catchEPKSt9type_infoPPvj+0xb0>
 80027ec:	defffb04 	addi	sp,sp,-20
 80027f0:	dcc00315 	stw	r19,12(sp)
 80027f4:	dc800215 	stw	r18,8(sp)
 80027f8:	dc400115 	stw	r17,4(sp)
 80027fc:	dc000015 	stw	r16,0(sp)
 8002800:	dfc00415 	stw	ra,16(sp)
 8002804:	2821883a 	mov	r16,r5
 8002808:	11400007 	ldb	r5,0(r2)
 800280c:	2025883a 	mov	r18,r4
 8002810:	01000a84 	movi	r4,42
 8002814:	3823883a 	mov	r17,r7
 8002818:	3027883a 	mov	r19,r6
 800281c:	29000426 	beq	r5,r4,8002830 <_ZNK10__cxxabiv117__class_type_info10__do_catchEPKSt9type_infoPPvj+0x50>
 8002820:	1009883a 	mov	r4,r2
 8002824:	180b883a 	mov	r5,r3
 8002828:	80048340 	call	8004834 <strcmp>
 800282c:	10000a26 	beq	r2,zero,8002858 <_ZNK10__cxxabiv117__class_type_info10__do_catchEPKSt9type_infoPPvj+0x78>
 8002830:	008000c4 	movi	r2,3
 8002834:	14400a2e 	bgeu	r2,r17,8002860 <_ZNK10__cxxabiv117__class_type_info10__do_catchEPKSt9type_infoPPvj+0x80>
 8002838:	0005883a 	mov	r2,zero
 800283c:	dfc00417 	ldw	ra,16(sp)
 8002840:	dcc00317 	ldw	r19,12(sp)
 8002844:	dc800217 	ldw	r18,8(sp)
 8002848:	dc400117 	ldw	r17,4(sp)
 800284c:	dc000017 	ldw	r16,0(sp)
 8002850:	dec00504 	addi	sp,sp,20
 8002854:	f800283a 	ret
 8002858:	00800044 	movi	r2,1
 800285c:	003ff706 	br	800283c <__alt_data_end+0xfc00283c>
 8002860:	80800017 	ldw	r2,0(r16)
 8002864:	8009883a 	mov	r4,r16
 8002868:	900b883a 	mov	r5,r18
 800286c:	10800517 	ldw	r2,20(r2)
 8002870:	980d883a 	mov	r6,r19
 8002874:	dfc00417 	ldw	ra,16(sp)
 8002878:	dcc00317 	ldw	r19,12(sp)
 800287c:	dc800217 	ldw	r18,8(sp)
 8002880:	dc400117 	ldw	r17,4(sp)
 8002884:	dc000017 	ldw	r16,0(sp)
 8002888:	dec00504 	addi	sp,sp,20
 800288c:	1000683a 	jmp	r2
 8002890:	00800044 	movi	r2,1
 8002894:	f800283a 	ret

08002898 <_ZNK10__cxxabiv117__class_type_info12__do_dyncastEiNS0_10__sub_kindEPKS0_PKvS3_S5_RNS0_16__dyncast_resultE>:
 8002898:	defffb04 	addi	sp,sp,-20
 800289c:	dc400315 	stw	r17,12(sp)
 80028a0:	d8800717 	ldw	r2,28(sp)
 80028a4:	dc400517 	ldw	r17,20(sp)
 80028a8:	dc000215 	stw	r16,8(sp)
 80028ac:	dfc00415 	stw	ra,16(sp)
 80028b0:	24000117 	ldw	r16,4(r4)
 80028b4:	88801026 	beq	r17,r2,80028f8 <_ZNK10__cxxabiv117__class_type_info12__do_dyncastEiNS0_10__sub_kindEPKS0_PKvS3_S5_RNS0_16__dyncast_resultE+0x60>
 80028b8:	39400117 	ldw	r5,4(r7)
 80028bc:	81401d26 	beq	r16,r5,8002934 <_ZNK10__cxxabiv117__class_type_info12__do_dyncastEiNS0_10__sub_kindEPKS0_PKvS3_S5_RNS0_16__dyncast_resultE+0x9c>
 80028c0:	80c00007 	ldb	r3,0(r16)
 80028c4:	00800a84 	movi	r2,42
 80028c8:	18800526 	beq	r3,r2,80028e0 <_ZNK10__cxxabiv117__class_type_info12__do_dyncastEiNS0_10__sub_kindEPKS0_PKvS3_S5_RNS0_16__dyncast_resultE+0x48>
 80028cc:	8009883a 	mov	r4,r16
 80028d0:	d9800115 	stw	r6,4(sp)
 80028d4:	80048340 	call	8004834 <strcmp>
 80028d8:	d9800117 	ldw	r6,4(sp)
 80028dc:	10001526 	beq	r2,zero,8002934 <_ZNK10__cxxabiv117__class_type_info12__do_dyncastEiNS0_10__sub_kindEPKS0_PKvS3_S5_RNS0_16__dyncast_resultE+0x9c>
 80028e0:	0005883a 	mov	r2,zero
 80028e4:	dfc00417 	ldw	ra,16(sp)
 80028e8:	dc400317 	ldw	r17,12(sp)
 80028ec:	dc000217 	ldw	r16,8(sp)
 80028f0:	dec00504 	addi	sp,sp,20
 80028f4:	f800283a 	ret
 80028f8:	d8800617 	ldw	r2,24(sp)
 80028fc:	11400117 	ldw	r5,4(r2)
 8002900:	81401326 	beq	r16,r5,8002950 <_ZNK10__cxxabiv117__class_type_info12__do_dyncastEiNS0_10__sub_kindEPKS0_PKvS3_S5_RNS0_16__dyncast_resultE+0xb8>
 8002904:	80c00007 	ldb	r3,0(r16)
 8002908:	00800a84 	movi	r2,42
 800290c:	18801326 	beq	r3,r2,800295c <_ZNK10__cxxabiv117__class_type_info12__do_dyncastEiNS0_10__sub_kindEPKS0_PKvS3_S5_RNS0_16__dyncast_resultE+0xc4>
 8002910:	8009883a 	mov	r4,r16
 8002914:	d9800115 	stw	r6,4(sp)
 8002918:	d9c00015 	stw	r7,0(sp)
 800291c:	80048340 	call	8004834 <strcmp>
 8002920:	d9800117 	ldw	r6,4(sp)
 8002924:	d9c00017 	ldw	r7,0(sp)
 8002928:	10000926 	beq	r2,zero,8002950 <_ZNK10__cxxabiv117__class_type_info12__do_dyncastEiNS0_10__sub_kindEPKS0_PKvS3_S5_RNS0_16__dyncast_resultE+0xb8>
 800292c:	39400117 	ldw	r5,4(r7)
 8002930:	817fe61e 	bne	r16,r5,80028cc <__alt_data_end+0xfc0028cc>
 8002934:	d8800817 	ldw	r2,32(sp)
 8002938:	d8c00817 	ldw	r3,32(sp)
 800293c:	14400015 	stw	r17,0(r2)
 8002940:	11800115 	stw	r6,4(r2)
 8002944:	00800044 	movi	r2,1
 8002948:	18800315 	stw	r2,12(r3)
 800294c:	003fe406 	br	80028e0 <__alt_data_end+0xfc0028e0>
 8002950:	d8800817 	ldw	r2,32(sp)
 8002954:	11800215 	stw	r6,8(r2)
 8002958:	003fe106 	br	80028e0 <__alt_data_end+0xfc0028e0>
 800295c:	38800117 	ldw	r2,4(r7)
 8002960:	80bfdf1e 	bne	r16,r2,80028e0 <__alt_data_end+0xfc0028e0>
 8002964:	003ff306 	br	8002934 <__alt_data_end+0xfc002934>

08002968 <_ZdlPv>:
 8002968:	80038f81 	jmpi	80038f8 <free>

0800296c <_ZN10__cxxabiv111__terminateEPFvvE>:
 800296c:	00820034 	movhi	r2,2048
 8002970:	deffef04 	addi	sp,sp,-68
 8002974:	1087d504 	addi	r2,r2,8020
 8002978:	d8800615 	stw	r2,24(sp)
 800297c:	008200b4 	movhi	r2,2050
 8002980:	10b62704 	addi	r2,r2,-10084
 8002984:	d8800715 	stw	r2,28(sp)
 8002988:	00820034 	movhi	r2,2048
 800298c:	108a7104 	addi	r2,r2,10692
 8002990:	d9000d15 	stw	r4,52(sp)
 8002994:	d809883a 	mov	r4,sp
 8002998:	d8800915 	stw	r2,36(sp)
 800299c:	dfc01015 	stw	ra,64(sp)
 80029a0:	df000f15 	stw	fp,60(sp)
 80029a4:	dec00815 	stw	sp,32(sp)
 80029a8:	dec00a15 	stw	sp,40(sp)
 80029ac:	800357c0 	call	800357c <_Unwind_SjLj_Register>
 80029b0:	00800044 	movi	r2,1
 80029b4:	d8800115 	stw	r2,4(sp)
 80029b8:	d8800d17 	ldw	r2,52(sp)
 80029bc:	103ee83a 	callr	r2
 80029c0:	80038940 	call	8003894 <abort>
 80029c4:	d8c00217 	ldw	r3,8(sp)
 80029c8:	d8800117 	ldw	r2,4(sp)
 80029cc:	d8c00d15 	stw	r3,52(sp)
 80029d0:	d8c00317 	ldw	r3,12(sp)
 80029d4:	d8c00e15 	stw	r3,56(sp)
 80029d8:	10000b26 	beq	r2,zero,8002a08 <_ZN10__cxxabiv111__terminateEPFvvE+0x9c>
 80029dc:	10bfffc4 	addi	r2,r2,-1
 80029e0:	10000126 	beq	r2,zero,80029e8 <_ZN10__cxxabiv111__terminateEPFvvE+0x7c>
 80029e4:	003da0fa 	break	3
 80029e8:	d8000115 	stw	zero,4(sp)
 80029ec:	8002e340 	call	8002e34 <__cxa_end_catch>
 80029f0:	d8c00e17 	ldw	r3,56(sp)
 80029f4:	00bfffc4 	movi	r2,-1
 80029f8:	18800826 	beq	r3,r2,8002a1c <_ZN10__cxxabiv111__terminateEPFvvE+0xb0>
 80029fc:	d9000d17 	ldw	r4,52(sp)
 8002a00:	d8800115 	stw	r2,4(sp)
 8002a04:	80037780 	call	8003778 <_Unwind_SjLj_Resume>
 8002a08:	d9000d17 	ldw	r4,52(sp)
 8002a0c:	8002d800 	call	8002d80 <__cxa_begin_catch>
 8002a10:	00800084 	movi	r2,2
 8002a14:	d8800115 	stw	r2,4(sp)
 8002a18:	80038940 	call	8003894 <abort>
 8002a1c:	d8800e17 	ldw	r2,56(sp)
 8002a20:	d9000d17 	ldw	r4,52(sp)
 8002a24:	d8800115 	stw	r2,4(sp)
 8002a28:	80024540 	call	8002454 <__cxa_call_unexpected>

08002a2c <_ZSt9terminatev>:
 8002a2c:	008200b4 	movhi	r2,2050
 8002a30:	10808504 	addi	r2,r2,532
 8002a34:	11000017 	ldw	r4,0(r2)
 8002a38:	deffff04 	addi	sp,sp,-4
 8002a3c:	dfc00015 	stw	ra,0(sp)
 8002a40:	800296c0 	call	800296c <_ZN10__cxxabiv111__terminateEPFvvE>

08002a44 <_ZN10__cxxabiv112__unexpectedEPFvvE>:
 8002a44:	deffff04 	addi	sp,sp,-4
 8002a48:	dfc00015 	stw	ra,0(sp)
 8002a4c:	203ee83a 	callr	r4
 8002a50:	8002a2c0 	call	8002a2c <_ZSt9terminatev>

08002a54 <_ZSt10unexpectedv>:
 8002a54:	008200b4 	movhi	r2,2050
 8002a58:	10808e04 	addi	r2,r2,568
 8002a5c:	11000017 	ldw	r4,0(r2)
 8002a60:	deffff04 	addi	sp,sp,-4
 8002a64:	dfc00015 	stw	ra,0(sp)
 8002a68:	8002a440 	call	8002a44 <_ZN10__cxxabiv112__unexpectedEPFvvE>

08002a6c <_ZSt13set_terminatePFvvE>:
 8002a6c:	00c200b4 	movhi	r3,2050
 8002a70:	18c08504 	addi	r3,r3,532
 8002a74:	18800017 	ldw	r2,0(r3)
 8002a78:	19000015 	stw	r4,0(r3)
 8002a7c:	f800283a 	ret

08002a80 <_ZSt13get_terminatev>:
 8002a80:	008200b4 	movhi	r2,2050
 8002a84:	10808504 	addi	r2,r2,532
 8002a88:	10800017 	ldw	r2,0(r2)
 8002a8c:	f800283a 	ret

08002a90 <_ZSt14set_unexpectedPFvvE>:
 8002a90:	00c200b4 	movhi	r3,2050
 8002a94:	18c08e04 	addi	r3,r3,568
 8002a98:	18800017 	ldw	r2,0(r3)
 8002a9c:	19000015 	stw	r4,0(r3)
 8002aa0:	f800283a 	ret

08002aa4 <_ZSt14get_unexpectedv>:
 8002aa4:	008200b4 	movhi	r2,2050
 8002aa8:	10808e04 	addi	r2,r2,568
 8002aac:	10800017 	ldw	r2,0(r2)
 8002ab0:	f800283a 	ret

08002ab4 <_ZN10__cxxabiv120__si_class_type_infoD1Ev>:
 8002ab4:	008200b4 	movhi	r2,2050
 8002ab8:	10b77404 	addi	r2,r2,-8752
 8002abc:	20800015 	stw	r2,0(r4)
 8002ac0:	80027301 	jmpi	8002730 <_ZN10__cxxabiv117__class_type_infoD1Ev>

08002ac4 <_ZN10__cxxabiv120__si_class_type_infoD0Ev>:
 8002ac4:	defffe04 	addi	sp,sp,-8
 8002ac8:	008200b4 	movhi	r2,2050
 8002acc:	dc000015 	stw	r16,0(sp)
 8002ad0:	dfc00115 	stw	ra,4(sp)
 8002ad4:	10b77404 	addi	r2,r2,-8752
 8002ad8:	20800015 	stw	r2,0(r4)
 8002adc:	2021883a 	mov	r16,r4
 8002ae0:	80027300 	call	8002730 <_ZN10__cxxabiv117__class_type_infoD1Ev>
 8002ae4:	8009883a 	mov	r4,r16
 8002ae8:	dfc00117 	ldw	ra,4(sp)
 8002aec:	dc000017 	ldw	r16,0(sp)
 8002af0:	dec00204 	addi	sp,sp,8
 8002af4:	80029681 	jmpi	8002968 <_ZdlPv>

08002af8 <_ZNK10__cxxabiv120__si_class_type_info12__do_dyncastEiNS_17__class_type_info10__sub_kindEPKS1_PKvS4_S6_RNS1_16__dyncast_resultE>:
 8002af8:	defff504 	addi	sp,sp,-44
 8002afc:	dc000115 	stw	r16,4(sp)
 8002b00:	38800117 	ldw	r2,4(r7)
 8002b04:	24000117 	ldw	r16,4(r4)
 8002b08:	ddc00815 	stw	r23,32(sp)
 8002b0c:	dd800715 	stw	r22,28(sp)
 8002b10:	dd400615 	stw	r21,24(sp)
 8002b14:	dd000515 	stw	r20,20(sp)
 8002b18:	dcc00415 	stw	r19,16(sp)
 8002b1c:	dc800315 	stw	r18,12(sp)
 8002b20:	dc400215 	stw	r17,8(sp)
 8002b24:	dfc00a15 	stw	ra,40(sp)
 8002b28:	df000915 	stw	fp,36(sp)
 8002b2c:	202b883a 	mov	r21,r4
 8002b30:	382d883a 	mov	r22,r7
 8002b34:	2823883a 	mov	r17,r5
 8002b38:	dc800b17 	ldw	r18,44(sp)
 8002b3c:	ddc00c17 	ldw	r23,48(sp)
 8002b40:	dd000d17 	ldw	r20,52(sp)
 8002b44:	dcc00e17 	ldw	r19,56(sp)
 8002b48:	80801f26 	beq	r16,r2,8002bc8 <_ZNK10__cxxabiv120__si_class_type_info12__do_dyncastEiNS_17__class_type_info10__sub_kindEPKS1_PKvS4_S6_RNS1_16__dyncast_resultE+0xd0>
 8002b4c:	87000007 	ldb	fp,0(r16)
 8002b50:	00c00a84 	movi	r3,42
 8002b54:	e0c00626 	beq	fp,r3,8002b70 <_ZNK10__cxxabiv120__si_class_type_info12__do_dyncastEiNS_17__class_type_info10__sub_kindEPKS1_PKvS4_S6_RNS1_16__dyncast_resultE+0x78>
 8002b58:	8009883a 	mov	r4,r16
 8002b5c:	100b883a 	mov	r5,r2
 8002b60:	d9800015 	stw	r6,0(sp)
 8002b64:	80048340 	call	8004834 <strcmp>
 8002b68:	d9800017 	ldw	r6,0(sp)
 8002b6c:	10001626 	beq	r2,zero,8002bc8 <_ZNK10__cxxabiv120__si_class_type_info12__do_dyncastEiNS_17__class_type_info10__sub_kindEPKS1_PKvS4_S6_RNS1_16__dyncast_resultE+0xd0>
 8002b70:	95002c26 	beq	r18,r20,8002c24 <_ZNK10__cxxabiv120__si_class_type_info12__do_dyncastEiNS_17__class_type_info10__sub_kindEPKS1_PKvS4_S6_RNS1_16__dyncast_resultE+0x12c>
 8002b74:	a9000217 	ldw	r4,8(r21)
 8002b78:	880b883a 	mov	r5,r17
 8002b7c:	b00f883a 	mov	r7,r22
 8002b80:	20800017 	ldw	r2,0(r4)
 8002b84:	dc800b15 	stw	r18,44(sp)
 8002b88:	ddc00c15 	stw	r23,48(sp)
 8002b8c:	dd000d15 	stw	r20,52(sp)
 8002b90:	dcc00e15 	stw	r19,56(sp)
 8002b94:	10800717 	ldw	r2,28(r2)
 8002b98:	dfc00a17 	ldw	ra,40(sp)
 8002b9c:	df000917 	ldw	fp,36(sp)
 8002ba0:	ddc00817 	ldw	r23,32(sp)
 8002ba4:	dd800717 	ldw	r22,28(sp)
 8002ba8:	dd400617 	ldw	r21,24(sp)
 8002bac:	dd000517 	ldw	r20,20(sp)
 8002bb0:	dcc00417 	ldw	r19,16(sp)
 8002bb4:	dc800317 	ldw	r18,12(sp)
 8002bb8:	dc400217 	ldw	r17,8(sp)
 8002bbc:	dc000117 	ldw	r16,4(sp)
 8002bc0:	dec00b04 	addi	sp,sp,44
 8002bc4:	1000683a 	jmp	r2
 8002bc8:	9c800015 	stw	r18,0(r19)
 8002bcc:	99800115 	stw	r6,4(r19)
 8002bd0:	88001116 	blt	r17,zero,8002c18 <_ZNK10__cxxabiv120__si_class_type_info12__do_dyncastEiNS_17__class_type_info10__sub_kindEPKS1_PKvS4_S6_RNS1_16__dyncast_resultE+0x120>
 8002bd4:	9463883a 	add	r17,r18,r17
 8002bd8:	a4401d26 	beq	r20,r17,8002c50 <_ZNK10__cxxabiv120__si_class_type_info12__do_dyncastEiNS_17__class_type_info10__sub_kindEPKS1_PKvS4_S6_RNS1_16__dyncast_resultE+0x158>
 8002bdc:	00800044 	movi	r2,1
 8002be0:	98800315 	stw	r2,12(r19)
 8002be4:	0005883a 	mov	r2,zero
 8002be8:	dfc00a17 	ldw	ra,40(sp)
 8002bec:	df000917 	ldw	fp,36(sp)
 8002bf0:	ddc00817 	ldw	r23,32(sp)
 8002bf4:	dd800717 	ldw	r22,28(sp)
 8002bf8:	dd400617 	ldw	r21,24(sp)
 8002bfc:	dd000517 	ldw	r20,20(sp)
 8002c00:	dcc00417 	ldw	r19,16(sp)
 8002c04:	dc800317 	ldw	r18,12(sp)
 8002c08:	dc400217 	ldw	r17,8(sp)
 8002c0c:	dc000117 	ldw	r16,4(sp)
 8002c10:	dec00b04 	addi	sp,sp,44
 8002c14:	f800283a 	ret
 8002c18:	00bfff84 	movi	r2,-2
 8002c1c:	88bff11e 	bne	r17,r2,8002be4 <__alt_data_end+0xfc002be4>
 8002c20:	003fee06 	br	8002bdc <__alt_data_end+0xfc002bdc>
 8002c24:	b9400117 	ldw	r5,4(r23)
 8002c28:	81400726 	beq	r16,r5,8002c48 <_ZNK10__cxxabiv120__si_class_type_info12__do_dyncastEiNS_17__class_type_info10__sub_kindEPKS1_PKvS4_S6_RNS1_16__dyncast_resultE+0x150>
 8002c2c:	00800a84 	movi	r2,42
 8002c30:	e0bfd026 	beq	fp,r2,8002b74 <__alt_data_end+0xfc002b74>
 8002c34:	8009883a 	mov	r4,r16
 8002c38:	d9800015 	stw	r6,0(sp)
 8002c3c:	80048340 	call	8004834 <strcmp>
 8002c40:	d9800017 	ldw	r6,0(sp)
 8002c44:	103fcb1e 	bne	r2,zero,8002b74 <__alt_data_end+0xfc002b74>
 8002c48:	99800215 	stw	r6,8(r19)
 8002c4c:	003fe506 	br	8002be4 <__alt_data_end+0xfc002be4>
 8002c50:	00800184 	movi	r2,6
 8002c54:	003fe206 	br	8002be0 <__alt_data_end+0xfc002be0>

08002c58 <_ZNK10__cxxabiv120__si_class_type_info20__do_find_public_srcEiPKvPKNS_17__class_type_infoES2_>:
 8002c58:	defffa04 	addi	sp,sp,-24
 8002c5c:	dc000215 	stw	r16,8(sp)
 8002c60:	dc000617 	ldw	r16,24(sp)
 8002c64:	dc800415 	stw	r18,16(sp)
 8002c68:	dc400315 	stw	r17,12(sp)
 8002c6c:	dfc00515 	stw	ra,20(sp)
 8002c70:	2023883a 	mov	r17,r4
 8002c74:	2825883a 	mov	r18,r5
 8002c78:	81800b26 	beq	r16,r6,8002ca8 <_ZNK10__cxxabiv120__si_class_type_info20__do_find_public_srcEiPKvPKNS_17__class_type_infoES2_+0x50>
 8002c7c:	89000217 	ldw	r4,8(r17)
 8002c80:	900b883a 	mov	r5,r18
 8002c84:	20800017 	ldw	r2,0(r4)
 8002c88:	dc000615 	stw	r16,24(sp)
 8002c8c:	10800817 	ldw	r2,32(r2)
 8002c90:	dfc00517 	ldw	ra,20(sp)
 8002c94:	dc800417 	ldw	r18,16(sp)
 8002c98:	dc400317 	ldw	r17,12(sp)
 8002c9c:	dc000217 	ldw	r16,8(sp)
 8002ca0:	dec00604 	addi	sp,sp,24
 8002ca4:	1000683a 	jmp	r2
 8002ca8:	21000117 	ldw	r4,4(r4)
 8002cac:	39400117 	ldw	r5,4(r7)
 8002cb0:	21400926 	beq	r4,r5,8002cd8 <_ZNK10__cxxabiv120__si_class_type_info20__do_find_public_srcEiPKvPKNS_17__class_type_infoES2_+0x80>
 8002cb4:	20c00007 	ldb	r3,0(r4)
 8002cb8:	00800a84 	movi	r2,42
 8002cbc:	18bfef26 	beq	r3,r2,8002c7c <__alt_data_end+0xfc002c7c>
 8002cc0:	d9800015 	stw	r6,0(sp)
 8002cc4:	d9c00115 	stw	r7,4(sp)
 8002cc8:	80048340 	call	8004834 <strcmp>
 8002ccc:	d9800017 	ldw	r6,0(sp)
 8002cd0:	d9c00117 	ldw	r7,4(sp)
 8002cd4:	103fe91e 	bne	r2,zero,8002c7c <__alt_data_end+0xfc002c7c>
 8002cd8:	00800184 	movi	r2,6
 8002cdc:	dfc00517 	ldw	ra,20(sp)
 8002ce0:	dc800417 	ldw	r18,16(sp)
 8002ce4:	dc400317 	ldw	r17,12(sp)
 8002ce8:	dc000217 	ldw	r16,8(sp)
 8002cec:	dec00604 	addi	sp,sp,24
 8002cf0:	f800283a 	ret

08002cf4 <_ZNK10__cxxabiv120__si_class_type_info11__do_upcastEPKNS_17__class_type_infoEPKvRNS1_15__upcast_resultE>:
 8002cf4:	defffb04 	addi	sp,sp,-20
 8002cf8:	dcc00315 	stw	r19,12(sp)
 8002cfc:	dc800215 	stw	r18,8(sp)
 8002d00:	dc400115 	stw	r17,4(sp)
 8002d04:	dc000015 	stw	r16,0(sp)
 8002d08:	dfc00415 	stw	ra,16(sp)
 8002d0c:	2027883a 	mov	r19,r4
 8002d10:	2825883a 	mov	r18,r5
 8002d14:	3023883a 	mov	r17,r6
 8002d18:	3821883a 	mov	r16,r7
 8002d1c:	80027740 	call	8002774 <_ZNK10__cxxabiv117__class_type_info11__do_upcastEPKS0_PKvRNS0_15__upcast_resultE>
 8002d20:	10c03fcc 	andi	r3,r2,255
 8002d24:	18000726 	beq	r3,zero,8002d44 <_ZNK10__cxxabiv120__si_class_type_info11__do_upcastEPKNS_17__class_type_infoEPKvRNS1_15__upcast_resultE+0x50>
 8002d28:	dfc00417 	ldw	ra,16(sp)
 8002d2c:	dcc00317 	ldw	r19,12(sp)
 8002d30:	dc800217 	ldw	r18,8(sp)
 8002d34:	dc400117 	ldw	r17,4(sp)
 8002d38:	dc000017 	ldw	r16,0(sp)
 8002d3c:	dec00504 	addi	sp,sp,20
 8002d40:	f800283a 	ret
 8002d44:	99000217 	ldw	r4,8(r19)
 8002d48:	900b883a 	mov	r5,r18
 8002d4c:	880d883a 	mov	r6,r17
 8002d50:	20800017 	ldw	r2,0(r4)
 8002d54:	800f883a 	mov	r7,r16
 8002d58:	10800617 	ldw	r2,24(r2)
 8002d5c:	dfc00417 	ldw	ra,16(sp)
 8002d60:	dcc00317 	ldw	r19,12(sp)
 8002d64:	dc800217 	ldw	r18,8(sp)
 8002d68:	dc400117 	ldw	r17,4(sp)
 8002d6c:	dc000017 	ldw	r16,0(sp)
 8002d70:	dec00504 	addi	sp,sp,20
 8002d74:	1000683a 	jmp	r2

08002d78 <__cxa_get_exception_ptr>:
 8002d78:	20bfff17 	ldw	r2,-4(r4)
 8002d7c:	f800283a 	ret

08002d80 <__cxa_begin_catch>:
 8002d80:	defffe04 	addi	sp,sp,-8
 8002d84:	dc000015 	stw	r16,0(sp)
 8002d88:	dfc00115 	stw	ra,4(sp)
 8002d8c:	2021883a 	mov	r16,r4
 8002d90:	80026940 	call	8002694 <__cxa_get_globals>
 8002d94:	81000017 	ldw	r4,0(r16)
 8002d98:	80c00117 	ldw	r3,4(r16)
 8002d9c:	01af3574 	movhi	r6,48341
 8002da0:	31b54004 	addi	r6,r6,-11008
 8002da4:	016e2cb4 	movhi	r5,47282
 8002da8:	296aaf04 	addi	r5,r5,-21828
 8002dac:	218d883a 	add	r6,r4,r6
 8002db0:	3109803a 	cmpltu	r4,r6,r4
 8002db4:	1947883a 	add	r3,r3,r5
 8002db8:	20c7883a 	add	r3,r4,r3
 8002dbc:	817ff504 	addi	r5,r16,-44
 8002dc0:	11000017 	ldw	r4,0(r2)
 8002dc4:	18000726 	beq	r3,zero,8002de4 <__cxa_begin_catch+0x64>
 8002dc8:	2000191e 	bne	r4,zero,8002e30 <__cxa_begin_catch+0xb0>
 8002dcc:	11400015 	stw	r5,0(r2)
 8002dd0:	0005883a 	mov	r2,zero
 8002dd4:	dfc00117 	ldw	ra,4(sp)
 8002dd8:	dc000017 	ldw	r16,0(sp)
 8002ddc:	dec00204 	addi	sp,sp,8
 8002de0:	f800283a 	ret
 8002de4:	01c00044 	movi	r7,1
 8002de8:	39bff736 	bltu	r7,r6,8002dc8 <__alt_data_end+0xfc002dc8>
 8002dec:	80fffa17 	ldw	r3,-24(r16)
 8002df0:	18000d16 	blt	r3,zero,8002e28 <__cxa_begin_catch+0xa8>
 8002df4:	18c00044 	addi	r3,r3,1
 8002df8:	11800117 	ldw	r6,4(r2)
 8002dfc:	80fffa15 	stw	r3,-24(r16)
 8002e00:	30ffffc4 	addi	r3,r6,-1
 8002e04:	10c00115 	stw	r3,4(r2)
 8002e08:	21400226 	beq	r4,r5,8002e14 <__cxa_begin_catch+0x94>
 8002e0c:	813ff915 	stw	r4,-28(r16)
 8002e10:	11400015 	stw	r5,0(r2)
 8002e14:	80bfff17 	ldw	r2,-4(r16)
 8002e18:	dfc00117 	ldw	ra,4(sp)
 8002e1c:	dc000017 	ldw	r16,0(sp)
 8002e20:	dec00204 	addi	sp,sp,8
 8002e24:	f800283a 	ret
 8002e28:	38c7c83a 	sub	r3,r7,r3
 8002e2c:	003ff206 	br	8002df8 <__alt_data_end+0xfc002df8>
 8002e30:	8002a2c0 	call	8002a2c <_ZSt9terminatev>

08002e34 <__cxa_end_catch>:
 8002e34:	deffff04 	addi	sp,sp,-4
 8002e38:	dfc00015 	stw	ra,0(sp)
 8002e3c:	80026880 	call	8002688 <__cxa_get_globals_fast>
 8002e40:	11000017 	ldw	r4,0(r2)
 8002e44:	20001326 	beq	r4,zero,8002e94 <__cxa_end_catch+0x60>
 8002e48:	21400b17 	ldw	r5,44(r4)
 8002e4c:	01ef3574 	movhi	r7,48341
 8002e50:	39f54004 	addi	r7,r7,-11008
 8002e54:	29cf883a 	add	r7,r5,r7
 8002e58:	20c00c17 	ldw	r3,48(r4)
 8002e5c:	394d803a 	cmpltu	r6,r7,r5
 8002e60:	016e2cb4 	movhi	r5,47282
 8002e64:	296aaf04 	addi	r5,r5,-21828
 8002e68:	1947883a 	add	r3,r3,r5
 8002e6c:	30c7883a 	add	r3,r6,r3
 8002e70:	18000b1e 	bne	r3,zero,8002ea0 <__cxa_end_catch+0x6c>
 8002e74:	00c00044 	movi	r3,1
 8002e78:	19c00936 	bltu	r3,r7,8002ea0 <__cxa_end_catch+0x6c>
 8002e7c:	20c00517 	ldw	r3,20(r4)
 8002e80:	18000c16 	blt	r3,zero,8002eb4 <__cxa_end_catch+0x80>
 8002e84:	197fffc4 	addi	r5,r3,-1
 8002e88:	28000f26 	beq	r5,zero,8002ec8 <__cxa_end_catch+0x94>
 8002e8c:	18001426 	beq	r3,zero,8002ee0 <__cxa_end_catch+0xac>
 8002e90:	21400515 	stw	r5,20(r4)
 8002e94:	dfc00017 	ldw	ra,0(sp)
 8002e98:	dec00104 	addi	sp,sp,4
 8002e9c:	f800283a 	ret
 8002ea0:	21000b04 	addi	r4,r4,44
 8002ea4:	10000015 	stw	zero,0(r2)
 8002ea8:	dfc00017 	ldw	ra,0(sp)
 8002eac:	dec00104 	addi	sp,sp,4
 8002eb0:	80038081 	jmpi	8003808 <_Unwind_DeleteException>
 8002eb4:	19400044 	addi	r5,r3,1
 8002eb8:	283ff51e 	bne	r5,zero,8002e90 <__alt_data_end+0xfc002e90>
 8002ebc:	20c00417 	ldw	r3,16(r4)
 8002ec0:	10c00015 	stw	r3,0(r2)
 8002ec4:	003ff206 	br	8002e90 <__alt_data_end+0xfc002e90>
 8002ec8:	20c00417 	ldw	r3,16(r4)
 8002ecc:	21000b04 	addi	r4,r4,44
 8002ed0:	10c00015 	stw	r3,0(r2)
 8002ed4:	dfc00017 	ldw	ra,0(sp)
 8002ed8:	dec00104 	addi	sp,sp,4
 8002edc:	80038081 	jmpi	8003808 <_Unwind_DeleteException>
 8002ee0:	8002a2c0 	call	8002a2c <_ZSt9terminatev>

08002ee4 <_ZSt18uncaught_exceptionv>:
 8002ee4:	deffff04 	addi	sp,sp,-4
 8002ee8:	dfc00015 	stw	ra,0(sp)
 8002eec:	80026940 	call	8002694 <__cxa_get_globals>
 8002ef0:	10800117 	ldw	r2,4(r2)
 8002ef4:	1004c03a 	cmpne	r2,r2,zero
 8002ef8:	dfc00017 	ldw	ra,0(sp)
 8002efc:	dec00104 	addi	sp,sp,4
 8002f00:	f800283a 	ret

08002f04 <__cxa_call_terminate>:
 8002f04:	defffe04 	addi	sp,sp,-8
 8002f08:	dc000015 	stw	r16,0(sp)
 8002f0c:	dfc00115 	stw	ra,4(sp)
 8002f10:	2021883a 	mov	r16,r4
 8002f14:	20000c26 	beq	r4,zero,8002f48 <__cxa_call_terminate+0x44>
 8002f18:	8002d800 	call	8002d80 <__cxa_begin_catch>
 8002f1c:	80c00017 	ldw	r3,0(r16)
 8002f20:	012f3574 	movhi	r4,48341
 8002f24:	21354004 	addi	r4,r4,-11008
 8002f28:	1909883a 	add	r4,r3,r4
 8002f2c:	80800117 	ldw	r2,4(r16)
 8002f30:	20cb803a 	cmpltu	r5,r4,r3
 8002f34:	00ee2cb4 	movhi	r3,47282
 8002f38:	18eaaf04 	addi	r3,r3,-21828
 8002f3c:	10c5883a 	add	r2,r2,r3
 8002f40:	2885883a 	add	r2,r5,r2
 8002f44:	10000126 	beq	r2,zero,8002f4c <__cxa_call_terminate+0x48>
 8002f48:	8002a2c0 	call	8002a2c <_ZSt9terminatev>
 8002f4c:	00800044 	movi	r2,1
 8002f50:	113ffd36 	bltu	r2,r4,8002f48 <__alt_data_end+0xfc002f48>
 8002f54:	813ff817 	ldw	r4,-32(r16)
 8002f58:	800296c0 	call	800296c <_ZN10__cxxabiv111__terminateEPFvvE>

08002f5c <_ZL23__gxx_exception_cleanup19_Unwind_Reason_CodeP17_Unwind_Exception>:
 8002f5c:	defffe04 	addi	sp,sp,-8
 8002f60:	dfc00115 	stw	ra,4(sp)
 8002f64:	dc000015 	stw	r16,0(sp)
 8002f68:	00800044 	movi	r2,1
 8002f6c:	11000a36 	bltu	r2,r4,8002f98 <_ZL23__gxx_exception_cleanup19_Unwind_Reason_CodeP17_Unwind_Exception+0x3c>
 8002f70:	28bff617 	ldw	r2,-40(r5)
 8002f74:	2c000504 	addi	r16,r5,20
 8002f78:	10000226 	beq	r2,zero,8002f84 <_ZL23__gxx_exception_cleanup19_Unwind_Reason_CodeP17_Unwind_Exception+0x28>
 8002f7c:	8009883a 	mov	r4,r16
 8002f80:	103ee83a 	callr	r2
 8002f84:	8009883a 	mov	r4,r16
 8002f88:	dfc00117 	ldw	ra,4(sp)
 8002f8c:	dc000017 	ldw	r16,0(sp)
 8002f90:	dec00204 	addi	sp,sp,8
 8002f94:	80031bc1 	jmpi	80031bc <__cxa_free_exception>
 8002f98:	293ff817 	ldw	r4,-32(r5)
 8002f9c:	800296c0 	call	800296c <_ZN10__cxxabiv111__terminateEPFvvE>

08002fa0 <__cxa_throw>:
 8002fa0:	defffb04 	addi	sp,sp,-20
 8002fa4:	dfc00415 	stw	ra,16(sp)
 8002fa8:	dcc00315 	stw	r19,12(sp)
 8002fac:	dc800215 	stw	r18,8(sp)
 8002fb0:	2827883a 	mov	r19,r5
 8002fb4:	3025883a 	mov	r18,r6
 8002fb8:	dc400115 	stw	r17,4(sp)
 8002fbc:	dc000015 	stw	r16,0(sp)
 8002fc0:	2021883a 	mov	r16,r4
 8002fc4:	80026940 	call	8002694 <__cxa_get_globals>
 8002fc8:	10c00117 	ldw	r3,4(r2)
 8002fcc:	847ffb04 	addi	r17,r16,-20
 8002fd0:	18c00044 	addi	r3,r3,1
 8002fd4:	10c00115 	stw	r3,4(r2)
 8002fd8:	00800044 	movi	r2,1
 8002fdc:	80bfef15 	stw	r2,-68(r16)
 8002fe0:	84fff015 	stw	r19,-64(r16)
 8002fe4:	84bff115 	stw	r18,-60(r16)
 8002fe8:	8002aa40 	call	8002aa4 <_ZSt14get_unexpectedv>
 8002fec:	80bff215 	stw	r2,-56(r16)
 8002ff0:	8002a800 	call	8002a80 <_ZSt13get_terminatev>
 8002ff4:	80bff315 	stw	r2,-52(r16)
 8002ff8:	0090caf4 	movhi	r2,17195
 8002ffc:	108ac004 	addi	r2,r2,11008
 8003000:	80bffb15 	stw	r2,-20(r16)
 8003004:	0091d3b4 	movhi	r2,18254
 8003008:	109550c4 	addi	r2,r2,21827
 800300c:	80bffc15 	stw	r2,-16(r16)
 8003010:	00820034 	movhi	r2,2048
 8003014:	108bd704 	addi	r2,r2,12124
 8003018:	8809883a 	mov	r4,r17
 800301c:	80bffd15 	stw	r2,-12(r16)
 8003020:	80036640 	call	8003664 <_Unwind_SjLj_RaiseException>
 8003024:	8809883a 	mov	r4,r17
 8003028:	8002d800 	call	8002d80 <__cxa_begin_catch>
 800302c:	8002a2c0 	call	8002a2c <_ZSt9terminatev>

08003030 <__cxa_rethrow>:
 8003030:	defffe04 	addi	sp,sp,-8
 8003034:	dfc00115 	stw	ra,4(sp)
 8003038:	dc000015 	stw	r16,0(sp)
 800303c:	80026940 	call	8002694 <__cxa_get_globals>
 8003040:	10c00117 	ldw	r3,4(r2)
 8003044:	11000017 	ldw	r4,0(r2)
 8003048:	18c00044 	addi	r3,r3,1
 800304c:	10c00115 	stw	r3,4(r2)
 8003050:	20001126 	beq	r4,zero,8003098 <__cxa_rethrow+0x68>
 8003054:	21400b17 	ldw	r5,44(r4)
 8003058:	01ef3574 	movhi	r7,48341
 800305c:	39f54004 	addi	r7,r7,-11008
 8003060:	29cf883a 	add	r7,r5,r7
 8003064:	20c00c17 	ldw	r3,48(r4)
 8003068:	394d803a 	cmpltu	r6,r7,r5
 800306c:	016e2cb4 	movhi	r5,47282
 8003070:	296aaf04 	addi	r5,r5,-21828
 8003074:	1947883a 	add	r3,r3,r5
 8003078:	30c7883a 	add	r3,r6,r3
 800307c:	18000726 	beq	r3,zero,800309c <__cxa_rethrow+0x6c>
 8003080:	10000015 	stw	zero,0(r2)
 8003084:	24000b04 	addi	r16,r4,44
 8003088:	8009883a 	mov	r4,r16
 800308c:	80037bc0 	call	80037bc <_Unwind_SjLj_Resume_or_Rethrow>
 8003090:	8009883a 	mov	r4,r16
 8003094:	8002d800 	call	8002d80 <__cxa_begin_catch>
 8003098:	8002a2c0 	call	8002a2c <_ZSt9terminatev>
 800309c:	00c00044 	movi	r3,1
 80030a0:	19fff736 	bltu	r3,r7,8003080 <__alt_data_end+0xfc003080>
 80030a4:	20800517 	ldw	r2,20(r4)
 80030a8:	0085c83a 	sub	r2,zero,r2
 80030ac:	20800515 	stw	r2,20(r4)
 80030b0:	003ff406 	br	8003084 <__alt_data_end+0xfc003084>

080030b4 <_ZNSt9type_infoD1Ev>:
 80030b4:	f800283a 	ret

080030b8 <_ZNKSt9type_info14__is_pointer_pEv>:
 80030b8:	0005883a 	mov	r2,zero
 80030bc:	f800283a 	ret

080030c0 <_ZNKSt9type_info15__is_function_pEv>:
 80030c0:	0005883a 	mov	r2,zero
 80030c4:	f800283a 	ret

080030c8 <_ZNKSt9type_info11__do_upcastEPKN10__cxxabiv117__class_type_infoEPPv>:
 80030c8:	0005883a 	mov	r2,zero
 80030cc:	f800283a 	ret

080030d0 <_ZNSt9type_infoD0Ev>:
 80030d0:	80029681 	jmpi	8002968 <_ZdlPv>

080030d4 <_ZNKSt9type_info10__do_catchEPKS_PPvj>:
 80030d4:	21000117 	ldw	r4,4(r4)
 80030d8:	29400117 	ldw	r5,4(r5)
 80030dc:	21400c26 	beq	r4,r5,8003110 <_ZNKSt9type_info10__do_catchEPKS_PPvj+0x3c>
 80030e0:	20c00007 	ldb	r3,0(r4)
 80030e4:	00800a84 	movi	r2,42
 80030e8:	18800726 	beq	r3,r2,8003108 <_ZNKSt9type_info10__do_catchEPKS_PPvj+0x34>
 80030ec:	deffff04 	addi	sp,sp,-4
 80030f0:	dfc00015 	stw	ra,0(sp)
 80030f4:	80048340 	call	8004834 <strcmp>
 80030f8:	1005003a 	cmpeq	r2,r2,zero
 80030fc:	dfc00017 	ldw	ra,0(sp)
 8003100:	dec00104 	addi	sp,sp,4
 8003104:	f800283a 	ret
 8003108:	0005883a 	mov	r2,zero
 800310c:	f800283a 	ret
 8003110:	00800044 	movi	r2,1
 8003114:	f800283a 	ret

08003118 <__cxa_allocate_exception>:
 8003118:	defffd04 	addi	sp,sp,-12
 800311c:	dc400115 	stw	r17,4(sp)
 8003120:	24401104 	addi	r17,r4,68
 8003124:	8809883a 	mov	r4,r17
 8003128:	dc000015 	stw	r16,0(sp)
 800312c:	dfc00215 	stw	ra,8(sp)
 8003130:	80038e40 	call	80038e4 <malloc>
 8003134:	1021883a 	mov	r16,r2
 8003138:	10000a26 	beq	r2,zero,8003164 <__cxa_allocate_exception+0x4c>
 800313c:	8009883a 	mov	r4,r16
 8003140:	000b883a 	mov	r5,zero
 8003144:	01801104 	movi	r6,68
 8003148:	80040b40 	call	80040b4 <memset>
 800314c:	80801104 	addi	r2,r16,68
 8003150:	dfc00217 	ldw	ra,8(sp)
 8003154:	dc400117 	ldw	r17,4(sp)
 8003158:	dc000017 	ldw	r16,0(sp)
 800315c:	dec00304 	addi	sp,sp,12
 8003160:	f800283a 	ret
 8003164:	014200b4 	movhi	r5,2050
 8003168:	2947de04 	addi	r5,r5,8056
 800316c:	00808004 	movi	r2,512
 8003170:	29800017 	ldw	r6,0(r5)
 8003174:	14400736 	bltu	r2,r17,8003194 <__cxa_allocate_exception+0x7c>
 8003178:	3005883a 	mov	r2,r6
 800317c:	01000104 	movi	r4,4
 8003180:	10c0004c 	andi	r3,r2,1
 8003184:	18000426 	beq	r3,zero,8003198 <__cxa_allocate_exception+0x80>
 8003188:	84000044 	addi	r16,r16,1
 800318c:	1004d07a 	srli	r2,r2,1
 8003190:	813ffb1e 	bne	r16,r4,8003180 <__alt_data_end+0xfc003180>
 8003194:	8002a2c0 	call	8002a2c <_ZSt9terminatev>
 8003198:	00800044 	movi	r2,1
 800319c:	1404983a 	sll	r2,r2,r16
 80031a0:	8020927a 	slli	r16,r16,9
 80031a4:	118cb03a 	or	r6,r2,r6
 80031a8:	008200b4 	movhi	r2,2050
 80031ac:	10883104 	addi	r2,r2,8388
 80031b0:	29800015 	stw	r6,0(r5)
 80031b4:	80a1883a 	add	r16,r16,r2
 80031b8:	003fe006 	br	800313c <__alt_data_end+0xfc00313c>

080031bc <__cxa_free_exception>:
 80031bc:	008200b4 	movhi	r2,2050
 80031c0:	10883104 	addi	r2,r2,8388
 80031c4:	20800236 	bltu	r4,r2,80031d0 <__cxa_free_exception+0x14>
 80031c8:	10c20004 	addi	r3,r2,2048
 80031cc:	20c00236 	bltu	r4,r3,80031d8 <__cxa_free_exception+0x1c>
 80031d0:	213fef04 	addi	r4,r4,-68
 80031d4:	80038f81 	jmpi	80038f8 <free>
 80031d8:	2089c83a 	sub	r4,r4,r2
 80031dc:	2008d27a 	srli	r4,r4,9
 80031e0:	014200b4 	movhi	r5,2050
 80031e4:	2947de04 	addi	r5,r5,8056
 80031e8:	00ffff84 	movi	r3,-2
 80031ec:	28800017 	ldw	r2,0(r5)
 80031f0:	1908183a 	rol	r4,r3,r4
 80031f4:	2088703a 	and	r4,r4,r2
 80031f8:	29000015 	stw	r4,0(r5)
 80031fc:	f800283a 	ret

08003200 <__cxa_allocate_dependent_exception>:
 8003200:	defffe04 	addi	sp,sp,-8
 8003204:	01001004 	movi	r4,64
 8003208:	dc000015 	stw	r16,0(sp)
 800320c:	dfc00115 	stw	ra,4(sp)
 8003210:	80038e40 	call	80038e4 <malloc>
 8003214:	1021883a 	mov	r16,r2
 8003218:	10000926 	beq	r2,zero,8003240 <__cxa_allocate_dependent_exception+0x40>
 800321c:	8009883a 	mov	r4,r16
 8003220:	000b883a 	mov	r5,zero
 8003224:	01801004 	movi	r6,64
 8003228:	80040b40 	call	80040b4 <memset>
 800322c:	8005883a 	mov	r2,r16
 8003230:	dfc00117 	ldw	ra,4(sp)
 8003234:	dc000017 	ldw	r16,0(sp)
 8003238:	dec00204 	addi	sp,sp,8
 800323c:	f800283a 	ret
 8003240:	01c200b4 	movhi	r7,2050
 8003244:	39c7dd04 	addi	r7,r7,8052
 8003248:	39800017 	ldw	r6,0(r7)
 800324c:	0005883a 	mov	r2,zero
 8003250:	01400104 	movi	r5,4
 8003254:	3007883a 	mov	r3,r6
 8003258:	1900004c 	andi	r4,r3,1
 800325c:	20000426 	beq	r4,zero,8003270 <__cxa_allocate_dependent_exception+0x70>
 8003260:	10800044 	addi	r2,r2,1
 8003264:	1806d07a 	srli	r3,r3,1
 8003268:	117ffb1e 	bne	r2,r5,8003258 <__alt_data_end+0xfc003258>
 800326c:	8002a2c0 	call	8002a2c <_ZSt9terminatev>
 8003270:	00c00044 	movi	r3,1
 8003274:	1886983a 	sll	r3,r3,r2
 8003278:	100491ba 	slli	r2,r2,6
 800327c:	040200b4 	movhi	r16,2050
 8003280:	198cb03a 	or	r6,r3,r6
 8003284:	8407f104 	addi	r16,r16,8132
 8003288:	39800015 	stw	r6,0(r7)
 800328c:	1421883a 	add	r16,r2,r16
 8003290:	003fe206 	br	800321c <__alt_data_end+0xfc00321c>

08003294 <__cxa_free_dependent_exception>:
 8003294:	008200b4 	movhi	r2,2050
 8003298:	1087f104 	addi	r2,r2,8132
 800329c:	20800236 	bltu	r4,r2,80032a8 <__cxa_free_dependent_exception+0x14>
 80032a0:	10c04004 	addi	r3,r2,256
 80032a4:	20c00136 	bltu	r4,r3,80032ac <__cxa_free_dependent_exception+0x18>
 80032a8:	80038f81 	jmpi	80038f8 <free>
 80032ac:	2089c83a 	sub	r4,r4,r2
 80032b0:	2008d1ba 	srli	r4,r4,6
 80032b4:	014200b4 	movhi	r5,2050
 80032b8:	2947dd04 	addi	r5,r5,8052
 80032bc:	00ffff84 	movi	r3,-2
 80032c0:	28800017 	ldw	r2,0(r5)
 80032c4:	1908183a 	rol	r4,r3,r4
 80032c8:	2088703a 	and	r4,r4,r2
 80032cc:	29000015 	stw	r4,0(r5)
 80032d0:	f800283a 	ret

080032d4 <_ZNSt9exceptionD1Ev>:
 80032d4:	f800283a 	ret

080032d8 <_ZNSt13bad_exceptionD1Ev>:
 80032d8:	f800283a 	ret

080032dc <_ZNKSt9exception4whatEv>:
 80032dc:	008200b4 	movhi	r2,2050
 80032e0:	10b78904 	addi	r2,r2,-8668
 80032e4:	f800283a 	ret

080032e8 <_ZNKSt13bad_exception4whatEv>:
 80032e8:	008200b4 	movhi	r2,2050
 80032ec:	10b78d04 	addi	r2,r2,-8652
 80032f0:	f800283a 	ret

080032f4 <_ZNSt9exceptionD0Ev>:
 80032f4:	80029681 	jmpi	8002968 <_ZdlPv>

080032f8 <_ZNSt13bad_exceptionD0Ev>:
 80032f8:	80029681 	jmpi	8002968 <_ZdlPv>

080032fc <_ZN10__cxxabiv115__forced_unwindD1Ev>:
 80032fc:	f800283a 	ret

08003300 <_ZN10__cxxabiv115__forced_unwindD0Ev>:
 8003300:	80029681 	jmpi	8002968 <_ZdlPv>

08003304 <_ZN10__cxxabiv119__foreign_exceptionD1Ev>:
 8003304:	f800283a 	ret

08003308 <_ZN10__cxxabiv119__foreign_exceptionD0Ev>:
 8003308:	80029681 	jmpi	8002968 <_ZdlPv>

0800330c <__cxa_pure_virtual>:
 800330c:	014200b4 	movhi	r5,2050
 8003310:	deffff04 	addi	sp,sp,-4
 8003314:	2977c304 	addi	r5,r5,-8436
 8003318:	01000084 	movi	r4,2
 800331c:	018006c4 	movi	r6,27
 8003320:	dfc00015 	stw	ra,0(sp)
 8003324:	801ae240 	call	801ae24 <write>
 8003328:	8002a2c0 	call	8002a2c <_ZSt9terminatev>

0800332c <__cxa_deleted_virtual>:
 800332c:	014200b4 	movhi	r5,2050
 8003330:	deffff04 	addi	sp,sp,-4
 8003334:	2977ca04 	addi	r5,r5,-8408
 8003338:	01000084 	movi	r4,2
 800333c:	01800784 	movi	r6,30
 8003340:	dfc00015 	stw	ra,0(sp)
 8003344:	801ae240 	call	801ae24 <write>
 8003348:	8002a2c0 	call	8002a2c <_ZSt9terminatev>

0800334c <__mulsi3>:
 800334c:	0005883a 	mov	r2,zero
 8003350:	20000726 	beq	r4,zero,8003370 <__mulsi3+0x24>
 8003354:	20c0004c 	andi	r3,r4,1
 8003358:	2008d07a 	srli	r4,r4,1
 800335c:	18000126 	beq	r3,zero,8003364 <__mulsi3+0x18>
 8003360:	1145883a 	add	r2,r2,r5
 8003364:	294b883a 	add	r5,r5,r5
 8003368:	203ffa1e 	bne	r4,zero,8003354 <__alt_data_end+0xfc003354>
 800336c:	f800283a 	ret
 8003370:	f800283a 	ret

08003374 <_Unwind_ForcedUnwind_Phase2>:
 8003374:	defff404 	addi	sp,sp,-48
 8003378:	dd800915 	stw	r22,36(sp)
 800337c:	058200b4 	movhi	r22,2050
 8003380:	ddc00a15 	stw	r23,40(sp)
 8003384:	dd400815 	stw	r21,32(sp)
 8003388:	dd000715 	stw	r20,28(sp)
 800338c:	dcc00615 	stw	r19,24(sp)
 8003390:	dc400415 	stw	r17,16(sp)
 8003394:	dc000315 	stw	r16,12(sp)
 8003398:	dfc00b15 	stw	ra,44(sp)
 800339c:	dc800515 	stw	r18,20(sp)
 80033a0:	2021883a 	mov	r16,r4
 80033a4:	2823883a 	mov	r17,r5
 80033a8:	24c00317 	ldw	r19,12(r4)
 80033ac:	25000417 	ldw	r20,16(r4)
 80033b0:	28c00017 	ldw	r3,0(r5)
 80033b4:	b587df04 	addi	r22,r22,8060
 80033b8:	054001c4 	movi	r21,7
 80033bc:	05c00204 	movi	r23,8
 80033c0:	00001606 	br	800341c <_Unwind_ForcedUnwind_Phase2+0xa8>
 80033c4:	81800017 	ldw	r6,0(r16)
 80033c8:	81c00117 	ldw	r7,4(r16)
 80033cc:	1c800617 	ldw	r18,24(r3)
 80033d0:	dc000015 	stw	r16,0(sp)
 80033d4:	dc400115 	stw	r17,4(sp)
 80033d8:	dd000215 	stw	r20,8(sp)
 80033dc:	983ee83a 	callr	r19
 80033e0:	01000044 	movi	r4,1
 80033e4:	01400284 	movi	r5,10
 80033e8:	1000241e 	bne	r2,zero,800347c <_Unwind_ForcedUnwind_Phase2+0x108>
 80033ec:	90000726 	beq	r18,zero,800340c <_Unwind_ForcedUnwind_Phase2+0x98>
 80033f0:	81800017 	ldw	r6,0(r16)
 80033f4:	81c00117 	ldw	r7,4(r16)
 80033f8:	dc000015 	stw	r16,0(sp)
 80033fc:	dc400115 	stw	r17,4(sp)
 8003400:	903ee83a 	callr	r18
 8003404:	15401f26 	beq	r2,r21,8003484 <_Unwind_ForcedUnwind_Phase2+0x110>
 8003408:	15c01c1e 	bne	r2,r23,800347c <_Unwind_ForcedUnwind_Phase2+0x108>
 800340c:	88800017 	ldw	r2,0(r17)
 8003410:	10c00017 	ldw	r3,0(r2)
 8003414:	b0c00015 	stw	r3,0(r22)
 8003418:	88c00015 	stw	r3,0(r17)
 800341c:	01000044 	movi	r4,1
 8003420:	01400284 	movi	r5,10
 8003424:	183fe71e 	bne	r3,zero,80033c4 <__alt_data_end+0xfc0033c4>
 8003428:	81800017 	ldw	r6,0(r16)
 800342c:	81c00117 	ldw	r7,4(r16)
 8003430:	01000044 	movi	r4,1
 8003434:	dc000015 	stw	r16,0(sp)
 8003438:	dc400115 	stw	r17,4(sp)
 800343c:	dd000215 	stw	r20,8(sp)
 8003440:	01400684 	movi	r5,26
 8003444:	983ee83a 	callr	r19
 8003448:	10000c1e 	bne	r2,zero,800347c <_Unwind_ForcedUnwind_Phase2+0x108>
 800344c:	00800144 	movi	r2,5
 8003450:	dfc00b17 	ldw	ra,44(sp)
 8003454:	ddc00a17 	ldw	r23,40(sp)
 8003458:	dd800917 	ldw	r22,36(sp)
 800345c:	dd400817 	ldw	r21,32(sp)
 8003460:	dd000717 	ldw	r20,28(sp)
 8003464:	dcc00617 	ldw	r19,24(sp)
 8003468:	dc800517 	ldw	r18,20(sp)
 800346c:	dc400417 	ldw	r17,16(sp)
 8003470:	dc000317 	ldw	r16,12(sp)
 8003474:	dec00c04 	addi	sp,sp,48
 8003478:	f800283a 	ret
 800347c:	00800084 	movi	r2,2
 8003480:	003ff306 	br	8003450 <__alt_data_end+0xfc003450>
 8003484:	a805883a 	mov	r2,r21
 8003488:	003ff106 	br	8003450 <__alt_data_end+0xfc003450>

0800348c <_Unwind_RaiseException_Phase2>:
 800348c:	28c00017 	ldw	r3,0(r5)
 8003490:	defff804 	addi	sp,sp,-32
 8003494:	dcc00515 	stw	r19,20(sp)
 8003498:	dc800415 	stw	r18,16(sp)
 800349c:	dc400315 	stw	r17,12(sp)
 80034a0:	dc000215 	stw	r16,8(sp)
 80034a4:	dfc00715 	stw	ra,28(sp)
 80034a8:	dd000615 	stw	r20,24(sp)
 80034ac:	2823883a 	mov	r17,r5
 80034b0:	2021883a 	mov	r16,r4
 80034b4:	048001c4 	movi	r18,7
 80034b8:	04c00204 	movi	r19,8
 80034bc:	18001326 	beq	r3,zero,800350c <_Unwind_RaiseException_Phase2+0x80>
 80034c0:	81000417 	ldw	r4,16(r16)
 80034c4:	1a000617 	ldw	r8,24(r3)
 80034c8:	19001c26 	beq	r3,r4,800353c <_Unwind_RaiseException_Phase2+0xb0>
 80034cc:	40000b26 	beq	r8,zero,80034fc <_Unwind_RaiseException_Phase2+0x70>
 80034d0:	01400084 	movi	r5,2
 80034d4:	0029883a 	mov	r20,zero
 80034d8:	81800017 	ldw	r6,0(r16)
 80034dc:	81c00117 	ldw	r7,4(r16)
 80034e0:	01000044 	movi	r4,1
 80034e4:	dc000015 	stw	r16,0(sp)
 80034e8:	dc400115 	stw	r17,4(sp)
 80034ec:	403ee83a 	callr	r8
 80034f0:	14800f26 	beq	r2,r18,8003530 <_Unwind_RaiseException_Phase2+0xa4>
 80034f4:	14c0051e 	bne	r2,r19,800350c <_Unwind_RaiseException_Phase2+0x80>
 80034f8:	a0000f1e 	bne	r20,zero,8003538 <_Unwind_RaiseException_Phase2+0xac>
 80034fc:	88c00017 	ldw	r3,0(r17)
 8003500:	18c00017 	ldw	r3,0(r3)
 8003504:	88c00015 	stw	r3,0(r17)
 8003508:	183fed1e 	bne	r3,zero,80034c0 <__alt_data_end+0xfc0034c0>
 800350c:	00800084 	movi	r2,2
 8003510:	dfc00717 	ldw	ra,28(sp)
 8003514:	dd000617 	ldw	r20,24(sp)
 8003518:	dcc00517 	ldw	r19,20(sp)
 800351c:	dc800417 	ldw	r18,16(sp)
 8003520:	dc400317 	ldw	r17,12(sp)
 8003524:	dc000217 	ldw	r16,8(sp)
 8003528:	dec00804 	addi	sp,sp,32
 800352c:	f800283a 	ret
 8003530:	9005883a 	mov	r2,r18
 8003534:	003ff606 	br	8003510 <__alt_data_end+0xfc003510>
 8003538:	80038940 	call	8003894 <abort>
 800353c:	403ffe26 	beq	r8,zero,8003538 <__alt_data_end+0xfc003538>
 8003540:	01400184 	movi	r5,6
 8003544:	05000104 	movi	r20,4
 8003548:	003fe306 	br	80034d8 <__alt_data_end+0xfc0034d8>

0800354c <uw_install_context.isra.1>:
 800354c:	20c00017 	ldw	r3,0(r4)
 8003550:	deffff04 	addi	sp,sp,-4
 8003554:	014200b4 	movhi	r5,2050
 8003558:	19000917 	ldw	r4,36(r3)
 800355c:	df000015 	stw	fp,0(sp)
 8003560:	18800804 	addi	r2,r3,32
 8003564:	d839883a 	mov	fp,sp
 8003568:	2947df04 	addi	r5,r5,8060
 800356c:	28c00015 	stw	r3,0(r5)
 8003570:	17000017 	ldw	fp,0(r2)
 8003574:	1ec00a17 	ldw	sp,40(r3)
 8003578:	2000683a 	jmp	r4

0800357c <_Unwind_SjLj_Register>:
 800357c:	008200b4 	movhi	r2,2050
 8003580:	1087df04 	addi	r2,r2,8060
 8003584:	10c00017 	ldw	r3,0(r2)
 8003588:	11000015 	stw	r4,0(r2)
 800358c:	20c00015 	stw	r3,0(r4)
 8003590:	f800283a 	ret

08003594 <_Unwind_SjLj_Unregister>:
 8003594:	20c00017 	ldw	r3,0(r4)
 8003598:	008200b4 	movhi	r2,2050
 800359c:	1087df04 	addi	r2,r2,8060
 80035a0:	10c00015 	stw	r3,0(r2)
 80035a4:	f800283a 	ret

080035a8 <_Unwind_GetGR>:
 80035a8:	20800017 	ldw	r2,0(r4)
 80035ac:	29400084 	addi	r5,r5,2
 80035b0:	294b883a 	add	r5,r5,r5
 80035b4:	294b883a 	add	r5,r5,r5
 80035b8:	114b883a 	add	r5,r2,r5
 80035bc:	28800017 	ldw	r2,0(r5)
 80035c0:	f800283a 	ret

080035c4 <_Unwind_GetCFA>:
 80035c4:	20800017 	ldw	r2,0(r4)
 80035c8:	10000226 	beq	r2,zero,80035d4 <_Unwind_GetCFA+0x10>
 80035cc:	10800a17 	ldw	r2,40(r2)
 80035d0:	f800283a 	ret
 80035d4:	0005883a 	mov	r2,zero
 80035d8:	f800283a 	ret

080035dc <_Unwind_SetGR>:
 80035dc:	20800017 	ldw	r2,0(r4)
 80035e0:	29400084 	addi	r5,r5,2
 80035e4:	294b883a 	add	r5,r5,r5
 80035e8:	294b883a 	add	r5,r5,r5
 80035ec:	114b883a 	add	r5,r2,r5
 80035f0:	29800015 	stw	r6,0(r5)
 80035f4:	f800283a 	ret

080035f8 <_Unwind_GetIP>:
 80035f8:	20800017 	ldw	r2,0(r4)
 80035fc:	10800117 	ldw	r2,4(r2)
 8003600:	10800044 	addi	r2,r2,1
 8003604:	f800283a 	ret

08003608 <_Unwind_GetIPInfo>:
 8003608:	20800017 	ldw	r2,0(r4)
 800360c:	28000015 	stw	zero,0(r5)
 8003610:	10000326 	beq	r2,zero,8003620 <_Unwind_GetIPInfo+0x18>
 8003614:	10800117 	ldw	r2,4(r2)
 8003618:	10800044 	addi	r2,r2,1
 800361c:	f800283a 	ret
 8003620:	0005883a 	mov	r2,zero
 8003624:	f800283a 	ret

08003628 <_Unwind_SetIP>:
 8003628:	20800017 	ldw	r2,0(r4)
 800362c:	297fffc4 	addi	r5,r5,-1
 8003630:	11400115 	stw	r5,4(r2)
 8003634:	f800283a 	ret

08003638 <_Unwind_GetLanguageSpecificData>:
 8003638:	20800017 	ldw	r2,0(r4)
 800363c:	10800717 	ldw	r2,28(r2)
 8003640:	f800283a 	ret

08003644 <_Unwind_GetRegionStart>:
 8003644:	0005883a 	mov	r2,zero
 8003648:	f800283a 	ret

0800364c <_Unwind_FindEnclosingFunction>:
 800364c:	0005883a 	mov	r2,zero
 8003650:	f800283a 	ret

08003654 <_Unwind_GetDataRelBase>:
 8003654:	0005883a 	mov	r2,zero
 8003658:	f800283a 	ret

0800365c <_Unwind_GetTextRelBase>:
 800365c:	0005883a 	mov	r2,zero
 8003660:	f800283a 	ret

08003664 <_Unwind_SjLj_RaiseException>:
 8003664:	008200b4 	movhi	r2,2050
 8003668:	defff804 	addi	sp,sp,-32
 800366c:	1087df04 	addi	r2,r2,8060
 8003670:	dc800515 	stw	r18,20(sp)
 8003674:	14800017 	ldw	r18,0(r2)
 8003678:	dfc00715 	stw	ra,28(sp)
 800367c:	dcc00615 	stw	r19,24(sp)
 8003680:	dc400415 	stw	r17,16(sp)
 8003684:	dc000315 	stw	r16,12(sp)
 8003688:	dc800215 	stw	r18,8(sp)
 800368c:	90001426 	beq	r18,zero,80036e0 <_Unwind_SjLj_RaiseException+0x7c>
 8003690:	2021883a 	mov	r16,r4
 8003694:	9005883a 	mov	r2,r18
 8003698:	04400184 	movi	r17,6
 800369c:	04c00204 	movi	r19,8
 80036a0:	10800617 	ldw	r2,24(r2)
 80036a4:	10000a26 	beq	r2,zero,80036d0 <_Unwind_SjLj_RaiseException+0x6c>
 80036a8:	81800017 	ldw	r6,0(r16)
 80036ac:	81c00117 	ldw	r7,4(r16)
 80036b0:	01000044 	movi	r4,1
 80036b4:	d8c00204 	addi	r3,sp,8
 80036b8:	dc000015 	stw	r16,0(sp)
 80036bc:	d8c00115 	stw	r3,4(sp)
 80036c0:	200b883a 	mov	r5,r4
 80036c4:	103ee83a 	callr	r2
 80036c8:	14400d26 	beq	r2,r17,8003700 <_Unwind_SjLj_RaiseException+0x9c>
 80036cc:	14c0171e 	bne	r2,r19,800372c <_Unwind_SjLj_RaiseException+0xc8>
 80036d0:	d8800217 	ldw	r2,8(sp)
 80036d4:	10800017 	ldw	r2,0(r2)
 80036d8:	d8800215 	stw	r2,8(sp)
 80036dc:	103ff01e 	bne	r2,zero,80036a0 <__alt_data_end+0xfc0036a0>
 80036e0:	00800144 	movi	r2,5
 80036e4:	dfc00717 	ldw	ra,28(sp)
 80036e8:	dcc00617 	ldw	r19,24(sp)
 80036ec:	dc800517 	ldw	r18,20(sp)
 80036f0:	dc400417 	ldw	r17,16(sp)
 80036f4:	dc000317 	ldw	r16,12(sp)
 80036f8:	dec00804 	addi	sp,sp,32
 80036fc:	f800283a 	ret
 8003700:	d8800217 	ldw	r2,8(sp)
 8003704:	80000315 	stw	zero,12(r16)
 8003708:	8009883a 	mov	r4,r16
 800370c:	80800415 	stw	r2,16(r16)
 8003710:	d9400204 	addi	r5,sp,8
 8003714:	dc800215 	stw	r18,8(sp)
 8003718:	800348c0 	call	800348c <_Unwind_RaiseException_Phase2>
 800371c:	00c001c4 	movi	r3,7
 8003720:	10fff01e 	bne	r2,r3,80036e4 <__alt_data_end+0xfc0036e4>
 8003724:	d9000204 	addi	r4,sp,8
 8003728:	800354c0 	call	800354c <uw_install_context.isra.1>
 800372c:	008000c4 	movi	r2,3
 8003730:	003fec06 	br	80036e4 <__alt_data_end+0xfc0036e4>

08003734 <_Unwind_SjLj_ForcedUnwind>:
 8003734:	00c200b4 	movhi	r3,2050
 8003738:	18c7df04 	addi	r3,r3,8060
 800373c:	defffe04 	addi	sp,sp,-8
 8003740:	18c00017 	ldw	r3,0(r3)
 8003744:	dfc00115 	stw	ra,4(sp)
 8003748:	21400315 	stw	r5,12(r4)
 800374c:	21800415 	stw	r6,16(r4)
 8003750:	d80b883a 	mov	r5,sp
 8003754:	d8c00015 	stw	r3,0(sp)
 8003758:	80033740 	call	8003374 <_Unwind_ForcedUnwind_Phase2>
 800375c:	00c001c4 	movi	r3,7
 8003760:	10c00326 	beq	r2,r3,8003770 <_Unwind_SjLj_ForcedUnwind+0x3c>
 8003764:	dfc00117 	ldw	ra,4(sp)
 8003768:	dec00204 	addi	sp,sp,8
 800376c:	f800283a 	ret
 8003770:	d809883a 	mov	r4,sp
 8003774:	800354c0 	call	800354c <uw_install_context.isra.1>

08003778 <_Unwind_SjLj_Resume>:
 8003778:	00c200b4 	movhi	r3,2050
 800377c:	18c7df04 	addi	r3,r3,8060
 8003780:	18c00017 	ldw	r3,0(r3)
 8003784:	20800317 	ldw	r2,12(r4)
 8003788:	defffe04 	addi	sp,sp,-8
 800378c:	dfc00115 	stw	ra,4(sp)
 8003790:	d8c00015 	stw	r3,0(sp)
 8003794:	d80b883a 	mov	r5,sp
 8003798:	1000041e 	bne	r2,zero,80037ac <_Unwind_SjLj_Resume+0x34>
 800379c:	800348c0 	call	800348c <_Unwind_RaiseException_Phase2>
 80037a0:	00c001c4 	movi	r3,7
 80037a4:	10c00326 	beq	r2,r3,80037b4 <_Unwind_SjLj_Resume+0x3c>
 80037a8:	80038940 	call	8003894 <abort>
 80037ac:	80033740 	call	8003374 <_Unwind_ForcedUnwind_Phase2>
 80037b0:	003ffb06 	br	80037a0 <__alt_data_end+0xfc0037a0>
 80037b4:	d809883a 	mov	r4,sp
 80037b8:	800354c0 	call	800354c <uw_install_context.isra.1>

080037bc <_Unwind_SjLj_Resume_or_Rethrow>:
 80037bc:	20800317 	ldw	r2,12(r4)
 80037c0:	defffe04 	addi	sp,sp,-8
 80037c4:	dfc00115 	stw	ra,4(sp)
 80037c8:	1000041e 	bne	r2,zero,80037dc <_Unwind_SjLj_Resume_or_Rethrow+0x20>
 80037cc:	80036640 	call	8003664 <_Unwind_SjLj_RaiseException>
 80037d0:	dfc00117 	ldw	ra,4(sp)
 80037d4:	dec00204 	addi	sp,sp,8
 80037d8:	f800283a 	ret
 80037dc:	008200b4 	movhi	r2,2050
 80037e0:	1087df04 	addi	r2,r2,8060
 80037e4:	10800017 	ldw	r2,0(r2)
 80037e8:	d80b883a 	mov	r5,sp
 80037ec:	d8800015 	stw	r2,0(sp)
 80037f0:	80033740 	call	8003374 <_Unwind_ForcedUnwind_Phase2>
 80037f4:	00c001c4 	movi	r3,7
 80037f8:	10c00126 	beq	r2,r3,8003800 <_Unwind_SjLj_Resume_or_Rethrow+0x44>
 80037fc:	80038940 	call	8003894 <abort>
 8003800:	d809883a 	mov	r4,sp
 8003804:	800354c0 	call	800354c <uw_install_context.isra.1>

08003808 <_Unwind_DeleteException>:
 8003808:	20800217 	ldw	r2,8(r4)
 800380c:	200b883a 	mov	r5,r4
 8003810:	10000226 	beq	r2,zero,800381c <_Unwind_DeleteException+0x14>
 8003814:	01000044 	movi	r4,1
 8003818:	1000683a 	jmp	r2
 800381c:	f800283a 	ret

08003820 <_Unwind_Backtrace>:
 8003820:	008200b4 	movhi	r2,2050
 8003824:	1087df04 	addi	r2,r2,8060
 8003828:	10800017 	ldw	r2,0(r2)
 800382c:	defffc04 	addi	sp,sp,-16
 8003830:	dc400215 	stw	r17,8(sp)
 8003834:	dc000115 	stw	r16,4(sp)
 8003838:	dfc00315 	stw	ra,12(sp)
 800383c:	2023883a 	mov	r17,r4
 8003840:	2821883a 	mov	r16,r5
 8003844:	d8800015 	stw	r2,0(sp)
 8003848:	00000506 	br	8003860 <_Unwind_Backtrace+0x40>
 800384c:	883ee83a 	callr	r17
 8003850:	10000e1e 	bne	r2,zero,800388c <_Unwind_Backtrace+0x6c>
 8003854:	d8800017 	ldw	r2,0(sp)
 8003858:	10800017 	ldw	r2,0(r2)
 800385c:	d8800015 	stw	r2,0(sp)
 8003860:	d809883a 	mov	r4,sp
 8003864:	800b883a 	mov	r5,r16
 8003868:	103ff81e 	bne	r2,zero,800384c <__alt_data_end+0xfc00384c>
 800386c:	883ee83a 	callr	r17
 8003870:	1000061e 	bne	r2,zero,800388c <_Unwind_Backtrace+0x6c>
 8003874:	00800144 	movi	r2,5
 8003878:	dfc00317 	ldw	ra,12(sp)
 800387c:	dc400217 	ldw	r17,8(sp)
 8003880:	dc000117 	ldw	r16,4(sp)
 8003884:	dec00404 	addi	sp,sp,16
 8003888:	f800283a 	ret
 800388c:	008000c4 	movi	r2,3
 8003890:	003ff906 	br	8003878 <__alt_data_end+0xfc003878>

08003894 <abort>:
 8003894:	deffff04 	addi	sp,sp,-4
 8003898:	01000184 	movi	r4,6
 800389c:	dfc00015 	stw	ra,0(sp)
 80038a0:	80046380 	call	8004638 <raise>
 80038a4:	01000044 	movi	r4,1
 80038a8:	801a1b40 	call	801a1b4 <_exit>

080038ac <exit>:
 80038ac:	defffe04 	addi	sp,sp,-8
 80038b0:	000b883a 	mov	r5,zero
 80038b4:	dc000015 	stw	r16,0(sp)
 80038b8:	dfc00115 	stw	ra,4(sp)
 80038bc:	2021883a 	mov	r16,r4
 80038c0:	800acd40 	call	800acd4 <__call_exitprocs>
 80038c4:	008200b4 	movhi	r2,2050
 80038c8:	10808f04 	addi	r2,r2,572
 80038cc:	11000017 	ldw	r4,0(r2)
 80038d0:	20800f17 	ldw	r2,60(r4)
 80038d4:	10000126 	beq	r2,zero,80038dc <exit+0x30>
 80038d8:	103ee83a 	callr	r2
 80038dc:	8009883a 	mov	r4,r16
 80038e0:	801a1b40 	call	801a1b4 <_exit>

080038e4 <malloc>:
 80038e4:	008200b4 	movhi	r2,2050
 80038e8:	10809004 	addi	r2,r2,576
 80038ec:	200b883a 	mov	r5,r4
 80038f0:	11000017 	ldw	r4,0(r2)
 80038f4:	800390c1 	jmpi	800390c <_malloc_r>

080038f8 <free>:
 80038f8:	008200b4 	movhi	r2,2050
 80038fc:	10809004 	addi	r2,r2,576
 8003900:	200b883a 	mov	r5,r4
 8003904:	11000017 	ldw	r4,0(r2)
 8003908:	800d1781 	jmpi	800d178 <_free_r>

0800390c <_malloc_r>:
 800390c:	defff504 	addi	sp,sp,-44
 8003910:	dc800315 	stw	r18,12(sp)
 8003914:	dfc00a15 	stw	ra,40(sp)
 8003918:	df000915 	stw	fp,36(sp)
 800391c:	ddc00815 	stw	r23,32(sp)
 8003920:	dd800715 	stw	r22,28(sp)
 8003924:	dd400615 	stw	r21,24(sp)
 8003928:	dd000515 	stw	r20,20(sp)
 800392c:	dcc00415 	stw	r19,16(sp)
 8003930:	dc400215 	stw	r17,8(sp)
 8003934:	dc000115 	stw	r16,4(sp)
 8003938:	288002c4 	addi	r2,r5,11
 800393c:	00c00584 	movi	r3,22
 8003940:	2025883a 	mov	r18,r4
 8003944:	18802a2e 	bgeu	r3,r2,80039f0 <_malloc_r+0xe4>
 8003948:	047ffe04 	movi	r17,-8
 800394c:	1462703a 	and	r17,r2,r17
 8003950:	88009e16 	blt	r17,zero,8003bcc <_malloc_r+0x2c0>
 8003954:	89409d36 	bltu	r17,r5,8003bcc <_malloc_r+0x2c0>
 8003958:	801a8a40 	call	801a8a4 <__malloc_lock>
 800395c:	00807dc4 	movi	r2,503
 8003960:	14402736 	bltu	r2,r17,8003a00 <_malloc_r+0xf4>
 8003964:	8806d0fa 	srli	r3,r17,3
 8003968:	04c200b4 	movhi	r19,2050
 800396c:	9cfa7c04 	addi	r19,r19,-5648
 8003970:	18c5883a 	add	r2,r3,r3
 8003974:	1085883a 	add	r2,r2,r2
 8003978:	1085883a 	add	r2,r2,r2
 800397c:	9885883a 	add	r2,r19,r2
 8003980:	14000317 	ldw	r16,12(r2)
 8003984:	80814a26 	beq	r16,r2,8003eb0 <_malloc_r+0x5a4>
 8003988:	80c00117 	ldw	r3,4(r16)
 800398c:	81000317 	ldw	r4,12(r16)
 8003990:	00bfff04 	movi	r2,-4
 8003994:	1884703a 	and	r2,r3,r2
 8003998:	81400217 	ldw	r5,8(r16)
 800399c:	8085883a 	add	r2,r16,r2
 80039a0:	10c00117 	ldw	r3,4(r2)
 80039a4:	29000315 	stw	r4,12(r5)
 80039a8:	21400215 	stw	r5,8(r4)
 80039ac:	18c00054 	ori	r3,r3,1
 80039b0:	10c00115 	stw	r3,4(r2)
 80039b4:	9009883a 	mov	r4,r18
 80039b8:	801a8c40 	call	801a8c4 <__malloc_unlock>
 80039bc:	80800204 	addi	r2,r16,8
 80039c0:	dfc00a17 	ldw	ra,40(sp)
 80039c4:	df000917 	ldw	fp,36(sp)
 80039c8:	ddc00817 	ldw	r23,32(sp)
 80039cc:	dd800717 	ldw	r22,28(sp)
 80039d0:	dd400617 	ldw	r21,24(sp)
 80039d4:	dd000517 	ldw	r20,20(sp)
 80039d8:	dcc00417 	ldw	r19,16(sp)
 80039dc:	dc800317 	ldw	r18,12(sp)
 80039e0:	dc400217 	ldw	r17,8(sp)
 80039e4:	dc000117 	ldw	r16,4(sp)
 80039e8:	dec00b04 	addi	sp,sp,44
 80039ec:	f800283a 	ret
 80039f0:	04400404 	movi	r17,16
 80039f4:	89407536 	bltu	r17,r5,8003bcc <_malloc_r+0x2c0>
 80039f8:	801a8a40 	call	801a8a4 <__malloc_lock>
 80039fc:	003fd906 	br	8003964 <__alt_data_end+0xfc003964>
 8003a00:	8806d27a 	srli	r3,r17,9
 8003a04:	18007526 	beq	r3,zero,8003bdc <_malloc_r+0x2d0>
 8003a08:	00800104 	movi	r2,4
 8003a0c:	10c0ef36 	bltu	r2,r3,8003dcc <_malloc_r+0x4c0>
 8003a10:	8806d1ba 	srli	r3,r17,6
 8003a14:	19c00e04 	addi	r7,r3,56
 8003a18:	39cb883a 	add	r5,r7,r7
 8003a1c:	04c200b4 	movhi	r19,2050
 8003a20:	294b883a 	add	r5,r5,r5
 8003a24:	9cfa7c04 	addi	r19,r19,-5648
 8003a28:	294b883a 	add	r5,r5,r5
 8003a2c:	994b883a 	add	r5,r19,r5
 8003a30:	2c000317 	ldw	r16,12(r5)
 8003a34:	2c000e26 	beq	r5,r16,8003a70 <_malloc_r+0x164>
 8003a38:	80800117 	ldw	r2,4(r16)
 8003a3c:	01bfff04 	movi	r6,-4
 8003a40:	010003c4 	movi	r4,15
 8003a44:	1184703a 	and	r2,r2,r6
 8003a48:	1447c83a 	sub	r3,r2,r17
 8003a4c:	20c00716 	blt	r4,r3,8003a6c <_malloc_r+0x160>
 8003a50:	1800650e 	bge	r3,zero,8003be8 <_malloc_r+0x2dc>
 8003a54:	84000317 	ldw	r16,12(r16)
 8003a58:	2c000526 	beq	r5,r16,8003a70 <_malloc_r+0x164>
 8003a5c:	80800117 	ldw	r2,4(r16)
 8003a60:	1184703a 	and	r2,r2,r6
 8003a64:	1447c83a 	sub	r3,r2,r17
 8003a68:	20fff90e 	bge	r4,r3,8003a50 <__alt_data_end+0xfc003a50>
 8003a6c:	39ffffc4 	addi	r7,r7,-1
 8003a70:	38c00044 	addi	r3,r7,1
 8003a74:	018200b4 	movhi	r6,2050
 8003a78:	9c000417 	ldw	r16,16(r19)
 8003a7c:	31ba7c04 	addi	r6,r6,-5648
 8003a80:	32400204 	addi	r9,r6,8
 8003a84:	82410326 	beq	r16,r9,8003e94 <_malloc_r+0x588>
 8003a88:	81000117 	ldw	r4,4(r16)
 8003a8c:	00bfff04 	movi	r2,-4
 8003a90:	208e703a 	and	r7,r4,r2
 8003a94:	3c45c83a 	sub	r2,r7,r17
 8003a98:	010003c4 	movi	r4,15
 8003a9c:	2080ee16 	blt	r4,r2,8003e58 <_malloc_r+0x54c>
 8003aa0:	32400515 	stw	r9,20(r6)
 8003aa4:	32400415 	stw	r9,16(r6)
 8003aa8:	1000510e 	bge	r2,zero,8003bf0 <_malloc_r+0x2e4>
 8003aac:	00807fc4 	movi	r2,511
 8003ab0:	11c0ce36 	bltu	r2,r7,8003dec <_malloc_r+0x4e0>
 8003ab4:	3808d0fa 	srli	r4,r7,3
 8003ab8:	01c00044 	movi	r7,1
 8003abc:	30800117 	ldw	r2,4(r6)
 8003ac0:	210b883a 	add	r5,r4,r4
 8003ac4:	294b883a 	add	r5,r5,r5
 8003ac8:	2009d0ba 	srai	r4,r4,2
 8003acc:	294b883a 	add	r5,r5,r5
 8003ad0:	298b883a 	add	r5,r5,r6
 8003ad4:	2a000217 	ldw	r8,8(r5)
 8003ad8:	3908983a 	sll	r4,r7,r4
 8003adc:	81400315 	stw	r5,12(r16)
 8003ae0:	82000215 	stw	r8,8(r16)
 8003ae4:	2088b03a 	or	r4,r4,r2
 8003ae8:	2c000215 	stw	r16,8(r5)
 8003aec:	31000115 	stw	r4,4(r6)
 8003af0:	44000315 	stw	r16,12(r8)
 8003af4:	1805d0ba 	srai	r2,r3,2
 8003af8:	01400044 	movi	r5,1
 8003afc:	288a983a 	sll	r5,r5,r2
 8003b00:	21404336 	bltu	r4,r5,8003c10 <_malloc_r+0x304>
 8003b04:	2144703a 	and	r2,r4,r5
 8003b08:	10000a1e 	bne	r2,zero,8003b34 <_malloc_r+0x228>
 8003b0c:	00bfff04 	movi	r2,-4
 8003b10:	294b883a 	add	r5,r5,r5
 8003b14:	1886703a 	and	r3,r3,r2
 8003b18:	2144703a 	and	r2,r4,r5
 8003b1c:	18c00104 	addi	r3,r3,4
 8003b20:	1000041e 	bne	r2,zero,8003b34 <_malloc_r+0x228>
 8003b24:	294b883a 	add	r5,r5,r5
 8003b28:	2144703a 	and	r2,r4,r5
 8003b2c:	18c00104 	addi	r3,r3,4
 8003b30:	103ffc26 	beq	r2,zero,8003b24 <__alt_data_end+0xfc003b24>
 8003b34:	023fff04 	movi	r8,-4
 8003b38:	01c003c4 	movi	r7,15
 8003b3c:	18c5883a 	add	r2,r3,r3
 8003b40:	1085883a 	add	r2,r2,r2
 8003b44:	1085883a 	add	r2,r2,r2
 8003b48:	9895883a 	add	r10,r19,r2
 8003b4c:	52c00304 	addi	r11,r10,12
 8003b50:	1819883a 	mov	r12,r3
 8003b54:	5c000017 	ldw	r16,0(r11)
 8003b58:	59bffd04 	addi	r6,r11,-12
 8003b5c:	8180041e 	bne	r16,r6,8003b70 <_malloc_r+0x264>
 8003b60:	0000ce06 	br	8003e9c <_malloc_r+0x590>
 8003b64:	2000d70e 	bge	r4,zero,8003ec4 <_malloc_r+0x5b8>
 8003b68:	84000317 	ldw	r16,12(r16)
 8003b6c:	8180cb26 	beq	r16,r6,8003e9c <_malloc_r+0x590>
 8003b70:	80800117 	ldw	r2,4(r16)
 8003b74:	1204703a 	and	r2,r2,r8
 8003b78:	1449c83a 	sub	r4,r2,r17
 8003b7c:	393ff90e 	bge	r7,r4,8003b64 <__alt_data_end+0xfc003b64>
 8003b80:	80800317 	ldw	r2,12(r16)
 8003b84:	80c00217 	ldw	r3,8(r16)
 8003b88:	89400054 	ori	r5,r17,1
 8003b8c:	81400115 	stw	r5,4(r16)
 8003b90:	18800315 	stw	r2,12(r3)
 8003b94:	10c00215 	stw	r3,8(r2)
 8003b98:	8463883a 	add	r17,r16,r17
 8003b9c:	9c400515 	stw	r17,20(r19)
 8003ba0:	9c400415 	stw	r17,16(r19)
 8003ba4:	20800054 	ori	r2,r4,1
 8003ba8:	88800115 	stw	r2,4(r17)
 8003bac:	8a400315 	stw	r9,12(r17)
 8003bb0:	8a400215 	stw	r9,8(r17)
 8003bb4:	8923883a 	add	r17,r17,r4
 8003bb8:	89000015 	stw	r4,0(r17)
 8003bbc:	9009883a 	mov	r4,r18
 8003bc0:	801a8c40 	call	801a8c4 <__malloc_unlock>
 8003bc4:	80800204 	addi	r2,r16,8
 8003bc8:	003f7d06 	br	80039c0 <__alt_data_end+0xfc0039c0>
 8003bcc:	00800304 	movi	r2,12
 8003bd0:	90800015 	stw	r2,0(r18)
 8003bd4:	0005883a 	mov	r2,zero
 8003bd8:	003f7906 	br	80039c0 <__alt_data_end+0xfc0039c0>
 8003bdc:	01401f84 	movi	r5,126
 8003be0:	01c00fc4 	movi	r7,63
 8003be4:	003f8d06 	br	8003a1c <__alt_data_end+0xfc003a1c>
 8003be8:	81000317 	ldw	r4,12(r16)
 8003bec:	003f6a06 	br	8003998 <__alt_data_end+0xfc003998>
 8003bf0:	81c5883a 	add	r2,r16,r7
 8003bf4:	10c00117 	ldw	r3,4(r2)
 8003bf8:	9009883a 	mov	r4,r18
 8003bfc:	18c00054 	ori	r3,r3,1
 8003c00:	10c00115 	stw	r3,4(r2)
 8003c04:	801a8c40 	call	801a8c4 <__malloc_unlock>
 8003c08:	80800204 	addi	r2,r16,8
 8003c0c:	003f6c06 	br	80039c0 <__alt_data_end+0xfc0039c0>
 8003c10:	9c000217 	ldw	r16,8(r19)
 8003c14:	00bfff04 	movi	r2,-4
 8003c18:	85800117 	ldw	r22,4(r16)
 8003c1c:	b0ac703a 	and	r22,r22,r2
 8003c20:	b4400336 	bltu	r22,r17,8003c30 <_malloc_r+0x324>
 8003c24:	b445c83a 	sub	r2,r22,r17
 8003c28:	00c003c4 	movi	r3,15
 8003c2c:	18805d16 	blt	r3,r2,8003da4 <_malloc_r+0x498>
 8003c30:	05c200b4 	movhi	r23,2050
 8003c34:	008200b4 	movhi	r2,2050
 8003c38:	bdc09104 	addi	r23,r23,580
 8003c3c:	1087e204 	addi	r2,r2,8072
 8003c40:	15400017 	ldw	r21,0(r2)
 8003c44:	b9000017 	ldw	r4,0(r23)
 8003c48:	00ffffc4 	movi	r3,-1
 8003c4c:	858d883a 	add	r6,r16,r22
 8003c50:	8d6b883a 	add	r21,r17,r21
 8003c54:	20c0e426 	beq	r4,r3,8003fe8 <_malloc_r+0x6dc>
 8003c58:	ad4403c4 	addi	r21,r21,4111
 8003c5c:	00fc0004 	movi	r3,-4096
 8003c60:	a8ea703a 	and	r21,r21,r3
 8003c64:	9009883a 	mov	r4,r18
 8003c68:	a80b883a 	mov	r5,r21
 8003c6c:	d9800015 	stw	r6,0(sp)
 8003c70:	800432c0 	call	800432c <_sbrk_r>
 8003c74:	00ffffc4 	movi	r3,-1
 8003c78:	1029883a 	mov	r20,r2
 8003c7c:	d9800017 	ldw	r6,0(sp)
 8003c80:	10c0a426 	beq	r2,r3,8003f14 <_malloc_r+0x608>
 8003c84:	1180a236 	bltu	r2,r6,8003f10 <_malloc_r+0x604>
 8003c88:	070200b4 	movhi	fp,2050
 8003c8c:	e70a3104 	addi	fp,fp,10436
 8003c90:	e0c00017 	ldw	r3,0(fp)
 8003c94:	a8c7883a 	add	r3,r21,r3
 8003c98:	e0c00015 	stw	r3,0(fp)
 8003c9c:	3500da26 	beq	r6,r20,8004008 <_malloc_r+0x6fc>
 8003ca0:	b9000017 	ldw	r4,0(r23)
 8003ca4:	00bfffc4 	movi	r2,-1
 8003ca8:	2080e426 	beq	r4,r2,800403c <_malloc_r+0x730>
 8003cac:	a185c83a 	sub	r2,r20,r6
 8003cb0:	1885883a 	add	r2,r3,r2
 8003cb4:	e0800015 	stw	r2,0(fp)
 8003cb8:	a0c001cc 	andi	r3,r20,7
 8003cbc:	1800b526 	beq	r3,zero,8003f94 <_malloc_r+0x688>
 8003cc0:	a0e9c83a 	sub	r20,r20,r3
 8003cc4:	00840204 	movi	r2,4104
 8003cc8:	a5000204 	addi	r20,r20,8
 8003ccc:	10c7c83a 	sub	r3,r2,r3
 8003cd0:	a545883a 	add	r2,r20,r21
 8003cd4:	1083ffcc 	andi	r2,r2,4095
 8003cd8:	18abc83a 	sub	r21,r3,r2
 8003cdc:	9009883a 	mov	r4,r18
 8003ce0:	a80b883a 	mov	r5,r21
 8003ce4:	800432c0 	call	800432c <_sbrk_r>
 8003ce8:	00ffffc4 	movi	r3,-1
 8003cec:	10c0d026 	beq	r2,r3,8004030 <_malloc_r+0x724>
 8003cf0:	1507c83a 	sub	r3,r2,r20
 8003cf4:	a8c7883a 	add	r3,r21,r3
 8003cf8:	18c00054 	ori	r3,r3,1
 8003cfc:	e0800017 	ldw	r2,0(fp)
 8003d00:	9d000215 	stw	r20,8(r19)
 8003d04:	a0c00115 	stw	r3,4(r20)
 8003d08:	a887883a 	add	r3,r21,r2
 8003d0c:	e0c00015 	stw	r3,0(fp)
 8003d10:	84c00e26 	beq	r16,r19,8003d4c <_malloc_r+0x440>
 8003d14:	018003c4 	movi	r6,15
 8003d18:	3580a02e 	bgeu	r6,r22,8003f9c <_malloc_r+0x690>
 8003d1c:	81400117 	ldw	r5,4(r16)
 8003d20:	013ffe04 	movi	r4,-8
 8003d24:	b0bffd04 	addi	r2,r22,-12
 8003d28:	1104703a 	and	r2,r2,r4
 8003d2c:	2900004c 	andi	r4,r5,1
 8003d30:	1108b03a 	or	r4,r2,r4
 8003d34:	81000115 	stw	r4,4(r16)
 8003d38:	01400144 	movi	r5,5
 8003d3c:	8089883a 	add	r4,r16,r2
 8003d40:	21400115 	stw	r5,4(r4)
 8003d44:	21400215 	stw	r5,8(r4)
 8003d48:	3080c036 	bltu	r6,r2,800404c <_malloc_r+0x740>
 8003d4c:	008200b4 	movhi	r2,2050
 8003d50:	1087e104 	addi	r2,r2,8068
 8003d54:	11000017 	ldw	r4,0(r2)
 8003d58:	20c0012e 	bgeu	r4,r3,8003d60 <_malloc_r+0x454>
 8003d5c:	10c00015 	stw	r3,0(r2)
 8003d60:	008200b4 	movhi	r2,2050
 8003d64:	1087e004 	addi	r2,r2,8064
 8003d68:	11000017 	ldw	r4,0(r2)
 8003d6c:	9c000217 	ldw	r16,8(r19)
 8003d70:	20c0012e 	bgeu	r4,r3,8003d78 <_malloc_r+0x46c>
 8003d74:	10c00015 	stw	r3,0(r2)
 8003d78:	80c00117 	ldw	r3,4(r16)
 8003d7c:	00bfff04 	movi	r2,-4
 8003d80:	1886703a 	and	r3,r3,r2
 8003d84:	1c45c83a 	sub	r2,r3,r17
 8003d88:	1c400236 	bltu	r3,r17,8003d94 <_malloc_r+0x488>
 8003d8c:	00c003c4 	movi	r3,15
 8003d90:	18800416 	blt	r3,r2,8003da4 <_malloc_r+0x498>
 8003d94:	9009883a 	mov	r4,r18
 8003d98:	801a8c40 	call	801a8c4 <__malloc_unlock>
 8003d9c:	0005883a 	mov	r2,zero
 8003da0:	003f0706 	br	80039c0 <__alt_data_end+0xfc0039c0>
 8003da4:	88c00054 	ori	r3,r17,1
 8003da8:	80c00115 	stw	r3,4(r16)
 8003dac:	8463883a 	add	r17,r16,r17
 8003db0:	10800054 	ori	r2,r2,1
 8003db4:	9c400215 	stw	r17,8(r19)
 8003db8:	88800115 	stw	r2,4(r17)
 8003dbc:	9009883a 	mov	r4,r18
 8003dc0:	801a8c40 	call	801a8c4 <__malloc_unlock>
 8003dc4:	80800204 	addi	r2,r16,8
 8003dc8:	003efd06 	br	80039c0 <__alt_data_end+0xfc0039c0>
 8003dcc:	00800504 	movi	r2,20
 8003dd0:	10c0482e 	bgeu	r2,r3,8003ef4 <_malloc_r+0x5e8>
 8003dd4:	00801504 	movi	r2,84
 8003dd8:	10c06836 	bltu	r2,r3,8003f7c <_malloc_r+0x670>
 8003ddc:	8806d33a 	srli	r3,r17,12
 8003de0:	19c01b84 	addi	r7,r3,110
 8003de4:	39cb883a 	add	r5,r7,r7
 8003de8:	003f0c06 	br	8003a1c <__alt_data_end+0xfc003a1c>
 8003dec:	3804d27a 	srli	r2,r7,9
 8003df0:	01000104 	movi	r4,4
 8003df4:	2080422e 	bgeu	r4,r2,8003f00 <_malloc_r+0x5f4>
 8003df8:	01000504 	movi	r4,20
 8003dfc:	20807c36 	bltu	r4,r2,8003ff0 <_malloc_r+0x6e4>
 8003e00:	110016c4 	addi	r4,r2,91
 8003e04:	210b883a 	add	r5,r4,r4
 8003e08:	294b883a 	add	r5,r5,r5
 8003e0c:	294b883a 	add	r5,r5,r5
 8003e10:	994b883a 	add	r5,r19,r5
 8003e14:	28800217 	ldw	r2,8(r5)
 8003e18:	020200b4 	movhi	r8,2050
 8003e1c:	423a7c04 	addi	r8,r8,-5648
 8003e20:	11406326 	beq	r2,r5,8003fb0 <_malloc_r+0x6a4>
 8003e24:	01bfff04 	movi	r6,-4
 8003e28:	11000117 	ldw	r4,4(r2)
 8003e2c:	2188703a 	and	r4,r4,r6
 8003e30:	3900022e 	bgeu	r7,r4,8003e3c <_malloc_r+0x530>
 8003e34:	10800217 	ldw	r2,8(r2)
 8003e38:	28bffb1e 	bne	r5,r2,8003e28 <__alt_data_end+0xfc003e28>
 8003e3c:	11800317 	ldw	r6,12(r2)
 8003e40:	99000117 	ldw	r4,4(r19)
 8003e44:	81800315 	stw	r6,12(r16)
 8003e48:	80800215 	stw	r2,8(r16)
 8003e4c:	34000215 	stw	r16,8(r6)
 8003e50:	14000315 	stw	r16,12(r2)
 8003e54:	003f2706 	br	8003af4 <__alt_data_end+0xfc003af4>
 8003e58:	88c00054 	ori	r3,r17,1
 8003e5c:	80c00115 	stw	r3,4(r16)
 8003e60:	8463883a 	add	r17,r16,r17
 8003e64:	34400515 	stw	r17,20(r6)
 8003e68:	34400415 	stw	r17,16(r6)
 8003e6c:	10c00054 	ori	r3,r2,1
 8003e70:	8a400315 	stw	r9,12(r17)
 8003e74:	8a400215 	stw	r9,8(r17)
 8003e78:	88c00115 	stw	r3,4(r17)
 8003e7c:	88a3883a 	add	r17,r17,r2
 8003e80:	88800015 	stw	r2,0(r17)
 8003e84:	9009883a 	mov	r4,r18
 8003e88:	801a8c40 	call	801a8c4 <__malloc_unlock>
 8003e8c:	80800204 	addi	r2,r16,8
 8003e90:	003ecb06 	br	80039c0 <__alt_data_end+0xfc0039c0>
 8003e94:	31000117 	ldw	r4,4(r6)
 8003e98:	003f1606 	br	8003af4 <__alt_data_end+0xfc003af4>
 8003e9c:	63000044 	addi	r12,r12,1
 8003ea0:	608000cc 	andi	r2,r12,3
 8003ea4:	5ac00204 	addi	r11,r11,8
 8003ea8:	103f2a1e 	bne	r2,zero,8003b54 <__alt_data_end+0xfc003b54>
 8003eac:	00002106 	br	8003f34 <_malloc_r+0x628>
 8003eb0:	80800204 	addi	r2,r16,8
 8003eb4:	84000517 	ldw	r16,20(r16)
 8003eb8:	143eb31e 	bne	r2,r16,8003988 <__alt_data_end+0xfc003988>
 8003ebc:	18c00084 	addi	r3,r3,2
 8003ec0:	003eec06 	br	8003a74 <__alt_data_end+0xfc003a74>
 8003ec4:	8085883a 	add	r2,r16,r2
 8003ec8:	10c00117 	ldw	r3,4(r2)
 8003ecc:	81000317 	ldw	r4,12(r16)
 8003ed0:	81400217 	ldw	r5,8(r16)
 8003ed4:	18c00054 	ori	r3,r3,1
 8003ed8:	10c00115 	stw	r3,4(r2)
 8003edc:	29000315 	stw	r4,12(r5)
 8003ee0:	21400215 	stw	r5,8(r4)
 8003ee4:	9009883a 	mov	r4,r18
 8003ee8:	801a8c40 	call	801a8c4 <__malloc_unlock>
 8003eec:	80800204 	addi	r2,r16,8
 8003ef0:	003eb306 	br	80039c0 <__alt_data_end+0xfc0039c0>
 8003ef4:	19c016c4 	addi	r7,r3,91
 8003ef8:	39cb883a 	add	r5,r7,r7
 8003efc:	003ec706 	br	8003a1c <__alt_data_end+0xfc003a1c>
 8003f00:	3804d1ba 	srli	r2,r7,6
 8003f04:	11000e04 	addi	r4,r2,56
 8003f08:	210b883a 	add	r5,r4,r4
 8003f0c:	003fbe06 	br	8003e08 <__alt_data_end+0xfc003e08>
 8003f10:	84ff5d26 	beq	r16,r19,8003c88 <__alt_data_end+0xfc003c88>
 8003f14:	9c000217 	ldw	r16,8(r19)
 8003f18:	00bfff04 	movi	r2,-4
 8003f1c:	80c00117 	ldw	r3,4(r16)
 8003f20:	1886703a 	and	r3,r3,r2
 8003f24:	003f9706 	br	8003d84 <__alt_data_end+0xfc003d84>
 8003f28:	52800017 	ldw	r10,0(r10)
 8003f2c:	18ffffc4 	addi	r3,r3,-1
 8003f30:	50805c1e 	bne	r10,r2,80040a4 <_malloc_r+0x798>
 8003f34:	190000cc 	andi	r4,r3,3
 8003f38:	50bffe04 	addi	r2,r10,-8
 8003f3c:	203ffa1e 	bne	r4,zero,8003f28 <__alt_data_end+0xfc003f28>
 8003f40:	98800117 	ldw	r2,4(r19)
 8003f44:	0146303a 	nor	r3,zero,r5
 8003f48:	1884703a 	and	r2,r3,r2
 8003f4c:	98800115 	stw	r2,4(r19)
 8003f50:	294b883a 	add	r5,r5,r5
 8003f54:	117f2e36 	bltu	r2,r5,8003c10 <__alt_data_end+0xfc003c10>
 8003f58:	283f2d26 	beq	r5,zero,8003c10 <__alt_data_end+0xfc003c10>
 8003f5c:	1146703a 	and	r3,r2,r5
 8003f60:	1800521e 	bne	r3,zero,80040ac <_malloc_r+0x7a0>
 8003f64:	6007883a 	mov	r3,r12
 8003f68:	294b883a 	add	r5,r5,r5
 8003f6c:	1148703a 	and	r4,r2,r5
 8003f70:	18c00104 	addi	r3,r3,4
 8003f74:	203ffc26 	beq	r4,zero,8003f68 <__alt_data_end+0xfc003f68>
 8003f78:	003ef006 	br	8003b3c <__alt_data_end+0xfc003b3c>
 8003f7c:	00805504 	movi	r2,340
 8003f80:	10c01336 	bltu	r2,r3,8003fd0 <_malloc_r+0x6c4>
 8003f84:	8806d3fa 	srli	r3,r17,15
 8003f88:	19c01dc4 	addi	r7,r3,119
 8003f8c:	39cb883a 	add	r5,r7,r7
 8003f90:	003ea206 	br	8003a1c <__alt_data_end+0xfc003a1c>
 8003f94:	00c40004 	movi	r3,4096
 8003f98:	003f4d06 	br	8003cd0 <__alt_data_end+0xfc003cd0>
 8003f9c:	00800044 	movi	r2,1
 8003fa0:	a0800115 	stw	r2,4(r20)
 8003fa4:	a021883a 	mov	r16,r20
 8003fa8:	0007883a 	mov	r3,zero
 8003fac:	003f7506 	br	8003d84 <__alt_data_end+0xfc003d84>
 8003fb0:	200bd0ba 	srai	r5,r4,2
 8003fb4:	01800044 	movi	r6,1
 8003fb8:	41000117 	ldw	r4,4(r8)
 8003fbc:	314a983a 	sll	r5,r6,r5
 8003fc0:	100d883a 	mov	r6,r2
 8003fc4:	2908b03a 	or	r4,r5,r4
 8003fc8:	41000115 	stw	r4,4(r8)
 8003fcc:	003f9d06 	br	8003e44 <__alt_data_end+0xfc003e44>
 8003fd0:	00815504 	movi	r2,1364
 8003fd4:	10c01336 	bltu	r2,r3,8004024 <_malloc_r+0x718>
 8003fd8:	8806d4ba 	srli	r3,r17,18
 8003fdc:	19c01f04 	addi	r7,r3,124
 8003fe0:	39cb883a 	add	r5,r7,r7
 8003fe4:	003e8d06 	br	8003a1c <__alt_data_end+0xfc003a1c>
 8003fe8:	ad400404 	addi	r21,r21,16
 8003fec:	003f1d06 	br	8003c64 <__alt_data_end+0xfc003c64>
 8003ff0:	01001504 	movi	r4,84
 8003ff4:	20801c36 	bltu	r4,r2,8004068 <_malloc_r+0x75c>
 8003ff8:	3804d33a 	srli	r2,r7,12
 8003ffc:	11001b84 	addi	r4,r2,110
 8004000:	210b883a 	add	r5,r4,r4
 8004004:	003f8006 	br	8003e08 <__alt_data_end+0xfc003e08>
 8004008:	3083ffcc 	andi	r2,r6,4095
 800400c:	103f241e 	bne	r2,zero,8003ca0 <__alt_data_end+0xfc003ca0>
 8004010:	99000217 	ldw	r4,8(r19)
 8004014:	ad85883a 	add	r2,r21,r22
 8004018:	10800054 	ori	r2,r2,1
 800401c:	20800115 	stw	r2,4(r4)
 8004020:	003f4a06 	br	8003d4c <__alt_data_end+0xfc003d4c>
 8004024:	01403f04 	movi	r5,252
 8004028:	01c01f84 	movi	r7,126
 800402c:	003e7b06 	br	8003a1c <__alt_data_end+0xfc003a1c>
 8004030:	00c00044 	movi	r3,1
 8004034:	002b883a 	mov	r21,zero
 8004038:	003f3006 	br	8003cfc <__alt_data_end+0xfc003cfc>
 800403c:	008200b4 	movhi	r2,2050
 8004040:	10809104 	addi	r2,r2,580
 8004044:	15000015 	stw	r20,0(r2)
 8004048:	003f1b06 	br	8003cb8 <__alt_data_end+0xfc003cb8>
 800404c:	9009883a 	mov	r4,r18
 8004050:	81400204 	addi	r5,r16,8
 8004054:	800d1780 	call	800d178 <_free_r>
 8004058:	008200b4 	movhi	r2,2050
 800405c:	108a3104 	addi	r2,r2,10436
 8004060:	10c00017 	ldw	r3,0(r2)
 8004064:	003f3906 	br	8003d4c <__alt_data_end+0xfc003d4c>
 8004068:	01005504 	movi	r4,340
 800406c:	20800436 	bltu	r4,r2,8004080 <_malloc_r+0x774>
 8004070:	3804d3fa 	srli	r2,r7,15
 8004074:	11001dc4 	addi	r4,r2,119
 8004078:	210b883a 	add	r5,r4,r4
 800407c:	003f6206 	br	8003e08 <__alt_data_end+0xfc003e08>
 8004080:	01015504 	movi	r4,1364
 8004084:	20800436 	bltu	r4,r2,8004098 <_malloc_r+0x78c>
 8004088:	3804d4ba 	srli	r2,r7,18
 800408c:	11001f04 	addi	r4,r2,124
 8004090:	210b883a 	add	r5,r4,r4
 8004094:	003f5c06 	br	8003e08 <__alt_data_end+0xfc003e08>
 8004098:	01403f04 	movi	r5,252
 800409c:	01001f84 	movi	r4,126
 80040a0:	003f5906 	br	8003e08 <__alt_data_end+0xfc003e08>
 80040a4:	98800117 	ldw	r2,4(r19)
 80040a8:	003fa906 	br	8003f50 <__alt_data_end+0xfc003f50>
 80040ac:	6007883a 	mov	r3,r12
 80040b0:	003ea206 	br	8003b3c <__alt_data_end+0xfc003b3c>

080040b4 <memset>:
 80040b4:	20c000cc 	andi	r3,r4,3
 80040b8:	2005883a 	mov	r2,r4
 80040bc:	18004326 	beq	r3,zero,80041cc <memset+0x118>
 80040c0:	31ffffc4 	addi	r7,r6,-1
 80040c4:	30004026 	beq	r6,zero,80041c8 <memset+0x114>
 80040c8:	2813883a 	mov	r9,r5
 80040cc:	200d883a 	mov	r6,r4
 80040d0:	2007883a 	mov	r3,r4
 80040d4:	00000406 	br	80040e8 <memset+0x34>
 80040d8:	3a3fffc4 	addi	r8,r7,-1
 80040dc:	31800044 	addi	r6,r6,1
 80040e0:	38003926 	beq	r7,zero,80041c8 <memset+0x114>
 80040e4:	400f883a 	mov	r7,r8
 80040e8:	18c00044 	addi	r3,r3,1
 80040ec:	32400005 	stb	r9,0(r6)
 80040f0:	1a0000cc 	andi	r8,r3,3
 80040f4:	403ff81e 	bne	r8,zero,80040d8 <__alt_data_end+0xfc0040d8>
 80040f8:	010000c4 	movi	r4,3
 80040fc:	21c02d2e 	bgeu	r4,r7,80041b4 <memset+0x100>
 8004100:	29803fcc 	andi	r6,r5,255
 8004104:	3008923a 	slli	r4,r6,8
 8004108:	218cb03a 	or	r6,r4,r6
 800410c:	3008943a 	slli	r4,r6,16
 8004110:	218cb03a 	or	r6,r4,r6
 8004114:	010003c4 	movi	r4,15
 8004118:	21c0182e 	bgeu	r4,r7,800417c <memset+0xc8>
 800411c:	3b3ffc04 	addi	r12,r7,-16
 8004120:	6018d13a 	srli	r12,r12,4
 8004124:	1a000104 	addi	r8,r3,4
 8004128:	1ac00204 	addi	r11,r3,8
 800412c:	6008913a 	slli	r4,r12,4
 8004130:	1a800304 	addi	r10,r3,12
 8004134:	1813883a 	mov	r9,r3
 8004138:	21000504 	addi	r4,r4,20
 800413c:	1909883a 	add	r4,r3,r4
 8004140:	49800015 	stw	r6,0(r9)
 8004144:	41800015 	stw	r6,0(r8)
 8004148:	59800015 	stw	r6,0(r11)
 800414c:	51800015 	stw	r6,0(r10)
 8004150:	42000404 	addi	r8,r8,16
 8004154:	4a400404 	addi	r9,r9,16
 8004158:	5ac00404 	addi	r11,r11,16
 800415c:	52800404 	addi	r10,r10,16
 8004160:	413ff71e 	bne	r8,r4,8004140 <__alt_data_end+0xfc004140>
 8004164:	63000044 	addi	r12,r12,1
 8004168:	6018913a 	slli	r12,r12,4
 800416c:	39c003cc 	andi	r7,r7,15
 8004170:	010000c4 	movi	r4,3
 8004174:	1b07883a 	add	r3,r3,r12
 8004178:	21c00e2e 	bgeu	r4,r7,80041b4 <memset+0x100>
 800417c:	1813883a 	mov	r9,r3
 8004180:	3811883a 	mov	r8,r7
 8004184:	010000c4 	movi	r4,3
 8004188:	49800015 	stw	r6,0(r9)
 800418c:	423fff04 	addi	r8,r8,-4
 8004190:	4a400104 	addi	r9,r9,4
 8004194:	223ffc36 	bltu	r4,r8,8004188 <__alt_data_end+0xfc004188>
 8004198:	393fff04 	addi	r4,r7,-4
 800419c:	2008d0ba 	srli	r4,r4,2
 80041a0:	39c000cc 	andi	r7,r7,3
 80041a4:	21000044 	addi	r4,r4,1
 80041a8:	2109883a 	add	r4,r4,r4
 80041ac:	2109883a 	add	r4,r4,r4
 80041b0:	1907883a 	add	r3,r3,r4
 80041b4:	38000426 	beq	r7,zero,80041c8 <memset+0x114>
 80041b8:	19cf883a 	add	r7,r3,r7
 80041bc:	19400005 	stb	r5,0(r3)
 80041c0:	18c00044 	addi	r3,r3,1
 80041c4:	19fffd1e 	bne	r3,r7,80041bc <__alt_data_end+0xfc0041bc>
 80041c8:	f800283a 	ret
 80041cc:	2007883a 	mov	r3,r4
 80041d0:	300f883a 	mov	r7,r6
 80041d4:	003fc806 	br	80040f8 <__alt_data_end+0xfc0040f8>

080041d8 <_printf_r>:
 80041d8:	defffd04 	addi	sp,sp,-12
 80041dc:	dfc00015 	stw	ra,0(sp)
 80041e0:	d9800115 	stw	r6,4(sp)
 80041e4:	d9c00215 	stw	r7,8(sp)
 80041e8:	280d883a 	mov	r6,r5
 80041ec:	21400217 	ldw	r5,8(r4)
 80041f0:	d9c00104 	addi	r7,sp,4
 80041f4:	80072580 	call	8007258 <___vfprintf_internal_r>
 80041f8:	dfc00017 	ldw	ra,0(sp)
 80041fc:	dec00304 	addi	sp,sp,12
 8004200:	f800283a 	ret

08004204 <printf>:
 8004204:	defffc04 	addi	sp,sp,-16
 8004208:	dfc00015 	stw	ra,0(sp)
 800420c:	d9400115 	stw	r5,4(sp)
 8004210:	d9800215 	stw	r6,8(sp)
 8004214:	d9c00315 	stw	r7,12(sp)
 8004218:	008200b4 	movhi	r2,2050
 800421c:	10809004 	addi	r2,r2,576
 8004220:	10800017 	ldw	r2,0(r2)
 8004224:	200b883a 	mov	r5,r4
 8004228:	d9800104 	addi	r6,sp,4
 800422c:	11000217 	ldw	r4,8(r2)
 8004230:	80093540 	call	8009354 <__vfprintf_internal>
 8004234:	dfc00017 	ldw	ra,0(sp)
 8004238:	dec00404 	addi	sp,sp,16
 800423c:	f800283a 	ret

08004240 <_putchar_r>:
 8004240:	21800217 	ldw	r6,8(r4)
 8004244:	800f3c01 	jmpi	800f3c0 <_putc_r>

08004248 <putchar>:
 8004248:	008200b4 	movhi	r2,2050
 800424c:	10809004 	addi	r2,r2,576
 8004250:	200b883a 	mov	r5,r4
 8004254:	11000017 	ldw	r4,0(r2)
 8004258:	21800217 	ldw	r6,8(r4)
 800425c:	800f3c01 	jmpi	800f3c0 <_putc_r>

08004260 <_puts_r>:
 8004260:	defff604 	addi	sp,sp,-40
 8004264:	dc000715 	stw	r16,28(sp)
 8004268:	2021883a 	mov	r16,r4
 800426c:	2809883a 	mov	r4,r5
 8004270:	dc400815 	stw	r17,32(sp)
 8004274:	dfc00915 	stw	ra,36(sp)
 8004278:	2823883a 	mov	r17,r5
 800427c:	80049680 	call	8004968 <strlen>
 8004280:	00c200b4 	movhi	r3,2050
 8004284:	18c09004 	addi	r3,r3,576
 8004288:	18c00017 	ldw	r3,0(r3)
 800428c:	11000044 	addi	r4,r2,1
 8004290:	d8800115 	stw	r2,4(sp)
 8004294:	18c00217 	ldw	r3,8(r3)
 8004298:	014200b4 	movhi	r5,2050
 800429c:	2977d304 	addi	r5,r5,-8372
 80042a0:	1880030b 	ldhu	r2,12(r3)
 80042a4:	d9400215 	stw	r5,8(sp)
 80042a8:	d9000615 	stw	r4,24(sp)
 80042ac:	01400044 	movi	r5,1
 80042b0:	01000084 	movi	r4,2
 80042b4:	d9000515 	stw	r4,20(sp)
 80042b8:	dc400015 	stw	r17,0(sp)
 80042bc:	d9400315 	stw	r5,12(sp)
 80042c0:	dec00415 	stw	sp,16(sp)
 80042c4:	1108000c 	andi	r4,r2,8192
 80042c8:	2000061e 	bne	r4,zero,80042e4 <_puts_r+0x84>
 80042cc:	19401917 	ldw	r5,100(r3)
 80042d0:	0137ffc4 	movi	r4,-8193
 80042d4:	10880014 	ori	r2,r2,8192
 80042d8:	2908703a 	and	r4,r5,r4
 80042dc:	1880030d 	sth	r2,12(r3)
 80042e0:	19001915 	stw	r4,100(r3)
 80042e4:	81400217 	ldw	r5,8(r16)
 80042e8:	8009883a 	mov	r4,r16
 80042ec:	d9800404 	addi	r6,sp,16
 80042f0:	800d4680 	call	800d468 <__sfvwrite_r>
 80042f4:	1000061e 	bne	r2,zero,8004310 <_puts_r+0xb0>
 80042f8:	00800284 	movi	r2,10
 80042fc:	dfc00917 	ldw	ra,36(sp)
 8004300:	dc400817 	ldw	r17,32(sp)
 8004304:	dc000717 	ldw	r16,28(sp)
 8004308:	dec00a04 	addi	sp,sp,40
 800430c:	f800283a 	ret
 8004310:	00bfffc4 	movi	r2,-1
 8004314:	003ff906 	br	80042fc <__alt_data_end+0xfc0042fc>

08004318 <puts>:
 8004318:	008200b4 	movhi	r2,2050
 800431c:	10809004 	addi	r2,r2,576
 8004320:	200b883a 	mov	r5,r4
 8004324:	11000017 	ldw	r4,0(r2)
 8004328:	80042601 	jmpi	8004260 <_puts_r>

0800432c <_sbrk_r>:
 800432c:	defffd04 	addi	sp,sp,-12
 8004330:	dc000015 	stw	r16,0(sp)
 8004334:	040200b4 	movhi	r16,2050
 8004338:	dc400115 	stw	r17,4(sp)
 800433c:	8407e304 	addi	r16,r16,8076
 8004340:	2023883a 	mov	r17,r4
 8004344:	2809883a 	mov	r4,r5
 8004348:	dfc00215 	stw	ra,8(sp)
 800434c:	80000015 	stw	zero,0(r16)
 8004350:	801ad240 	call	801ad24 <sbrk>
 8004354:	00ffffc4 	movi	r3,-1
 8004358:	10c00526 	beq	r2,r3,8004370 <_sbrk_r+0x44>
 800435c:	dfc00217 	ldw	ra,8(sp)
 8004360:	dc400117 	ldw	r17,4(sp)
 8004364:	dc000017 	ldw	r16,0(sp)
 8004368:	dec00304 	addi	sp,sp,12
 800436c:	f800283a 	ret
 8004370:	80c00017 	ldw	r3,0(r16)
 8004374:	183ff926 	beq	r3,zero,800435c <__alt_data_end+0xfc00435c>
 8004378:	88c00015 	stw	r3,0(r17)
 800437c:	003ff706 	br	800435c <__alt_data_end+0xfc00435c>

08004380 <scanf>:
 8004380:	defffc04 	addi	sp,sp,-16
 8004384:	dfc00015 	stw	ra,0(sp)
 8004388:	d9400115 	stw	r5,4(sp)
 800438c:	d9800215 	stw	r6,8(sp)
 8004390:	d9c00315 	stw	r7,12(sp)
 8004394:	008200b4 	movhi	r2,2050
 8004398:	10809004 	addi	r2,r2,576
 800439c:	200d883a 	mov	r6,r4
 80043a0:	11000017 	ldw	r4,0(r2)
 80043a4:	d9c00104 	addi	r7,sp,4
 80043a8:	21400117 	ldw	r5,4(r4)
 80043ac:	80093780 	call	8009378 <__svfscanf_r>
 80043b0:	dfc00017 	ldw	ra,0(sp)
 80043b4:	dec00404 	addi	sp,sp,16
 80043b8:	f800283a 	ret

080043bc <_scanf_r>:
 80043bc:	defffd04 	addi	sp,sp,-12
 80043c0:	dfc00015 	stw	ra,0(sp)
 80043c4:	d9800115 	stw	r6,4(sp)
 80043c8:	d9c00215 	stw	r7,8(sp)
 80043cc:	280d883a 	mov	r6,r5
 80043d0:	21400117 	ldw	r5,4(r4)
 80043d4:	d9c00104 	addi	r7,sp,4
 80043d8:	80093780 	call	8009378 <__svfscanf_r>
 80043dc:	dfc00017 	ldw	ra,0(sp)
 80043e0:	dec00304 	addi	sp,sp,12
 80043e4:	f800283a 	ret

080043e8 <_init_signal_r>:
 80043e8:	2080b717 	ldw	r2,732(r4)
 80043ec:	defffe04 	addi	sp,sp,-8
 80043f0:	dc000015 	stw	r16,0(sp)
 80043f4:	dfc00115 	stw	ra,4(sp)
 80043f8:	2021883a 	mov	r16,r4
 80043fc:	10000526 	beq	r2,zero,8004414 <_init_signal_r+0x2c>
 8004400:	0005883a 	mov	r2,zero
 8004404:	dfc00117 	ldw	ra,4(sp)
 8004408:	dc000017 	ldw	r16,0(sp)
 800440c:	dec00204 	addi	sp,sp,8
 8004410:	f800283a 	ret
 8004414:	01402004 	movi	r5,128
 8004418:	800390c0 	call	800390c <_malloc_r>
 800441c:	8080b715 	stw	r2,732(r16)
 8004420:	10000926 	beq	r2,zero,8004448 <_init_signal_r+0x60>
 8004424:	0007883a 	mov	r3,zero
 8004428:	01002004 	movi	r4,128
 800442c:	00000106 	br	8004434 <_init_signal_r+0x4c>
 8004430:	8080b717 	ldw	r2,732(r16)
 8004434:	10c5883a 	add	r2,r2,r3
 8004438:	10000015 	stw	zero,0(r2)
 800443c:	18c00104 	addi	r3,r3,4
 8004440:	193ffb1e 	bne	r3,r4,8004430 <__alt_data_end+0xfc004430>
 8004444:	003fee06 	br	8004400 <__alt_data_end+0xfc004400>
 8004448:	00bfffc4 	movi	r2,-1
 800444c:	003fed06 	br	8004404 <__alt_data_end+0xfc004404>

08004450 <_signal_r>:
 8004450:	00c007c4 	movi	r3,31
 8004454:	19401536 	bltu	r3,r5,80044ac <_signal_r+0x5c>
 8004458:	2080b717 	ldw	r2,732(r4)
 800445c:	defffc04 	addi	sp,sp,-16
 8004460:	dc800215 	stw	r18,8(sp)
 8004464:	dc400115 	stw	r17,4(sp)
 8004468:	dc000015 	stw	r16,0(sp)
 800446c:	dfc00315 	stw	ra,12(sp)
 8004470:	3023883a 	mov	r17,r6
 8004474:	2021883a 	mov	r16,r4
 8004478:	2825883a 	mov	r18,r5
 800447c:	10000f26 	beq	r2,zero,80044bc <_signal_r+0x6c>
 8004480:	948b883a 	add	r5,r18,r18
 8004484:	294b883a 	add	r5,r5,r5
 8004488:	114b883a 	add	r5,r2,r5
 800448c:	28800017 	ldw	r2,0(r5)
 8004490:	2c400015 	stw	r17,0(r5)
 8004494:	dfc00317 	ldw	ra,12(sp)
 8004498:	dc800217 	ldw	r18,8(sp)
 800449c:	dc400117 	ldw	r17,4(sp)
 80044a0:	dc000017 	ldw	r16,0(sp)
 80044a4:	dec00404 	addi	sp,sp,16
 80044a8:	f800283a 	ret
 80044ac:	00c00584 	movi	r3,22
 80044b0:	20c00015 	stw	r3,0(r4)
 80044b4:	00bfffc4 	movi	r2,-1
 80044b8:	f800283a 	ret
 80044bc:	80043e80 	call	80043e8 <_init_signal_r>
 80044c0:	1000021e 	bne	r2,zero,80044cc <_signal_r+0x7c>
 80044c4:	8080b717 	ldw	r2,732(r16)
 80044c8:	003fed06 	br	8004480 <__alt_data_end+0xfc004480>
 80044cc:	00bfffc4 	movi	r2,-1
 80044d0:	003ff006 	br	8004494 <__alt_data_end+0xfc004494>

080044d4 <_raise_r>:
 80044d4:	008007c4 	movi	r2,31
 80044d8:	11402936 	bltu	r2,r5,8004580 <_raise_r+0xac>
 80044dc:	20c0b717 	ldw	r3,732(r4)
 80044e0:	defffd04 	addi	sp,sp,-12
 80044e4:	dc400115 	stw	r17,4(sp)
 80044e8:	dc000015 	stw	r16,0(sp)
 80044ec:	dfc00215 	stw	ra,8(sp)
 80044f0:	2023883a 	mov	r17,r4
 80044f4:	2821883a 	mov	r16,r5
 80044f8:	18001726 	beq	r3,zero,8004558 <_raise_r+0x84>
 80044fc:	2945883a 	add	r2,r5,r5
 8004500:	1085883a 	add	r2,r2,r2
 8004504:	1887883a 	add	r3,r3,r2
 8004508:	19400017 	ldw	r5,0(r3)
 800450c:	28001226 	beq	r5,zero,8004558 <_raise_r+0x84>
 8004510:	00800044 	movi	r2,1
 8004514:	28800e26 	beq	r5,r2,8004550 <_raise_r+0x7c>
 8004518:	013fffc4 	movi	r4,-1
 800451c:	29000926 	beq	r5,r4,8004544 <_raise_r+0x70>
 8004520:	18000015 	stw	zero,0(r3)
 8004524:	8009883a 	mov	r4,r16
 8004528:	283ee83a 	callr	r5
 800452c:	0005883a 	mov	r2,zero
 8004530:	dfc00217 	ldw	ra,8(sp)
 8004534:	dc400117 	ldw	r17,4(sp)
 8004538:	dc000017 	ldw	r16,0(sp)
 800453c:	dec00304 	addi	sp,sp,12
 8004540:	f800283a 	ret
 8004544:	00c00584 	movi	r3,22
 8004548:	88c00015 	stw	r3,0(r17)
 800454c:	003ff806 	br	8004530 <__alt_data_end+0xfc004530>
 8004550:	0005883a 	mov	r2,zero
 8004554:	003ff606 	br	8004530 <__alt_data_end+0xfc004530>
 8004558:	8809883a 	mov	r4,r17
 800455c:	80046e40 	call	80046e4 <_getpid_r>
 8004560:	8809883a 	mov	r4,r17
 8004564:	100b883a 	mov	r5,r2
 8004568:	800d883a 	mov	r6,r16
 800456c:	dfc00217 	ldw	ra,8(sp)
 8004570:	dc400117 	ldw	r17,4(sp)
 8004574:	dc000017 	ldw	r16,0(sp)
 8004578:	dec00304 	addi	sp,sp,12
 800457c:	800468c1 	jmpi	800468c <_kill_r>
 8004580:	00800584 	movi	r2,22
 8004584:	20800015 	stw	r2,0(r4)
 8004588:	00bfffc4 	movi	r2,-1
 800458c:	f800283a 	ret

08004590 <__sigtramp_r>:
 8004590:	008007c4 	movi	r2,31
 8004594:	11402436 	bltu	r2,r5,8004628 <__sigtramp_r+0x98>
 8004598:	20c0b717 	ldw	r3,732(r4)
 800459c:	defffd04 	addi	sp,sp,-12
 80045a0:	dc400115 	stw	r17,4(sp)
 80045a4:	dc000015 	stw	r16,0(sp)
 80045a8:	dfc00215 	stw	ra,8(sp)
 80045ac:	2021883a 	mov	r16,r4
 80045b0:	2823883a 	mov	r17,r5
 80045b4:	18001826 	beq	r3,zero,8004618 <__sigtramp_r+0x88>
 80045b8:	8c45883a 	add	r2,r17,r17
 80045bc:	1085883a 	add	r2,r2,r2
 80045c0:	1885883a 	add	r2,r3,r2
 80045c4:	10c00017 	ldw	r3,0(r2)
 80045c8:	18001126 	beq	r3,zero,8004610 <__sigtramp_r+0x80>
 80045cc:	013fffc4 	movi	r4,-1
 80045d0:	19000d26 	beq	r3,r4,8004608 <__sigtramp_r+0x78>
 80045d4:	01000044 	movi	r4,1
 80045d8:	19000926 	beq	r3,r4,8004600 <__sigtramp_r+0x70>
 80045dc:	10000015 	stw	zero,0(r2)
 80045e0:	8809883a 	mov	r4,r17
 80045e4:	183ee83a 	callr	r3
 80045e8:	0005883a 	mov	r2,zero
 80045ec:	dfc00217 	ldw	ra,8(sp)
 80045f0:	dc400117 	ldw	r17,4(sp)
 80045f4:	dc000017 	ldw	r16,0(sp)
 80045f8:	dec00304 	addi	sp,sp,12
 80045fc:	f800283a 	ret
 8004600:	008000c4 	movi	r2,3
 8004604:	003ff906 	br	80045ec <__alt_data_end+0xfc0045ec>
 8004608:	00800084 	movi	r2,2
 800460c:	003ff706 	br	80045ec <__alt_data_end+0xfc0045ec>
 8004610:	00800044 	movi	r2,1
 8004614:	003ff506 	br	80045ec <__alt_data_end+0xfc0045ec>
 8004618:	80043e80 	call	80043e8 <_init_signal_r>
 800461c:	1000041e 	bne	r2,zero,8004630 <__sigtramp_r+0xa0>
 8004620:	80c0b717 	ldw	r3,732(r16)
 8004624:	003fe406 	br	80045b8 <__alt_data_end+0xfc0045b8>
 8004628:	00bfffc4 	movi	r2,-1
 800462c:	f800283a 	ret
 8004630:	00bfffc4 	movi	r2,-1
 8004634:	003fed06 	br	80045ec <__alt_data_end+0xfc0045ec>

08004638 <raise>:
 8004638:	008200b4 	movhi	r2,2050
 800463c:	10809004 	addi	r2,r2,576
 8004640:	200b883a 	mov	r5,r4
 8004644:	11000017 	ldw	r4,0(r2)
 8004648:	80044d41 	jmpi	80044d4 <_raise_r>

0800464c <signal>:
 800464c:	00c200b4 	movhi	r3,2050
 8004650:	18c09004 	addi	r3,r3,576
 8004654:	2005883a 	mov	r2,r4
 8004658:	19000017 	ldw	r4,0(r3)
 800465c:	280d883a 	mov	r6,r5
 8004660:	100b883a 	mov	r5,r2
 8004664:	80044501 	jmpi	8004450 <_signal_r>

08004668 <_init_signal>:
 8004668:	008200b4 	movhi	r2,2050
 800466c:	10809004 	addi	r2,r2,576
 8004670:	11000017 	ldw	r4,0(r2)
 8004674:	80043e81 	jmpi	80043e8 <_init_signal_r>

08004678 <__sigtramp>:
 8004678:	008200b4 	movhi	r2,2050
 800467c:	10809004 	addi	r2,r2,576
 8004680:	200b883a 	mov	r5,r4
 8004684:	11000017 	ldw	r4,0(r2)
 8004688:	80045901 	jmpi	8004590 <__sigtramp_r>

0800468c <_kill_r>:
 800468c:	defffd04 	addi	sp,sp,-12
 8004690:	dc000015 	stw	r16,0(sp)
 8004694:	040200b4 	movhi	r16,2050
 8004698:	dc400115 	stw	r17,4(sp)
 800469c:	8407e304 	addi	r16,r16,8076
 80046a0:	2023883a 	mov	r17,r4
 80046a4:	2809883a 	mov	r4,r5
 80046a8:	300b883a 	mov	r5,r6
 80046ac:	dfc00215 	stw	ra,8(sp)
 80046b0:	80000015 	stw	zero,0(r16)
 80046b4:	801a4ec0 	call	801a4ec <kill>
 80046b8:	00ffffc4 	movi	r3,-1
 80046bc:	10c00526 	beq	r2,r3,80046d4 <_kill_r+0x48>
 80046c0:	dfc00217 	ldw	ra,8(sp)
 80046c4:	dc400117 	ldw	r17,4(sp)
 80046c8:	dc000017 	ldw	r16,0(sp)
 80046cc:	dec00304 	addi	sp,sp,12
 80046d0:	f800283a 	ret
 80046d4:	80c00017 	ldw	r3,0(r16)
 80046d8:	183ff926 	beq	r3,zero,80046c0 <__alt_data_end+0xfc0046c0>
 80046dc:	88c00015 	stw	r3,0(r17)
 80046e0:	003ff706 	br	80046c0 <__alt_data_end+0xfc0046c0>

080046e4 <_getpid_r>:
 80046e4:	801a3801 	jmpi	801a380 <getpid>

080046e8 <_sprintf_r>:
 80046e8:	deffe404 	addi	sp,sp,-112
 80046ec:	2807883a 	mov	r3,r5
 80046f0:	dfc01a15 	stw	ra,104(sp)
 80046f4:	d9c01b15 	stw	r7,108(sp)
 80046f8:	00a00034 	movhi	r2,32768
 80046fc:	10bfffc4 	addi	r2,r2,-1
 8004700:	02008204 	movi	r8,520
 8004704:	d8800215 	stw	r2,8(sp)
 8004708:	d8800515 	stw	r2,20(sp)
 800470c:	d80b883a 	mov	r5,sp
 8004710:	d9c01b04 	addi	r7,sp,108
 8004714:	00bfffc4 	movi	r2,-1
 8004718:	d8c00015 	stw	r3,0(sp)
 800471c:	d8c00415 	stw	r3,16(sp)
 8004720:	da00030d 	sth	r8,12(sp)
 8004724:	d880038d 	sth	r2,14(sp)
 8004728:	80051e80 	call	80051e8 <___svfprintf_internal_r>
 800472c:	d8c00017 	ldw	r3,0(sp)
 8004730:	18000005 	stb	zero,0(r3)
 8004734:	dfc01a17 	ldw	ra,104(sp)
 8004738:	dec01c04 	addi	sp,sp,112
 800473c:	f800283a 	ret

08004740 <sprintf>:
 8004740:	deffe304 	addi	sp,sp,-116
 8004744:	2007883a 	mov	r3,r4
 8004748:	dfc01a15 	stw	ra,104(sp)
 800474c:	d9801b15 	stw	r6,108(sp)
 8004750:	d9c01c15 	stw	r7,112(sp)
 8004754:	010200b4 	movhi	r4,2050
 8004758:	21009004 	addi	r4,r4,576
 800475c:	21000017 	ldw	r4,0(r4)
 8004760:	00a00034 	movhi	r2,32768
 8004764:	10bfffc4 	addi	r2,r2,-1
 8004768:	280d883a 	mov	r6,r5
 800476c:	02008204 	movi	r8,520
 8004770:	d8800215 	stw	r2,8(sp)
 8004774:	d8800515 	stw	r2,20(sp)
 8004778:	d80b883a 	mov	r5,sp
 800477c:	d9c01b04 	addi	r7,sp,108
 8004780:	00bfffc4 	movi	r2,-1
 8004784:	d8c00015 	stw	r3,0(sp)
 8004788:	d8c00415 	stw	r3,16(sp)
 800478c:	da00030d 	sth	r8,12(sp)
 8004790:	d880038d 	sth	r2,14(sp)
 8004794:	80051e80 	call	80051e8 <___svfprintf_internal_r>
 8004798:	d8c00017 	ldw	r3,0(sp)
 800479c:	18000005 	stb	zero,0(r3)
 80047a0:	dfc01a17 	ldw	ra,104(sp)
 80047a4:	dec01d04 	addi	sp,sp,116
 80047a8:	f800283a 	ret

080047ac <strcat>:
 80047ac:	defffe04 	addi	sp,sp,-8
 80047b0:	dc000015 	stw	r16,0(sp)
 80047b4:	dfc00115 	stw	ra,4(sp)
 80047b8:	208000cc 	andi	r2,r4,3
 80047bc:	2021883a 	mov	r16,r4
 80047c0:	1000111e 	bne	r2,zero,8004808 <strcat+0x5c>
 80047c4:	20800017 	ldw	r2,0(r4)
 80047c8:	027fbff4 	movhi	r9,65279
 80047cc:	4a7fbfc4 	addi	r9,r9,-257
 80047d0:	0086303a 	nor	r3,zero,r2
 80047d4:	02202074 	movhi	r8,32897
 80047d8:	1245883a 	add	r2,r2,r9
 80047dc:	42202004 	addi	r8,r8,-32640
 80047e0:	10c4703a 	and	r2,r2,r3
 80047e4:	1204703a 	and	r2,r2,r8
 80047e8:	1000071e 	bne	r2,zero,8004808 <strcat+0x5c>
 80047ec:	21000104 	addi	r4,r4,4
 80047f0:	21800017 	ldw	r6,0(r4)
 80047f4:	324f883a 	add	r7,r6,r9
 80047f8:	018c303a 	nor	r6,zero,r6
 80047fc:	398c703a 	and	r6,r7,r6
 8004800:	320c703a 	and	r6,r6,r8
 8004804:	303ff926 	beq	r6,zero,80047ec <__alt_data_end+0xfc0047ec>
 8004808:	20800007 	ldb	r2,0(r4)
 800480c:	10000326 	beq	r2,zero,800481c <strcat+0x70>
 8004810:	21000044 	addi	r4,r4,1
 8004814:	21800007 	ldb	r6,0(r4)
 8004818:	303ffd1e 	bne	r6,zero,8004810 <__alt_data_end+0xfc004810>
 800481c:	80048d80 	call	80048d8 <strcpy>
 8004820:	8005883a 	mov	r2,r16
 8004824:	dfc00117 	ldw	ra,4(sp)
 8004828:	dc000017 	ldw	r16,0(sp)
 800482c:	dec00204 	addi	sp,sp,8
 8004830:	f800283a 	ret

08004834 <strcmp>:
 8004834:	2144b03a 	or	r2,r4,r5
 8004838:	108000cc 	andi	r2,r2,3
 800483c:	1000171e 	bne	r2,zero,800489c <strcmp+0x68>
 8004840:	20800017 	ldw	r2,0(r4)
 8004844:	28c00017 	ldw	r3,0(r5)
 8004848:	10c0141e 	bne	r2,r3,800489c <strcmp+0x68>
 800484c:	027fbff4 	movhi	r9,65279
 8004850:	4a7fbfc4 	addi	r9,r9,-257
 8004854:	0086303a 	nor	r3,zero,r2
 8004858:	02202074 	movhi	r8,32897
 800485c:	1245883a 	add	r2,r2,r9
 8004860:	42202004 	addi	r8,r8,-32640
 8004864:	10c4703a 	and	r2,r2,r3
 8004868:	1204703a 	and	r2,r2,r8
 800486c:	10000226 	beq	r2,zero,8004878 <strcmp+0x44>
 8004870:	00001706 	br	80048d0 <strcmp+0x9c>
 8004874:	1000161e 	bne	r2,zero,80048d0 <strcmp+0x9c>
 8004878:	21000104 	addi	r4,r4,4
 800487c:	20c00017 	ldw	r3,0(r4)
 8004880:	29400104 	addi	r5,r5,4
 8004884:	29800017 	ldw	r6,0(r5)
 8004888:	1a4f883a 	add	r7,r3,r9
 800488c:	00c4303a 	nor	r2,zero,r3
 8004890:	3884703a 	and	r2,r7,r2
 8004894:	1204703a 	and	r2,r2,r8
 8004898:	19bff626 	beq	r3,r6,8004874 <__alt_data_end+0xfc004874>
 800489c:	20800007 	ldb	r2,0(r4)
 80048a0:	1000051e 	bne	r2,zero,80048b8 <strcmp+0x84>
 80048a4:	00000606 	br	80048c0 <strcmp+0x8c>
 80048a8:	21000044 	addi	r4,r4,1
 80048ac:	20800007 	ldb	r2,0(r4)
 80048b0:	29400044 	addi	r5,r5,1
 80048b4:	10000226 	beq	r2,zero,80048c0 <strcmp+0x8c>
 80048b8:	28c00007 	ldb	r3,0(r5)
 80048bc:	10fffa26 	beq	r2,r3,80048a8 <__alt_data_end+0xfc0048a8>
 80048c0:	20800003 	ldbu	r2,0(r4)
 80048c4:	28c00003 	ldbu	r3,0(r5)
 80048c8:	10c5c83a 	sub	r2,r2,r3
 80048cc:	f800283a 	ret
 80048d0:	0005883a 	mov	r2,zero
 80048d4:	f800283a 	ret

080048d8 <strcpy>:
 80048d8:	2906b03a 	or	r3,r5,r4
 80048dc:	18c000cc 	andi	r3,r3,3
 80048e0:	2005883a 	mov	r2,r4
 80048e4:	1800161e 	bne	r3,zero,8004940 <strcpy+0x68>
 80048e8:	29c00017 	ldw	r7,0(r5)
 80048ec:	02ffbff4 	movhi	r11,65279
 80048f0:	5affbfc4 	addi	r11,r11,-257
 80048f4:	02a02074 	movhi	r10,32897
 80048f8:	01c8303a 	nor	r4,zero,r7
 80048fc:	3ac7883a 	add	r3,r7,r11
 8004900:	52a02004 	addi	r10,r10,-32640
 8004904:	20c6703a 	and	r3,r4,r3
 8004908:	1a86703a 	and	r3,r3,r10
 800490c:	18000c1e 	bne	r3,zero,8004940 <strcpy+0x68>
 8004910:	1011883a 	mov	r8,r2
 8004914:	41c00015 	stw	r7,0(r8)
 8004918:	29400104 	addi	r5,r5,4
 800491c:	29c00017 	ldw	r7,0(r5)
 8004920:	41800104 	addi	r6,r8,4
 8004924:	3011883a 	mov	r8,r6
 8004928:	01d2303a 	nor	r9,zero,r7
 800492c:	3ac7883a 	add	r3,r7,r11
 8004930:	48c6703a 	and	r3,r9,r3
 8004934:	1a86703a 	and	r3,r3,r10
 8004938:	183ff626 	beq	r3,zero,8004914 <__alt_data_end+0xfc004914>
 800493c:	00000106 	br	8004944 <strcpy+0x6c>
 8004940:	100d883a 	mov	r6,r2
 8004944:	28c00003 	ldbu	r3,0(r5)
 8004948:	31800044 	addi	r6,r6,1
 800494c:	29400044 	addi	r5,r5,1
 8004950:	30ffffc5 	stb	r3,-1(r6)
 8004954:	18c03fcc 	andi	r3,r3,255
